
bin\Debug\Assistive_Devices_Code_V1.elf:     file format elf32-avr

Sections:
Idx Name          Size      VMA       LMA       File off  Algn
  0 .data         00000000  00800200  00002e1e  00002ed2  2**0
                  CONTENTS, ALLOC, LOAD, DATA
  1 .text         00002e1e  00000000  00000000  000000b4  2**1
                  CONTENTS, ALLOC, LOAD, READONLY, CODE
  2 .bss          00000004  00800200  00800200  00002ed2  2**0
                  ALLOC
  3 .fuse         00000003  00820000  00820000  00002ed2  2**0
                  CONTENTS, ALLOC, LOAD, DATA
  4 .comment      00000012  00000000  00000000  00002ed5  2**0
                  CONTENTS, READONLY
  5 .note.gnu.avr.deviceinfo 00000040  00000000  00000000  00002ee8  2**2
                  CONTENTS, READONLY, OCTETS
  6 .debug_aranges 000001a0  00000000  00000000  00002f28  2**3
                  CONTENTS, READONLY, DEBUGGING, OCTETS
  7 .debug_pubnames 0000001d  00000000  00000000  000030c8  2**0
                  CONTENTS, READONLY, DEBUGGING, OCTETS
  8 .debug_info   00001722  00000000  00000000  000030e5  2**0
                  CONTENTS, READONLY, DEBUGGING, OCTETS
  9 .debug_abbrev 00000f1a  00000000  00000000  00004807  2**0
                  CONTENTS, READONLY, DEBUGGING, OCTETS
 10 .debug_line   00001bd5  00000000  00000000  00005721  2**0
                  CONTENTS, READONLY, DEBUGGING, OCTETS
 11 .debug_frame  000004dc  00000000  00000000  000072f8  2**2
                  CONTENTS, READONLY, DEBUGGING, OCTETS
 12 .debug_str    00000713  00000000  00000000  000077d4  2**0
                  CONTENTS, READONLY, DEBUGGING, OCTETS
 13 .debug_line_str 00000157  00000000  00000000  00007ee7  2**0
                  CONTENTS, READONLY, DEBUGGING, OCTETS

Disassembly of section .text:

00000000 <__vectors>:
       0:	0c 94 90 00 	jmp	0x120	; 0x120 <__ctors_end>
       4:	0c 94 a4 00 	jmp	0x148	; 0x148 <__bad_interrupt>
       8:	0c 94 a4 00 	jmp	0x148	; 0x148 <__bad_interrupt>
       c:	0c 94 a4 00 	jmp	0x148	; 0x148 <__bad_interrupt>
      10:	0c 94 a4 00 	jmp	0x148	; 0x148 <__bad_interrupt>
      14:	0c 94 a4 00 	jmp	0x148	; 0x148 <__bad_interrupt>
      18:	0c 94 a4 00 	jmp	0x148	; 0x148 <__bad_interrupt>
      1c:	0c 94 a4 00 	jmp	0x148	; 0x148 <__bad_interrupt>
      20:	0c 94 a4 00 	jmp	0x148	; 0x148 <__bad_interrupt>
      24:	0c 94 a4 00 	jmp	0x148	; 0x148 <__bad_interrupt>
      28:	0c 94 a4 00 	jmp	0x148	; 0x148 <__bad_interrupt>
      2c:	0c 94 a4 00 	jmp	0x148	; 0x148 <__bad_interrupt>
      30:	0c 94 a4 00 	jmp	0x148	; 0x148 <__bad_interrupt>
      34:	0c 94 a4 00 	jmp	0x148	; 0x148 <__bad_interrupt>
      38:	0c 94 a4 00 	jmp	0x148	; 0x148 <__bad_interrupt>
      3c:	0c 94 a4 00 	jmp	0x148	; 0x148 <__bad_interrupt>
      40:	0c 94 a4 00 	jmp	0x148	; 0x148 <__bad_interrupt>
      44:	0c 94 a4 00 	jmp	0x148	; 0x148 <__bad_interrupt>
      48:	0c 94 a4 00 	jmp	0x148	; 0x148 <__bad_interrupt>
      4c:	0c 94 a4 00 	jmp	0x148	; 0x148 <__bad_interrupt>
      50:	0c 94 a4 00 	jmp	0x148	; 0x148 <__bad_interrupt>
      54:	0c 94 88 01 	jmp	0x310	; 0x310 <__vector_21>
      58:	0c 94 e6 01 	jmp	0x3cc	; 0x3cc <__vector_22>
      5c:	0c 94 a6 00 	jmp	0x14c	; 0x14c <__vector_23>
      60:	0c 94 a4 00 	jmp	0x148	; 0x148 <__bad_interrupt>
      64:	0c 94 a4 00 	jmp	0x148	; 0x148 <__bad_interrupt>
      68:	0c 94 a4 00 	jmp	0x148	; 0x148 <__bad_interrupt>
      6c:	0c 94 a4 00 	jmp	0x148	; 0x148 <__bad_interrupt>
      70:	0c 94 a4 00 	jmp	0x148	; 0x148 <__bad_interrupt>
      74:	0c 94 a4 00 	jmp	0x148	; 0x148 <__bad_interrupt>
      78:	0c 94 a4 00 	jmp	0x148	; 0x148 <__bad_interrupt>
      7c:	0c 94 a4 00 	jmp	0x148	; 0x148 <__bad_interrupt>
      80:	0c 94 b6 01 	jmp	0x36c	; 0x36c <__vector_32>
      84:	0c 94 14 02 	jmp	0x428	; 0x428 <__vector_33>
      88:	0c 94 a4 00 	jmp	0x148	; 0x148 <__bad_interrupt>
      8c:	0c 94 15 01 	jmp	0x22a	; 0x22a <__vector_35>
      90:	0c 94 a4 00 	jmp	0x148	; 0x148 <__bad_interrupt>
      94:	0c 94 a4 00 	jmp	0x148	; 0x148 <__bad_interrupt>
      98:	0c 94 a4 00 	jmp	0x148	; 0x148 <__bad_interrupt>
      9c:	0c 94 a4 00 	jmp	0x148	; 0x148 <__bad_interrupt>
      a0:	0c 94 a4 00 	jmp	0x148	; 0x148 <__bad_interrupt>
      a4:	0c 94 a4 00 	jmp	0x148	; 0x148 <__bad_interrupt>
      a8:	0c 94 40 13 	jmp	0x2680	; 0x2680 <__vector_42>
      ac:	0c 94 68 13 	jmp	0x26d0	; 0x26d0 <__vector_43>
      b0:	0c 94 a4 00 	jmp	0x148	; 0x148 <__bad_interrupt>
      b4:	0c 94 06 13 	jmp	0x260c	; 0x260c <__vector_45>
      b8:	0c 94 a4 00 	jmp	0x148	; 0x148 <__bad_interrupt>
      bc:	0c 94 58 12 	jmp	0x24b0	; 0x24b0 <__vector_47>
      c0:	0c 94 92 12 	jmp	0x2524	; 0x2524 <__vector_48>
      c4:	0c 94 a4 00 	jmp	0x148	; 0x148 <__bad_interrupt>
      c8:	0c 94 c3 12 	jmp	0x2586	; 0x2586 <__vector_50>
      cc:	0c 94 a4 00 	jmp	0x148	; 0x148 <__bad_interrupt>
      d0:	0c 94 a4 00 	jmp	0x148	; 0x148 <__bad_interrupt>
      d4:	0c 94 a4 00 	jmp	0x148	; 0x148 <__bad_interrupt>
      d8:	0c 94 a4 00 	jmp	0x148	; 0x148 <__bad_interrupt>
      dc:	0c 94 a4 00 	jmp	0x148	; 0x148 <__bad_interrupt>
      e0:	0c 94 a4 00 	jmp	0x148	; 0x148 <__bad_interrupt>

000000e4 <__trampolines_start>:
      e4:	0c 94 a3 0d 	jmp	0x1b46	; 0x1b46 <.L36>
      e8:	0c 94 6d 06 	jmp	0xcda	; 0xcda <.L47>
      ec:	0c 94 f2 0f 	jmp	0x1fe4	; 0x1fe4 <.L41>
      f0:	0c 94 fd 0f 	jmp	0x1ffa	; 0x1ffa <.L39>
      f4:	0c 94 4c 12 	jmp	0x2498	; 0x2498 <.L200>
      f8:	0c 94 34 0a 	jmp	0x1468	; 0x1468 <.L44>
      fc:	0c 94 65 0b 	jmp	0x16ca	; 0x16ca <.L40>
     100:	0c 94 41 12 	jmp	0x2482	; 0x2482 <.L32>
     104:	0c 94 d0 0e 	jmp	0x1da0	; 0x1da0 <.L43>
     108:	0c 94 1f 11 	jmp	0x223e	; 0x223e <.L35>
     10c:	0c 94 06 08 	jmp	0x100c	; 0x100c <.L45>
     110:	0c 94 37 07 	jmp	0xe6e	; 0xe6e <.L46>
     114:	0c 94 40 0a 	jmp	0x1480	; 0x1480 <.L42>
     118:	0c 94 ae 0d 	jmp	0x1b5c	; 0x1b5c <.L34>
     11c:	0c 94 81 0c 	jmp	0x1902	; 0x1902 <.L38>

00000120 <__ctors_end>:
     120:	11 24       	eor	r1, r1
     122:	1f be       	out	0x3f, r1	; 63
     124:	cf ef       	ldi	r28, 0xFF	; 255
     126:	d1 e2       	ldi	r29, 0x21	; 33
     128:	de bf       	out	0x3e, r29	; 62
     12a:	cd bf       	out	0x3d, r28	; 61
     12c:	00 e0       	ldi	r16, 0x00	; 0
     12e:	0c bf       	out	0x3c, r16	; 60

00000130 <__do_clear_bss>:
     130:	22 e0       	ldi	r18, 0x02	; 2

00000132 <.Loc.1>:
     132:	a0 e0       	ldi	r26, 0x00	; 0

00000134 <.Loc.2>:
     134:	b2 e0       	ldi	r27, 0x02	; 2

00000136 <.Loc.3>:
     136:	01 c0       	rjmp	.+2      	; 0x13a <.Loc.5>

00000138 <.Loc.4>:
     138:	1d 92       	st	X+, r1

0000013a <.Loc.5>:
     13a:	a4 30       	cpi	r26, 0x04	; 4

0000013c <.Loc.6>:
     13c:	b2 07       	cpc	r27, r18

0000013e <.Loc.7>:
     13e:	e1 f7       	brne	.-8      	; 0x138 <.Loc.4>

00000140 <L0^A>:
     140:	0e 94 12 04 	call	0x824	; 0x824 <main>
     144:	0c 94 fe 16 	jmp	0x2dfc	; 0x2dfc <_exit>

00000148 <__bad_interrupt>:
     148:	0c 94 00 00 	jmp	0	; 0x0 <__vectors>

0000014c <__vector_23>:
#include <avr/io.h>
#include <avr/interrupt.h>
#include "h_bridge.h"

ISR(TIMER0_OVF_vect)
{
     14c:	1f 92       	push	r1
     14e:	0f 92       	push	r0
     150:	0f b6       	in	r0, 0x3f	; 63
     152:	0f 92       	push	r0
     154:	11 24       	eor	r1, r1
     156:	0b b6       	in	r0, 0x3b	; 59
     158:	0f 92       	push	r0
     15a:	2f 93       	push	r18
     15c:	8f 93       	push	r24
     15e:	9f 93       	push	r25
     160:	ef 93       	push	r30
     162:	ff 93       	push	r31
     164:	cf 93       	push	r28
     166:	df 93       	push	r29
     168:	cd b7       	in	r28, 0x3d	; 61
     16a:	de b7       	in	r29, 0x3e	; 62

0000016c <.Loc.1>:
	if (OCR0A == 0 && OCR0B == 0)
     16c:	87 e4       	ldi	r24, 0x47	; 71
     16e:	90 e0       	ldi	r25, 0x00	; 0
     170:	fc 01       	movw	r30, r24
     172:	80 81       	ld	r24, Z

00000174 <.Loc.2>:
     174:	88 23       	and	r24, r24
     176:	c9 f4       	brne	.+50     	; 0x1aa <.L2>

00000178 <.Loc.3>:
     178:	88 e4       	ldi	r24, 0x48	; 72
     17a:	90 e0       	ldi	r25, 0x00	; 0
     17c:	fc 01       	movw	r30, r24
     17e:	80 81       	ld	r24, Z

00000180 <.Loc.4>:
     180:	88 23       	and	r24, r24
     182:	99 f4       	brne	.+38     	; 0x1aa <.L2>

00000184 <.Loc.5>:
	{
		PORT_RPWM &= ~(1<<PIN_RPWM);
     184:	8e e2       	ldi	r24, 0x2E	; 46
     186:	90 e0       	ldi	r25, 0x00	; 0
     188:	fc 01       	movw	r30, r24
     18a:	20 81       	ld	r18, Z

0000018c <.Loc.6>:
     18c:	8e e2       	ldi	r24, 0x2E	; 46
     18e:	90 e0       	ldi	r25, 0x00	; 0

00000190 <.Loc.7>:
     190:	2f 7e       	andi	r18, 0xEF	; 239
     192:	fc 01       	movw	r30, r24
     194:	20 83       	st	Z, r18

00000196 <.Loc.8>:
		PORT_LPWM &= ~(1<<PIN_LPWM);
     196:	8e e2       	ldi	r24, 0x2E	; 46
     198:	90 e0       	ldi	r25, 0x00	; 0
     19a:	fc 01       	movw	r30, r24
     19c:	20 81       	ld	r18, Z

0000019e <.Loc.9>:
     19e:	8e e2       	ldi	r24, 0x2E	; 46
     1a0:	90 e0       	ldi	r25, 0x00	; 0

000001a2 <.Loc.10>:
     1a2:	2f 7d       	andi	r18, 0xDF	; 223
     1a4:	fc 01       	movw	r30, r24
     1a6:	20 83       	st	Z, r18

000001a8 <.Loc.11>:
	else if (OCR0B != 0)
	{
		PORT_RPWM &= ~(1<<PIN_RPWM);
		PORT_LPWM |= (1<<PIN_LPWM);
	}
}
     1a8:	31 c0       	rjmp	.+98     	; 0x20c <.L5>

000001aa <.L2>:
	else if (OCR0A != 0)
     1aa:	87 e4       	ldi	r24, 0x47	; 71
     1ac:	90 e0       	ldi	r25, 0x00	; 0
     1ae:	fc 01       	movw	r30, r24
     1b0:	80 81       	ld	r24, Z

000001b2 <.Loc.13>:
     1b2:	88 23       	and	r24, r24
     1b4:	99 f0       	breq	.+38     	; 0x1dc <.L4>

000001b6 <.Loc.14>:
		PORT_LPWM &= ~(1<<PIN_LPWM);
     1b6:	8e e2       	ldi	r24, 0x2E	; 46
     1b8:	90 e0       	ldi	r25, 0x00	; 0
     1ba:	fc 01       	movw	r30, r24
     1bc:	20 81       	ld	r18, Z

000001be <.Loc.15>:
     1be:	8e e2       	ldi	r24, 0x2E	; 46
     1c0:	90 e0       	ldi	r25, 0x00	; 0

000001c2 <.Loc.16>:
     1c2:	2f 7d       	andi	r18, 0xDF	; 223
     1c4:	fc 01       	movw	r30, r24
     1c6:	20 83       	st	Z, r18

000001c8 <.Loc.17>:
		PORT_RPWM |= (1<<PIN_RPWM);
     1c8:	8e e2       	ldi	r24, 0x2E	; 46
     1ca:	90 e0       	ldi	r25, 0x00	; 0
     1cc:	fc 01       	movw	r30, r24
     1ce:	20 81       	ld	r18, Z
     1d0:	8e e2       	ldi	r24, 0x2E	; 46
     1d2:	90 e0       	ldi	r25, 0x00	; 0

000001d4 <.Loc.18>:
     1d4:	20 61       	ori	r18, 0x10	; 16
     1d6:	fc 01       	movw	r30, r24
     1d8:	20 83       	st	Z, r18

000001da <.Loc.19>:
}
     1da:	18 c0       	rjmp	.+48     	; 0x20c <.L5>

000001dc <.L4>:
	else if (OCR0B != 0)
     1dc:	88 e4       	ldi	r24, 0x48	; 72
     1de:	90 e0       	ldi	r25, 0x00	; 0
     1e0:	fc 01       	movw	r30, r24
     1e2:	80 81       	ld	r24, Z

000001e4 <.Loc.21>:
     1e4:	88 23       	and	r24, r24
     1e6:	91 f0       	breq	.+36     	; 0x20c <.L5>

000001e8 <.Loc.22>:
		PORT_RPWM &= ~(1<<PIN_RPWM);
     1e8:	8e e2       	ldi	r24, 0x2E	; 46
     1ea:	90 e0       	ldi	r25, 0x00	; 0
     1ec:	fc 01       	movw	r30, r24
     1ee:	20 81       	ld	r18, Z

000001f0 <.Loc.23>:
     1f0:	8e e2       	ldi	r24, 0x2E	; 46
     1f2:	90 e0       	ldi	r25, 0x00	; 0

000001f4 <.Loc.24>:
     1f4:	2f 7e       	andi	r18, 0xEF	; 239
     1f6:	fc 01       	movw	r30, r24
     1f8:	20 83       	st	Z, r18

000001fa <.Loc.25>:
		PORT_LPWM |= (1<<PIN_LPWM);
     1fa:	8e e2       	ldi	r24, 0x2E	; 46
     1fc:	90 e0       	ldi	r25, 0x00	; 0
     1fe:	fc 01       	movw	r30, r24
     200:	20 81       	ld	r18, Z
     202:	8e e2       	ldi	r24, 0x2E	; 46
     204:	90 e0       	ldi	r25, 0x00	; 0

00000206 <.Loc.26>:
     206:	20 62       	ori	r18, 0x20	; 32
     208:	fc 01       	movw	r30, r24
     20a:	20 83       	st	Z, r18

0000020c <.L5>:
}
     20c:	00 00       	nop
     20e:	df 91       	pop	r29
     210:	cf 91       	pop	r28
     212:	ff 91       	pop	r31
     214:	ef 91       	pop	r30
     216:	9f 91       	pop	r25
     218:	8f 91       	pop	r24
     21a:	2f 91       	pop	r18
     21c:	0f 90       	pop	r0
     21e:	0b be       	out	0x3b, r0	; 59
     220:	0f 90       	pop	r0
     222:	0f be       	out	0x3f, r0	; 63
     224:	0f 90       	pop	r0
     226:	1f 90       	pop	r1
     228:	18 95       	reti

0000022a <__vector_35>:
//		PORT_RPWM1 &= ~(1<<PIN_RPWM1);
//		PORT_LPWM1 |= (1<<PIN_LPWM1);
//	}
//}
ISR(TIMER3_OVF_vect)
{
     22a:	1f 92       	push	r1
     22c:	0f 92       	push	r0
     22e:	0f b6       	in	r0, 0x3f	; 63
     230:	0f 92       	push	r0
     232:	11 24       	eor	r1, r1
     234:	0b b6       	in	r0, 0x3b	; 59
     236:	0f 92       	push	r0
     238:	2f 93       	push	r18
     23a:	8f 93       	push	r24
     23c:	9f 93       	push	r25
     23e:	ef 93       	push	r30
     240:	ff 93       	push	r31
     242:	cf 93       	push	r28
     244:	df 93       	push	r29
     246:	cd b7       	in	r28, 0x3d	; 61
     248:	de b7       	in	r29, 0x3e	; 62

0000024a <.Loc.29>:
	if (OCR3A == 0 && OCR3B == 0)
     24a:	88 e9       	ldi	r24, 0x98	; 152
     24c:	90 e0       	ldi	r25, 0x00	; 0
     24e:	fc 01       	movw	r30, r24
     250:	80 81       	ld	r24, Z
     252:	91 81       	ldd	r25, Z+1	; 0x01

00000254 <.Loc.30>:
     254:	00 97       	sbiw	r24, 0x00	; 0
     256:	d1 f4       	brne	.+52     	; 0x28c <.L7>

00000258 <.Loc.31>:
     258:	8a e9       	ldi	r24, 0x9A	; 154
     25a:	90 e0       	ldi	r25, 0x00	; 0
     25c:	fc 01       	movw	r30, r24
     25e:	80 81       	ld	r24, Z
     260:	91 81       	ldd	r25, Z+1	; 0x01

00000262 <.Loc.32>:
     262:	00 97       	sbiw	r24, 0x00	; 0
     264:	99 f4       	brne	.+38     	; 0x28c <.L7>

00000266 <.Loc.33>:
	{
		PORT_RPWM2 &= ~(1<<PIN_RPWM2);
     266:	84 e3       	ldi	r24, 0x34	; 52
     268:	90 e0       	ldi	r25, 0x00	; 0
     26a:	fc 01       	movw	r30, r24
     26c:	20 81       	ld	r18, Z

0000026e <.Loc.34>:
     26e:	84 e3       	ldi	r24, 0x34	; 52
     270:	90 e0       	ldi	r25, 0x00	; 0

00000272 <.Loc.35>:
     272:	2f 7d       	andi	r18, 0xDF	; 223
     274:	fc 01       	movw	r30, r24
     276:	20 83       	st	Z, r18

00000278 <.Loc.36>:
		PORT_LPWM2 &= ~(1<<PIN_LPWM2);
     278:	8e e2       	ldi	r24, 0x2E	; 46
     27a:	90 e0       	ldi	r25, 0x00	; 0
     27c:	fc 01       	movw	r30, r24
     27e:	20 81       	ld	r18, Z

00000280 <.Loc.37>:
     280:	8e e2       	ldi	r24, 0x2E	; 46
     282:	90 e0       	ldi	r25, 0x00	; 0

00000284 <.Loc.38>:
     284:	27 7f       	andi	r18, 0xF7	; 247
     286:	fc 01       	movw	r30, r24
     288:	20 83       	st	Z, r18

0000028a <.Loc.39>:
	else if (OCR3B != 0)
	{
		PORT_RPWM2 &= ~(1<<PIN_RPWM2);
		PORT_LPWM2 |= (1<<PIN_LPWM2);
	}
}
     28a:	33 c0       	rjmp	.+102    	; 0x2f2 <.L10>

0000028c <.L7>:
	else if (OCR3A != 0)
     28c:	88 e9       	ldi	r24, 0x98	; 152
     28e:	90 e0       	ldi	r25, 0x00	; 0
     290:	fc 01       	movw	r30, r24
     292:	80 81       	ld	r24, Z
     294:	91 81       	ldd	r25, Z+1	; 0x01

00000296 <.Loc.41>:
     296:	00 97       	sbiw	r24, 0x00	; 0
     298:	99 f0       	breq	.+38     	; 0x2c0 <.L9>

0000029a <.Loc.42>:
		PORT_LPWM2 &= ~(1<<PIN_LPWM2);
     29a:	8e e2       	ldi	r24, 0x2E	; 46
     29c:	90 e0       	ldi	r25, 0x00	; 0
     29e:	fc 01       	movw	r30, r24
     2a0:	20 81       	ld	r18, Z

000002a2 <.Loc.43>:
     2a2:	8e e2       	ldi	r24, 0x2E	; 46
     2a4:	90 e0       	ldi	r25, 0x00	; 0

000002a6 <.Loc.44>:
     2a6:	27 7f       	andi	r18, 0xF7	; 247
     2a8:	fc 01       	movw	r30, r24
     2aa:	20 83       	st	Z, r18

000002ac <.Loc.45>:
		PORT_RPWM2 |= (1<<PIN_RPWM2);
     2ac:	84 e3       	ldi	r24, 0x34	; 52
     2ae:	90 e0       	ldi	r25, 0x00	; 0
     2b0:	fc 01       	movw	r30, r24
     2b2:	20 81       	ld	r18, Z
     2b4:	84 e3       	ldi	r24, 0x34	; 52
     2b6:	90 e0       	ldi	r25, 0x00	; 0

000002b8 <.Loc.46>:
     2b8:	20 62       	ori	r18, 0x20	; 32
     2ba:	fc 01       	movw	r30, r24
     2bc:	20 83       	st	Z, r18

000002be <.Loc.47>:
}
     2be:	19 c0       	rjmp	.+50     	; 0x2f2 <.L10>

000002c0 <.L9>:
	else if (OCR3B != 0)
     2c0:	8a e9       	ldi	r24, 0x9A	; 154
     2c2:	90 e0       	ldi	r25, 0x00	; 0
     2c4:	fc 01       	movw	r30, r24
     2c6:	80 81       	ld	r24, Z
     2c8:	91 81       	ldd	r25, Z+1	; 0x01

000002ca <.Loc.49>:
     2ca:	00 97       	sbiw	r24, 0x00	; 0
     2cc:	91 f0       	breq	.+36     	; 0x2f2 <.L10>

000002ce <.Loc.50>:
		PORT_RPWM2 &= ~(1<<PIN_RPWM2);
     2ce:	84 e3       	ldi	r24, 0x34	; 52
     2d0:	90 e0       	ldi	r25, 0x00	; 0
     2d2:	fc 01       	movw	r30, r24
     2d4:	20 81       	ld	r18, Z

000002d6 <.Loc.51>:
     2d6:	84 e3       	ldi	r24, 0x34	; 52
     2d8:	90 e0       	ldi	r25, 0x00	; 0

000002da <.Loc.52>:
     2da:	2f 7d       	andi	r18, 0xDF	; 223
     2dc:	fc 01       	movw	r30, r24
     2de:	20 83       	st	Z, r18

000002e0 <.Loc.53>:
		PORT_LPWM2 |= (1<<PIN_LPWM2);
     2e0:	8e e2       	ldi	r24, 0x2E	; 46
     2e2:	90 e0       	ldi	r25, 0x00	; 0
     2e4:	fc 01       	movw	r30, r24
     2e6:	20 81       	ld	r18, Z
     2e8:	8e e2       	ldi	r24, 0x2E	; 46
     2ea:	90 e0       	ldi	r25, 0x00	; 0

000002ec <.Loc.54>:
     2ec:	28 60       	ori	r18, 0x08	; 8
     2ee:	fc 01       	movw	r30, r24
     2f0:	20 83       	st	Z, r18

000002f2 <.L10>:
}
     2f2:	00 00       	nop
     2f4:	df 91       	pop	r29
     2f6:	cf 91       	pop	r28
     2f8:	ff 91       	pop	r31
     2fa:	ef 91       	pop	r30
     2fc:	9f 91       	pop	r25
     2fe:	8f 91       	pop	r24
     300:	2f 91       	pop	r18
     302:	0f 90       	pop	r0
     304:	0b be       	out	0x3b, r0	; 59
     306:	0f 90       	pop	r0
     308:	0f be       	out	0x3f, r0	; 63
     30a:	0f 90       	pop	r0
     30c:	1f 90       	pop	r1
     30e:	18 95       	reti

00000310 <__vector_21>:

ISR(TIMER0_COMPA_vect)
{
     310:	1f 92       	push	r1
     312:	0f 92       	push	r0
     314:	0f b6       	in	r0, 0x3f	; 63
     316:	0f 92       	push	r0
     318:	11 24       	eor	r1, r1
     31a:	0b b6       	in	r0, 0x3b	; 59
     31c:	0f 92       	push	r0
     31e:	2f 93       	push	r18
     320:	8f 93       	push	r24
     322:	9f 93       	push	r25
     324:	ef 93       	push	r30
     326:	ff 93       	push	r31
     328:	cf 93       	push	r28
     32a:	df 93       	push	r29
     32c:	cd b7       	in	r28, 0x3d	; 61
     32e:	de b7       	in	r29, 0x3e	; 62

00000330 <.Loc.57>:
	if (OCR0A != 255)
     330:	87 e4       	ldi	r24, 0x47	; 71
     332:	90 e0       	ldi	r25, 0x00	; 0
     334:	fc 01       	movw	r30, r24
     336:	80 81       	ld	r24, Z

00000338 <.Loc.58>:
     338:	8f 3f       	cpi	r24, 0xFF	; 255
     33a:	49 f0       	breq	.+18     	; 0x34e <.L13>

0000033c <.Loc.59>:
	{
		PORT_RPWM &= ~(1<<PIN_RPWM);
     33c:	8e e2       	ldi	r24, 0x2E	; 46
     33e:	90 e0       	ldi	r25, 0x00	; 0
     340:	fc 01       	movw	r30, r24
     342:	20 81       	ld	r18, Z

00000344 <.Loc.60>:
     344:	8e e2       	ldi	r24, 0x2E	; 46
     346:	90 e0       	ldi	r25, 0x00	; 0

00000348 <.Loc.61>:
     348:	2f 7e       	andi	r18, 0xEF	; 239
     34a:	fc 01       	movw	r30, r24
     34c:	20 83       	st	Z, r18

0000034e <.L13>:
	}
}
     34e:	00 00       	nop
     350:	df 91       	pop	r29
     352:	cf 91       	pop	r28
     354:	ff 91       	pop	r31
     356:	ef 91       	pop	r30
     358:	9f 91       	pop	r25
     35a:	8f 91       	pop	r24
     35c:	2f 91       	pop	r18
     35e:	0f 90       	pop	r0
     360:	0b be       	out	0x3b, r0	; 59
     362:	0f 90       	pop	r0
     364:	0f be       	out	0x3f, r0	; 63
     366:	0f 90       	pop	r0
     368:	1f 90       	pop	r1
     36a:	18 95       	reti

0000036c <__vector_32>:
//		PORT_RPWM1 &= ~(1<<PIN_RPWM1);
//	}
//}

ISR(TIMER3_COMPA_vect)
{
     36c:	1f 92       	push	r1
     36e:	0f 92       	push	r0
     370:	0f b6       	in	r0, 0x3f	; 63
     372:	0f 92       	push	r0
     374:	11 24       	eor	r1, r1
     376:	0b b6       	in	r0, 0x3b	; 59
     378:	0f 92       	push	r0
     37a:	2f 93       	push	r18
     37c:	8f 93       	push	r24
     37e:	9f 93       	push	r25
     380:	ef 93       	push	r30
     382:	ff 93       	push	r31
     384:	cf 93       	push	r28
     386:	df 93       	push	r29
     388:	cd b7       	in	r28, 0x3d	; 61
     38a:	de b7       	in	r29, 0x3e	; 62

0000038c <.Loc.64>:
	if (OCR3A != 65535)
     38c:	88 e9       	ldi	r24, 0x98	; 152
     38e:	90 e0       	ldi	r25, 0x00	; 0
     390:	fc 01       	movw	r30, r24
     392:	80 81       	ld	r24, Z
     394:	91 81       	ldd	r25, Z+1	; 0x01

00000396 <.Loc.65>:
     396:	8f 3f       	cpi	r24, 0xFF	; 255
     398:	98 07       	cpc	r25, r24
     39a:	49 f0       	breq	.+18     	; 0x3ae <.L16>

0000039c <.Loc.66>:
	{
		PORT_RPWM2 &= ~(1<<PIN_RPWM2);
     39c:	84 e3       	ldi	r24, 0x34	; 52
     39e:	90 e0       	ldi	r25, 0x00	; 0
     3a0:	fc 01       	movw	r30, r24
     3a2:	20 81       	ld	r18, Z

000003a4 <.Loc.67>:
     3a4:	84 e3       	ldi	r24, 0x34	; 52
     3a6:	90 e0       	ldi	r25, 0x00	; 0

000003a8 <.Loc.68>:
     3a8:	2f 7d       	andi	r18, 0xDF	; 223
     3aa:	fc 01       	movw	r30, r24
     3ac:	20 83       	st	Z, r18

000003ae <.L16>:
	}
}
     3ae:	00 00       	nop
     3b0:	df 91       	pop	r29
     3b2:	cf 91       	pop	r28
     3b4:	ff 91       	pop	r31
     3b6:	ef 91       	pop	r30
     3b8:	9f 91       	pop	r25
     3ba:	8f 91       	pop	r24
     3bc:	2f 91       	pop	r18
     3be:	0f 90       	pop	r0
     3c0:	0b be       	out	0x3b, r0	; 59
     3c2:	0f 90       	pop	r0
     3c4:	0f be       	out	0x3f, r0	; 63
     3c6:	0f 90       	pop	r0
     3c8:	1f 90       	pop	r1
     3ca:	18 95       	reti

000003cc <__vector_22>:

ISR(TIMER0_COMPB_vect)
{
     3cc:	1f 92       	push	r1
     3ce:	0f 92       	push	r0
     3d0:	0f b6       	in	r0, 0x3f	; 63
     3d2:	0f 92       	push	r0
     3d4:	11 24       	eor	r1, r1
     3d6:	0b b6       	in	r0, 0x3b	; 59
     3d8:	0f 92       	push	r0
     3da:	2f 93       	push	r18
     3dc:	8f 93       	push	r24
     3de:	9f 93       	push	r25
     3e0:	ef 93       	push	r30
     3e2:	ff 93       	push	r31
     3e4:	cf 93       	push	r28
     3e6:	df 93       	push	r29
     3e8:	cd b7       	in	r28, 0x3d	; 61
     3ea:	de b7       	in	r29, 0x3e	; 62

000003ec <.Loc.71>:
	if (OCR0B != 255)
     3ec:	88 e4       	ldi	r24, 0x48	; 72
     3ee:	90 e0       	ldi	r25, 0x00	; 0
     3f0:	fc 01       	movw	r30, r24
     3f2:	80 81       	ld	r24, Z

000003f4 <.Loc.72>:
     3f4:	8f 3f       	cpi	r24, 0xFF	; 255
     3f6:	49 f0       	breq	.+18     	; 0x40a <.L19>

000003f8 <.Loc.73>:
	{
		PORT_LPWM &= ~(1<<PIN_LPWM);
     3f8:	8e e2       	ldi	r24, 0x2E	; 46
     3fa:	90 e0       	ldi	r25, 0x00	; 0
     3fc:	fc 01       	movw	r30, r24
     3fe:	20 81       	ld	r18, Z

00000400 <.Loc.74>:
     400:	8e e2       	ldi	r24, 0x2E	; 46
     402:	90 e0       	ldi	r25, 0x00	; 0

00000404 <.Loc.75>:
     404:	2f 7d       	andi	r18, 0xDF	; 223
     406:	fc 01       	movw	r30, r24
     408:	20 83       	st	Z, r18

0000040a <.L19>:
	}
}
     40a:	00 00       	nop
     40c:	df 91       	pop	r29
     40e:	cf 91       	pop	r28
     410:	ff 91       	pop	r31
     412:	ef 91       	pop	r30
     414:	9f 91       	pop	r25
     416:	8f 91       	pop	r24
     418:	2f 91       	pop	r18
     41a:	0f 90       	pop	r0
     41c:	0b be       	out	0x3b, r0	; 59
     41e:	0f 90       	pop	r0
     420:	0f be       	out	0x3f, r0	; 63
     422:	0f 90       	pop	r0
     424:	1f 90       	pop	r1
     426:	18 95       	reti

00000428 <__vector_33>:
//		PORT_LPWM1 &= ~(1<<PIN_LPWM1);
//	}
//}

ISR(TIMER3_COMPB_vect)
{
     428:	1f 92       	push	r1
     42a:	0f 92       	push	r0
     42c:	0f b6       	in	r0, 0x3f	; 63
     42e:	0f 92       	push	r0
     430:	11 24       	eor	r1, r1
     432:	0b b6       	in	r0, 0x3b	; 59
     434:	0f 92       	push	r0
     436:	2f 93       	push	r18
     438:	8f 93       	push	r24
     43a:	9f 93       	push	r25
     43c:	ef 93       	push	r30
     43e:	ff 93       	push	r31
     440:	cf 93       	push	r28
     442:	df 93       	push	r29
     444:	cd b7       	in	r28, 0x3d	; 61
     446:	de b7       	in	r29, 0x3e	; 62

00000448 <.Loc.78>:
	if (OCR3B != 65535)
     448:	8a e9       	ldi	r24, 0x9A	; 154
     44a:	90 e0       	ldi	r25, 0x00	; 0
     44c:	fc 01       	movw	r30, r24
     44e:	80 81       	ld	r24, Z
     450:	91 81       	ldd	r25, Z+1	; 0x01

00000452 <.Loc.79>:
     452:	8f 3f       	cpi	r24, 0xFF	; 255
     454:	98 07       	cpc	r25, r24
     456:	49 f0       	breq	.+18     	; 0x46a <.L22>

00000458 <.Loc.80>:
	{
		PORT_LPWM2 &= ~(1<<PIN_LPWM2);
     458:	8e e2       	ldi	r24, 0x2E	; 46
     45a:	90 e0       	ldi	r25, 0x00	; 0
     45c:	fc 01       	movw	r30, r24
     45e:	20 81       	ld	r18, Z

00000460 <.Loc.81>:
     460:	8e e2       	ldi	r24, 0x2E	; 46
     462:	90 e0       	ldi	r25, 0x00	; 0

00000464 <.Loc.82>:
     464:	27 7f       	andi	r18, 0xF7	; 247
     466:	fc 01       	movw	r30, r24
     468:	20 83       	st	Z, r18

0000046a <.L22>:
	}
}
     46a:	00 00       	nop
     46c:	df 91       	pop	r29
     46e:	cf 91       	pop	r28
     470:	ff 91       	pop	r31
     472:	ef 91       	pop	r30
     474:	9f 91       	pop	r25
     476:	8f 91       	pop	r24
     478:	2f 91       	pop	r18
     47a:	0f 90       	pop	r0
     47c:	0b be       	out	0x3b, r0	; 59
     47e:	0f 90       	pop	r0
     480:	0f be       	out	0x3f, r0	; 63
     482:	0f 90       	pop	r0
     484:	1f 90       	pop	r1
     486:	18 95       	reti

00000488 <init_h_bridge>:

void init_h_bridge(void)
{
     488:	cf 93       	push	r28
     48a:	df 93       	push	r29
     48c:	cd b7       	in	r28, 0x3d	; 61
     48e:	de b7       	in	r29, 0x3e	; 62

00000490 <.Loc.85>:
	// Config pins as output
	DDR_RPWM |= (1<<PIN_RPWM);
     490:	8d e2       	ldi	r24, 0x2D	; 45
     492:	90 e0       	ldi	r25, 0x00	; 0
     494:	fc 01       	movw	r30, r24
     496:	20 81       	ld	r18, Z
     498:	8d e2       	ldi	r24, 0x2D	; 45
     49a:	90 e0       	ldi	r25, 0x00	; 0

0000049c <.Loc.86>:
     49c:	20 61       	ori	r18, 0x10	; 16
     49e:	fc 01       	movw	r30, r24
     4a0:	20 83       	st	Z, r18

000004a2 <.Loc.87>:
	DDR_LPWM |= (1<<PIN_LPWM);
     4a2:	8d e2       	ldi	r24, 0x2D	; 45
     4a4:	90 e0       	ldi	r25, 0x00	; 0
     4a6:	fc 01       	movw	r30, r24
     4a8:	20 81       	ld	r18, Z
     4aa:	8d e2       	ldi	r24, 0x2D	; 45
     4ac:	90 e0       	ldi	r25, 0x00	; 0

000004ae <.Loc.88>:
     4ae:	20 62       	ori	r18, 0x20	; 32
     4b0:	fc 01       	movw	r30, r24
     4b2:	20 83       	st	Z, r18

000004b4 <.Loc.89>:
//	DDR_RPWM1 |= (1<<PIN_RPWM1);
//	DDR_LPWM1 |= (1<<PIN_LPWM1);
	DDR_RPWM2 |= (1<<PIN_RPWM2);
     4b4:	83 e3       	ldi	r24, 0x33	; 51
     4b6:	90 e0       	ldi	r25, 0x00	; 0
     4b8:	fc 01       	movw	r30, r24
     4ba:	20 81       	ld	r18, Z
     4bc:	83 e3       	ldi	r24, 0x33	; 51
     4be:	90 e0       	ldi	r25, 0x00	; 0

000004c0 <.Loc.90>:
     4c0:	20 62       	ori	r18, 0x20	; 32
     4c2:	fc 01       	movw	r30, r24
     4c4:	20 83       	st	Z, r18

000004c6 <.Loc.91>:
	DDR_LPWM2 |= (1<<PIN_LPWM2);
     4c6:	8d e2       	ldi	r24, 0x2D	; 45
     4c8:	90 e0       	ldi	r25, 0x00	; 0
     4ca:	fc 01       	movw	r30, r24
     4cc:	20 81       	ld	r18, Z
     4ce:	8d e2       	ldi	r24, 0x2D	; 45
     4d0:	90 e0       	ldi	r25, 0x00	; 0

000004d2 <.Loc.92>:
     4d2:	28 60       	ori	r18, 0x08	; 8
     4d4:	fc 01       	movw	r30, r24
     4d6:	20 83       	st	Z, r18

000004d8 <.Loc.93>:

	// Output low
	PORT_RPWM &= ~(1<<PIN_RPWM);
     4d8:	8e e2       	ldi	r24, 0x2E	; 46
     4da:	90 e0       	ldi	r25, 0x00	; 0
     4dc:	fc 01       	movw	r30, r24
     4de:	20 81       	ld	r18, Z

000004e0 <.Loc.94>:
     4e0:	8e e2       	ldi	r24, 0x2E	; 46
     4e2:	90 e0       	ldi	r25, 0x00	; 0

000004e4 <.Loc.95>:
     4e4:	2f 7e       	andi	r18, 0xEF	; 239
     4e6:	fc 01       	movw	r30, r24
     4e8:	20 83       	st	Z, r18

000004ea <.Loc.96>:
	PORT_LPWM &= ~(1<<PIN_LPWM);
     4ea:	8e e2       	ldi	r24, 0x2E	; 46
     4ec:	90 e0       	ldi	r25, 0x00	; 0
     4ee:	fc 01       	movw	r30, r24
     4f0:	20 81       	ld	r18, Z

000004f2 <.Loc.97>:
     4f2:	8e e2       	ldi	r24, 0x2E	; 46
     4f4:	90 e0       	ldi	r25, 0x00	; 0

000004f6 <.Loc.98>:
     4f6:	2f 7d       	andi	r18, 0xDF	; 223
     4f8:	fc 01       	movw	r30, r24
     4fa:	20 83       	st	Z, r18

000004fc <.Loc.99>:
//	PORT_RPWM1 &= ~(1<<PIN_RPWM1);
//	PORT_LPWM1 &= ~(1<<PIN_LPWM1);
	PORT_RPWM2 &= ~(1<<PIN_RPWM2);
     4fc:	84 e3       	ldi	r24, 0x34	; 52
     4fe:	90 e0       	ldi	r25, 0x00	; 0
     500:	fc 01       	movw	r30, r24
     502:	20 81       	ld	r18, Z

00000504 <.Loc.100>:
     504:	84 e3       	ldi	r24, 0x34	; 52
     506:	90 e0       	ldi	r25, 0x00	; 0

00000508 <.Loc.101>:
     508:	2f 7d       	andi	r18, 0xDF	; 223
     50a:	fc 01       	movw	r30, r24
     50c:	20 83       	st	Z, r18

0000050e <.Loc.102>:
	PORT_LPWM2 &= ~(1<<PIN_LPWM2);
     50e:	8e e2       	ldi	r24, 0x2E	; 46
     510:	90 e0       	ldi	r25, 0x00	; 0
     512:	fc 01       	movw	r30, r24
     514:	20 81       	ld	r18, Z

00000516 <.Loc.103>:
     516:	8e e2       	ldi	r24, 0x2E	; 46
     518:	90 e0       	ldi	r25, 0x00	; 0

0000051a <.Loc.104>:
     51a:	27 7f       	andi	r18, 0xF7	; 247
     51c:	fc 01       	movw	r30, r24
     51e:	20 83       	st	Z, r18

00000520 <.Loc.105>:



	// Use mode 0, clkdiv = 64
	TCCR0A = 0;
     520:	84 e4       	ldi	r24, 0x44	; 68
     522:	90 e0       	ldi	r25, 0x00	; 0

00000524 <.Loc.106>:
     524:	fc 01       	movw	r30, r24
     526:	10 82       	st	Z, r1

00000528 <.Loc.107>:
	TCCR0B = (0<<CS02) | (1<<CS01) | (1<<CS00);
     528:	85 e4       	ldi	r24, 0x45	; 69
     52a:	90 e0       	ldi	r25, 0x00	; 0

0000052c <.Loc.108>:
     52c:	23 e0       	ldi	r18, 0x03	; 3
     52e:	fc 01       	movw	r30, r24
     530:	20 83       	st	Z, r18

00000532 <.Loc.109>:

	// Disable PWM output
	OCR0A = 0;
     532:	87 e4       	ldi	r24, 0x47	; 71
     534:	90 e0       	ldi	r25, 0x00	; 0

00000536 <.Loc.110>:
     536:	fc 01       	movw	r30, r24
     538:	10 82       	st	Z, r1

0000053a <.Loc.111>:
	OCR0B = 0;
     53a:	88 e4       	ldi	r24, 0x48	; 72
     53c:	90 e0       	ldi	r25, 0x00	; 0

0000053e <.Loc.112>:
     53e:	fc 01       	movw	r30, r24
     540:	10 82       	st	Z, r1

00000542 <.Loc.113>:

	// Interrupts on OCA, OCB and OVF
	TIMSK0 = (1<<OCIE0B) | (1<<OCIE0A) | (1<<TOIE0);
     542:	8e e6       	ldi	r24, 0x6E	; 110
     544:	90 e0       	ldi	r25, 0x00	; 0

00000546 <.Loc.114>:
     546:	27 e0       	ldi	r18, 0x07	; 7
     548:	fc 01       	movw	r30, r24
     54a:	20 83       	st	Z, r18

0000054c <.Loc.115>:
//	OCR1B = 0;

	// Interrupts on OCA, OCB and OVF
//	TIMSK1 = (1<<OCIE1B) | (1<<OCIE1A) | (1<<TOIE1);

	TCCR3A = 0;
     54c:	80 e9       	ldi	r24, 0x90	; 144
     54e:	90 e0       	ldi	r25, 0x00	; 0

00000550 <.Loc.116>:
     550:	fc 01       	movw	r30, r24
     552:	10 82       	st	Z, r1

00000554 <.Loc.117>:
	TCCR3B = (1<<CS30);
     554:	81 e9       	ldi	r24, 0x91	; 145
     556:	90 e0       	ldi	r25, 0x00	; 0

00000558 <.Loc.118>:
     558:	21 e0       	ldi	r18, 0x01	; 1
     55a:	fc 01       	movw	r30, r24
     55c:	20 83       	st	Z, r18

0000055e <.Loc.119>:

	// Disable PWM output
	OCR3A = 0;
     55e:	88 e9       	ldi	r24, 0x98	; 152
     560:	90 e0       	ldi	r25, 0x00	; 0

00000562 <.Loc.120>:
     562:	fc 01       	movw	r30, r24
     564:	11 82       	std	Z+1, r1	; 0x01
     566:	10 82       	st	Z, r1

00000568 <.Loc.121>:
	OCR3B = 0;
     568:	8a e9       	ldi	r24, 0x9A	; 154
     56a:	90 e0       	ldi	r25, 0x00	; 0

0000056c <.Loc.122>:
     56c:	fc 01       	movw	r30, r24
     56e:	11 82       	std	Z+1, r1	; 0x01
     570:	10 82       	st	Z, r1

00000572 <.Loc.123>:

	// Interrupts on OCA, OCB and OVF
	TIMSK3 = (1<<OCIE3B) | (1<<OCIE3A) | (1<<TOIE3);
     572:	81 e7       	ldi	r24, 0x71	; 113
     574:	90 e0       	ldi	r25, 0x00	; 0

00000576 <.Loc.124>:
     576:	27 e0       	ldi	r18, 0x07	; 7
     578:	fc 01       	movw	r30, r24
     57a:	20 83       	st	Z, r18

0000057c <.Loc.125>:


	sei();
     57c:	78 94       	sei

0000057e <.Loc.126>:
}
     57e:	00 00       	nop
     580:	df 91       	pop	r29
     582:	cf 91       	pop	r28
     584:	08 95       	ret

00000586 <h_bridge_set_percentage>:

void h_bridge_set_percentage(signed char percentage)
{
     586:	cf 93       	push	r28
     588:	df 93       	push	r29
     58a:	0f 92       	push	r0
     58c:	cd b7       	in	r28, 0x3d	; 61
     58e:	de b7       	in	r29, 0x3e	; 62
     590:	89 83       	std	Y+1, r24	; 0x01

00000592 <.Loc.128>:
	if (percentage >= -100 && percentage <= 100)
     592:	89 81       	ldd	r24, Y+1	; 0x01
     594:	8c 39       	cpi	r24, 0x9C	; 156
     596:	e4 f1       	brlt	.+120    	; 0x610 <.L27>

00000598 <.Loc.129>:
     598:	89 81       	ldd	r24, Y+1	; 0x01
     59a:	84 36       	cpi	r24, 0x64	; 100
     59c:	09 f0       	breq	.+2      	; 0x5a0 <.Loc.130>

0000059e <L0^A>:
     59e:	c4 f5       	brge	.+112    	; 0x610 <.L27>

000005a0 <.Loc.130>:
	{
		if (percentage >= 0)
     5a0:	89 81       	ldd	r24, Y+1	; 0x01
     5a2:	88 23       	and	r24, r24
     5a4:	dc f0       	brlt	.+54     	; 0x5dc <.L26>

000005a6 <.Loc.131>:
		{
			// Disable LPWM, calculate RPWM
			OCR0B = 0;
     5a6:	88 e4       	ldi	r24, 0x48	; 72
     5a8:	90 e0       	ldi	r25, 0x00	; 0

000005aa <.Loc.132>:
     5aa:	fc 01       	movw	r30, r24
     5ac:	10 82       	st	Z, r1

000005ae <.Loc.133>:
			OCR0A = (255*percentage)/100;
     5ae:	89 81       	ldd	r24, Y+1	; 0x01
     5b0:	08 2e       	mov	r0, r24
     5b2:	00 0c       	add	r0, r0
     5b4:	99 0b       	sbc	r25, r25
     5b6:	2f ef       	ldi	r18, 0xFF	; 255
     5b8:	28 9f       	mul	r18, r24
     5ba:	a0 01       	movw	r20, r0
     5bc:	29 9f       	mul	r18, r25
     5be:	50 0d       	add	r21, r0
     5c0:	11 24       	eor	r1, r1

000005c2 <.Loc.134>:
     5c2:	24 e6       	ldi	r18, 0x64	; 100
     5c4:	30 e0       	ldi	r19, 0x00	; 0
     5c6:	ca 01       	movw	r24, r20
     5c8:	b9 01       	movw	r22, r18
     5ca:	0e 94 ae 14 	call	0x295c	; 0x295c <__divmodhi4>
     5ce:	cb 01       	movw	r24, r22
     5d0:	9c 01       	movw	r18, r24

000005d2 <.Loc.135>:
     5d2:	87 e4       	ldi	r24, 0x47	; 71
     5d4:	90 e0       	ldi	r25, 0x00	; 0

000005d6 <.Loc.136>:
     5d6:	fc 01       	movw	r30, r24
     5d8:	20 83       	st	Z, r18

000005da <.Loc.137>:
			// Disable RPWM, calculate LPWM
			OCR0A = 0;
			OCR0B = (255*percentage)/-100;
		}
	}
}
     5da:	1a c0       	rjmp	.+52     	; 0x610 <.L27>

000005dc <.L26>:
			OCR0A = 0;
     5dc:	87 e4       	ldi	r24, 0x47	; 71
     5de:	90 e0       	ldi	r25, 0x00	; 0

000005e0 <.Loc.139>:
     5e0:	fc 01       	movw	r30, r24
     5e2:	10 82       	st	Z, r1

000005e4 <.Loc.140>:
			OCR0B = (255*percentage)/-100;
     5e4:	89 81       	ldd	r24, Y+1	; 0x01
     5e6:	08 2e       	mov	r0, r24
     5e8:	00 0c       	add	r0, r0
     5ea:	99 0b       	sbc	r25, r25
     5ec:	2f ef       	ldi	r18, 0xFF	; 255
     5ee:	28 9f       	mul	r18, r24
     5f0:	a0 01       	movw	r20, r0
     5f2:	29 9f       	mul	r18, r25
     5f4:	50 0d       	add	r21, r0
     5f6:	11 24       	eor	r1, r1

000005f8 <.Loc.141>:
     5f8:	2c e9       	ldi	r18, 0x9C	; 156
     5fa:	3f ef       	ldi	r19, 0xFF	; 255
     5fc:	ca 01       	movw	r24, r20
     5fe:	b9 01       	movw	r22, r18
     600:	0e 94 ae 14 	call	0x295c	; 0x295c <__divmodhi4>
     604:	cb 01       	movw	r24, r22
     606:	9c 01       	movw	r18, r24

00000608 <.Loc.142>:
     608:	88 e4       	ldi	r24, 0x48	; 72
     60a:	90 e0       	ldi	r25, 0x00	; 0

0000060c <.Loc.143>:
     60c:	fc 01       	movw	r30, r24
     60e:	20 83       	st	Z, r18

00000610 <.L27>:
}
     610:	00 00       	nop
     612:	0f 90       	pop	r0
     614:	df 91       	pop	r29
     616:	cf 91       	pop	r28
     618:	08 95       	ret

0000061a <h_bridge_set_percentage2>:
//			OCR1B = (65535*percentage)/-100;
//		}
//	}
//}
void h_bridge_set_percentage2(signed char percentage)
{
     61a:	0f 93       	push	r16
     61c:	1f 93       	push	r17
     61e:	cf 93       	push	r28
     620:	df 93       	push	r29
     622:	00 d0       	rcall	.+0      	; 0x624 <L0^A>

00000624 <L0^A>:
     624:	00 d0       	rcall	.+0      	; 0x626 <L0^A>

00000626 <L0^A>:
     626:	00 d0       	rcall	.+0      	; 0x628 <L0^A>

00000628 <L0^A>:
     628:	cd b7       	in	r28, 0x3d	; 61
     62a:	de b7       	in	r29, 0x3e	; 62
     62c:	89 83       	std	Y+1, r24	; 0x01

0000062e <.Loc.146>:
	if (percentage >= -100 && percentage <= 100)
     62e:	89 81       	ldd	r24, Y+1	; 0x01
     630:	8c 39       	cpi	r24, 0x9C	; 156
     632:	0c f4       	brge	.+2      	; 0x636 <.Loc.147>

00000634 <L0^A>:
     634:	61 c0       	rjmp	.+194    	; 0x6f8 <.L31>

00000636 <.Loc.147>:
     636:	89 81       	ldd	r24, Y+1	; 0x01
     638:	84 36       	cpi	r24, 0x64	; 100
     63a:	11 f0       	breq	.+4      	; 0x640 <.Loc.148>

0000063c <L0^A>:
     63c:	0c f0       	brlt	.+2      	; 0x640 <.Loc.148>

0000063e <L0^A>:
     63e:	5c c0       	rjmp	.+184    	; 0x6f8 <.L31>

00000640 <.Loc.148>:
	{
		if (percentage >= 0)
     640:	89 81       	ldd	r24, Y+1	; 0x01
     642:	88 23       	and	r24, r24
     644:	6c f1       	brlt	.+90     	; 0x6a0 <.L30>

00000646 <.Loc.149>:
		{
			// Disable LPWM, calculate RPWM
			OCR3B = 0;
     646:	8a e9       	ldi	r24, 0x9A	; 154
     648:	90 e0       	ldi	r25, 0x00	; 0

0000064a <.Loc.150>:
     64a:	fc 01       	movw	r30, r24
     64c:	11 82       	std	Z+1, r1	; 0x01
     64e:	10 82       	st	Z, r1

00000650 <.Loc.151>:
			OCR3A = (65535*percentage)/100;
     650:	89 81       	ldd	r24, Y+1	; 0x01
     652:	48 2f       	mov	r20, r24
     654:	88 0f       	add	r24, r24
     656:	55 0b       	sbc	r21, r21
     658:	66 0b       	sbc	r22, r22
     65a:	77 0b       	sbc	r23, r23
     65c:	8f ef       	ldi	r24, 0xFF	; 255
     65e:	9f ef       	ldi	r25, 0xFF	; 255
     660:	dc 01       	movw	r26, r24
     662:	9a 01       	movw	r18, r20
     664:	ab 01       	movw	r20, r22
     666:	0e 94 e9 14 	call	0x29d2	; 0x29d2 <__muluhisi3>
     66a:	6a 83       	std	Y+2, r22	; 0x02
     66c:	7b 83       	std	Y+3, r23	; 0x03
     66e:	8c 83       	std	Y+4, r24	; 0x04
     670:	9d 83       	std	Y+5, r25	; 0x05

00000672 <.Loc.152>:
     672:	04 e6       	ldi	r16, 0x64	; 100
     674:	10 e0       	ldi	r17, 0x00	; 0
     676:	20 e0       	ldi	r18, 0x00	; 0
     678:	30 e0       	ldi	r19, 0x00	; 0
     67a:	6a 81       	ldd	r22, Y+2	; 0x02
     67c:	7b 81       	ldd	r23, Y+3	; 0x03
     67e:	8c 81       	ldd	r24, Y+4	; 0x04
     680:	9d 81       	ldd	r25, Y+5	; 0x05
     682:	a9 01       	movw	r20, r18
     684:	98 01       	movw	r18, r16
     686:	0e 94 c2 14 	call	0x2984	; 0x2984 <__divmodsi4>
     68a:	da 01       	movw	r26, r20
     68c:	c9 01       	movw	r24, r18
     68e:	ac 01       	movw	r20, r24
     690:	bd 01       	movw	r22, r26

00000692 <.Loc.153>:
     692:	88 e9       	ldi	r24, 0x98	; 152
     694:	90 e0       	ldi	r25, 0x00	; 0

00000696 <.Loc.154>:
     696:	9a 01       	movw	r18, r20
     698:	fc 01       	movw	r30, r24
     69a:	31 83       	std	Z+1, r19	; 0x01
     69c:	20 83       	st	Z, r18

0000069e <.Loc.155>:
			// Disable RPWM, calculate LPWM
			OCR3A = 0;
			OCR3B = (65535*percentage)/-100;
		}
	}
}
     69e:	2c c0       	rjmp	.+88     	; 0x6f8 <.L31>

000006a0 <.L30>:
			OCR3A = 0;
     6a0:	88 e9       	ldi	r24, 0x98	; 152
     6a2:	90 e0       	ldi	r25, 0x00	; 0

000006a4 <.Loc.157>:
     6a4:	fc 01       	movw	r30, r24
     6a6:	11 82       	std	Z+1, r1	; 0x01
     6a8:	10 82       	st	Z, r1

000006aa <.Loc.158>:
			OCR3B = (65535*percentage)/-100;
     6aa:	89 81       	ldd	r24, Y+1	; 0x01
     6ac:	48 2f       	mov	r20, r24
     6ae:	88 0f       	add	r24, r24
     6b0:	55 0b       	sbc	r21, r21
     6b2:	66 0b       	sbc	r22, r22
     6b4:	77 0b       	sbc	r23, r23
     6b6:	8f ef       	ldi	r24, 0xFF	; 255
     6b8:	9f ef       	ldi	r25, 0xFF	; 255
     6ba:	dc 01       	movw	r26, r24
     6bc:	9a 01       	movw	r18, r20
     6be:	ab 01       	movw	r20, r22
     6c0:	0e 94 e9 14 	call	0x29d2	; 0x29d2 <__muluhisi3>
     6c4:	6e 83       	std	Y+6, r22	; 0x06
     6c6:	7f 83       	std	Y+7, r23	; 0x07
     6c8:	88 87       	std	Y+8, r24	; 0x08
     6ca:	99 87       	std	Y+9, r25	; 0x09

000006cc <.Loc.159>:
     6cc:	0c e9       	ldi	r16, 0x9C	; 156
     6ce:	1f ef       	ldi	r17, 0xFF	; 255
     6d0:	2f ef       	ldi	r18, 0xFF	; 255
     6d2:	3f ef       	ldi	r19, 0xFF	; 255
     6d4:	6e 81       	ldd	r22, Y+6	; 0x06
     6d6:	7f 81       	ldd	r23, Y+7	; 0x07
     6d8:	88 85       	ldd	r24, Y+8	; 0x08
     6da:	99 85       	ldd	r25, Y+9	; 0x09
     6dc:	a9 01       	movw	r20, r18
     6de:	98 01       	movw	r18, r16
     6e0:	0e 94 c2 14 	call	0x2984	; 0x2984 <__divmodsi4>
     6e4:	da 01       	movw	r26, r20
     6e6:	c9 01       	movw	r24, r18
     6e8:	ac 01       	movw	r20, r24
     6ea:	bd 01       	movw	r22, r26

000006ec <.Loc.160>:
     6ec:	8a e9       	ldi	r24, 0x9A	; 154
     6ee:	90 e0       	ldi	r25, 0x00	; 0

000006f0 <.Loc.161>:
     6f0:	9a 01       	movw	r18, r20
     6f2:	fc 01       	movw	r30, r24
     6f4:	31 83       	std	Z+1, r19	; 0x01
     6f6:	20 83       	st	Z, r18

000006f8 <.L31>:
}
     6f8:	00 00       	nop
     6fa:	29 96       	adiw	r28, 0x09	; 9
     6fc:	0f b6       	in	r0, 0x3f	; 63
     6fe:	f8 94       	cli
     700:	de bf       	out	0x3e, r29	; 62
     702:	0f be       	out	0x3f, r0	; 63
     704:	cd bf       	out	0x3d, r28	; 61
     706:	df 91       	pop	r29
     708:	cf 91       	pop	r28
     70a:	1f 91       	pop	r17
     70c:	0f 91       	pop	r16
     70e:	08 95       	ret

00000710 <buzzer>:

int buzz = 0;
int knipper = 0;

void buzzer(signed char power)                          // buzzer function
{                                                       // als je een '1' meegeeft aan de functie gaat de buzzer aan
     710:	cf 93       	push	r28
     712:	df 93       	push	r29
     714:	0f 92       	push	r0
     716:	cd b7       	in	r28, 0x3d	; 61
     718:	de b7       	in	r29, 0x3e	; 62
     71a:	89 83       	std	Y+1, r24	; 0x01

0000071c <.Loc.1>:
    if (power == 1)                                     // als je een '0' meegeeft aan de functie gaat de buzzer uit
     71c:	89 81       	ldd	r24, Y+1	; 0x01
     71e:	81 30       	cpi	r24, 0x01	; 1
     720:	51 f4       	brne	.+20     	; 0x736 <.L2>

00000722 <.Loc.2>:
    {
        TIMSK5 |= (1<<OCIE5B);
     722:	83 e7       	ldi	r24, 0x73	; 115
     724:	90 e0       	ldi	r25, 0x00	; 0
     726:	fc 01       	movw	r30, r24
     728:	20 81       	ld	r18, Z
     72a:	83 e7       	ldi	r24, 0x73	; 115
     72c:	90 e0       	ldi	r25, 0x00	; 0

0000072e <.Loc.3>:
     72e:	24 60       	ori	r18, 0x04	; 4
     730:	fc 01       	movw	r30, r24
     732:	20 83       	st	Z, r18

00000734 <.Loc.4>:
    else if (power == 0)
    {
        TIMSK5 |= (0<<OCIE5B);
        PORTD &= ~(1<<PD0);                             // buzzer uit
    }
}
     734:	14 c0       	rjmp	.+40     	; 0x75e <.L4>

00000736 <.L2>:
    else if (power == 0)
     736:	89 81       	ldd	r24, Y+1	; 0x01
     738:	88 23       	and	r24, r24
     73a:	89 f4       	brne	.+34     	; 0x75e <.L4>

0000073c <.Loc.6>:
        TIMSK5 |= (0<<OCIE5B);
     73c:	23 e7       	ldi	r18, 0x73	; 115
     73e:	30 e0       	ldi	r19, 0x00	; 0
     740:	83 e7       	ldi	r24, 0x73	; 115
     742:	90 e0       	ldi	r25, 0x00	; 0
     744:	f9 01       	movw	r30, r18
     746:	20 81       	ld	r18, Z

00000748 <.Loc.7>:
     748:	fc 01       	movw	r30, r24
     74a:	20 83       	st	Z, r18

0000074c <.Loc.8>:
        PORTD &= ~(1<<PD0);                             // buzzer uit
     74c:	8b e2       	ldi	r24, 0x2B	; 43
     74e:	90 e0       	ldi	r25, 0x00	; 0
     750:	fc 01       	movw	r30, r24
     752:	20 81       	ld	r18, Z

00000754 <.Loc.9>:
     754:	8b e2       	ldi	r24, 0x2B	; 43
     756:	90 e0       	ldi	r25, 0x00	; 0

00000758 <.Loc.10>:
     758:	2e 7f       	andi	r18, 0xFE	; 254
     75a:	fc 01       	movw	r30, r24
     75c:	20 83       	st	Z, r18

0000075e <.L4>:
}
     75e:	00 00       	nop
     760:	0f 90       	pop	r0
     762:	df 91       	pop	r29
     764:	cf 91       	pop	r28
     766:	08 95       	ret

00000768 <knipperLichten>:

void knipperLichten(signed char power)                  // knipperlicht functie met interrupt op timer 1
{                                                       // als je een '1' meegeeft aan de functie gaan de lichten aan
     768:	cf 93       	push	r28
     76a:	df 93       	push	r29
     76c:	0f 92       	push	r0
     76e:	cd b7       	in	r28, 0x3d	; 61
     770:	de b7       	in	r29, 0x3e	; 62
     772:	89 83       	std	Y+1, r24	; 0x01

00000774 <.Loc.13>:
    if (power == 1)                                     // als je een '0' meegeest aan de functie gaan de lichten uit
     774:	89 81       	ldd	r24, Y+1	; 0x01
     776:	81 30       	cpi	r24, 0x01	; 1
     778:	31 f4       	brne	.+12     	; 0x786 <.L6>

0000077a <.Loc.14>:
    {
        TIMSK5 = (1<<OCIE5A) | (1<<TOIE5);	            // eneble interrupt overflow en compare A en B
     77a:	83 e7       	ldi	r24, 0x73	; 115
     77c:	90 e0       	ldi	r25, 0x00	; 0

0000077e <.Loc.15>:
     77e:	23 e0       	ldi	r18, 0x03	; 3
     780:	fc 01       	movw	r30, r24
     782:	20 83       	st	Z, r18

00000784 <.Loc.16>:
    else if (power == 0)
    {
        TIMSK5 = 0x00;                                  // disable timer 1
        PORTK &= ~(1<<PK7) & ~(1<<PK6);                 // knipperlichten allebei uit
    }
}
     784:	10 c0       	rjmp	.+32     	; 0x7a6 <.L8>

00000786 <.L6>:
    else if (power == 0)
     786:	89 81       	ldd	r24, Y+1	; 0x01
     788:	88 23       	and	r24, r24
     78a:	69 f4       	brne	.+26     	; 0x7a6 <.L8>

0000078c <.Loc.18>:
        TIMSK5 = 0x00;                                  // disable timer 1
     78c:	83 e7       	ldi	r24, 0x73	; 115
     78e:	90 e0       	ldi	r25, 0x00	; 0

00000790 <.Loc.19>:
     790:	fc 01       	movw	r30, r24
     792:	10 82       	st	Z, r1

00000794 <.Loc.20>:
        PORTK &= ~(1<<PK7) & ~(1<<PK6);                 // knipperlichten allebei uit
     794:	88 e0       	ldi	r24, 0x08	; 8
     796:	91 e0       	ldi	r25, 0x01	; 1
     798:	fc 01       	movw	r30, r24
     79a:	20 81       	ld	r18, Z

0000079c <.Loc.21>:
     79c:	88 e0       	ldi	r24, 0x08	; 8
     79e:	91 e0       	ldi	r25, 0x01	; 1

000007a0 <.Loc.22>:
     7a0:	2f 73       	andi	r18, 0x3F	; 63
     7a2:	fc 01       	movw	r30, r24
     7a4:	20 83       	st	Z, r18

000007a6 <.L8>:
}
     7a6:	00 00       	nop
     7a8:	0f 90       	pop	r0
     7aa:	df 91       	pop	r29
     7ac:	cf 91       	pop	r28
     7ae:	08 95       	ret

000007b0 <init_timer5>:

static void init_timer5(void)                            // timer 5 plus interrupt enable
{
     7b0:	cf 93       	push	r28
     7b2:	df 93       	push	r29
     7b4:	cd b7       	in	r28, 0x3d	; 61
     7b6:	de b7       	in	r29, 0x3e	; 62

000007b8 <.Loc.25>:
	TCCR5A = 0;
     7b8:	80 e2       	ldi	r24, 0x20	; 32
     7ba:	91 e0       	ldi	r25, 0x01	; 1

000007bc <.Loc.26>:
     7bc:	fc 01       	movw	r30, r24
     7be:	10 82       	st	Z, r1

000007c0 <.Loc.27>:
	TCCR5B = (1<<CS52) | (0<<CS51) | (0<<CS50);         // set prescale van 256
     7c0:	81 e2       	ldi	r24, 0x21	; 33
     7c2:	91 e0       	ldi	r25, 0x01	; 1

000007c4 <.Loc.28>:
     7c4:	24 e0       	ldi	r18, 0x04	; 4
     7c6:	fc 01       	movw	r30, r24
     7c8:	20 83       	st	Z, r18

000007ca <.Loc.29>:
	TCNT5 = TCNT_INIT5;
     7ca:	84 e2       	ldi	r24, 0x24	; 36
     7cc:	91 e0       	ldi	r25, 0x01	; 1

000007ce <.Loc.30>:
     7ce:	20 e1       	ldi	r18, 0x10	; 16
     7d0:	37 e2       	ldi	r19, 0x27	; 39
     7d2:	fc 01       	movw	r30, r24
     7d4:	31 83       	std	Z+1, r19	; 0x01
     7d6:	20 83       	st	Z, r18

000007d8 <.Loc.31>:
	OCR5A = OCA_INIT5;
     7d8:	88 e2       	ldi	r24, 0x28	; 40
     7da:	91 e0       	ldi	r25, 0x01	; 1

000007dc <.Loc.32>:
     7dc:	28 eb       	ldi	r18, 0xB8	; 184
     7de:	38 e8       	ldi	r19, 0x88	; 136
     7e0:	fc 01       	movw	r30, r24
     7e2:	31 83       	std	Z+1, r19	; 0x01
     7e4:	20 83       	st	Z, r18

000007e6 <.Loc.33>:
	OCR5B = OCB_INIT5;
     7e6:	8a e2       	ldi	r24, 0x2A	; 42
     7e8:	91 e0       	ldi	r25, 0x01	; 1

000007ea <.Loc.34>:
     7ea:	20 e5       	ldi	r18, 0x50	; 80
     7ec:	33 ec       	ldi	r19, 0xC3	; 195
     7ee:	fc 01       	movw	r30, r24
     7f0:	31 83       	std	Z+1, r19	; 0x01
     7f2:	20 83       	st	Z, r18

000007f4 <.Loc.35>:
	TIMSK5 = (1<<OCIE5A) | (1<<OCIE5B) | (1<<TOIE5);	// eneble interrupt overflow en compare A en B
     7f4:	83 e7       	ldi	r24, 0x73	; 115
     7f6:	90 e0       	ldi	r25, 0x00	; 0

000007f8 <.Loc.36>:
     7f8:	27 e0       	ldi	r18, 0x07	; 7
     7fa:	fc 01       	movw	r30, r24
     7fc:	20 83       	st	Z, r18

000007fe <.Loc.37>:
}
     7fe:	00 00       	nop
     800:	df 91       	pop	r29
     802:	cf 91       	pop	r28
     804:	08 95       	ret

00000806 <init>:

void init(void)
{
     806:	cf 93       	push	r28
     808:	df 93       	push	r29
     80a:	cd b7       	in	r28, 0x3d	; 61
     80c:	de b7       	in	r29, 0x3e	; 62

0000080e <.Loc.39>:
    init_timer5();                                      // init timer 5
     80e:	0e 94 d8 03 	call	0x7b0	; 0x7b0 <init_timer5>

00000812 <.Loc.40>:
	init_h_bridge();									// init h brug
     812:	0e 94 44 02 	call	0x488	; 0x488 <init_h_bridge>

00000816 <.Loc.41>:
	init_servo();										// init servo
     816:	0e 94 90 13 	call	0x2720	; 0x2720 <init_servo>

0000081a <.Loc.42>:
	sei();											    // eneble global interrupts
     81a:	78 94       	sei

0000081c <.Loc.43>:
}
     81c:	00 00       	nop
     81e:	df 91       	pop	r29
     820:	cf 91       	pop	r28
     822:	08 95       	ret

00000824 <main>:

int main(void)
{
     824:	0f 93       	push	r16
     826:	1f 93       	push	r17
     828:	cf 93       	push	r28
     82a:	df 93       	push	r29
     82c:	cd b7       	in	r28, 0x3d	; 61
     82e:	de b7       	in	r29, 0x3e	; 62
     830:	cc 5b       	subi	r28, 0xBC	; 188
     832:	d1 40       	sbci	r29, 0x01	; 1
     834:	0f b6       	in	r0, 0x3f	; 63
     836:	f8 94       	cli
     838:	de bf       	out	0x3e, r29	; 62
     83a:	0f be       	out	0x3f, r0	; 63
     83c:	cd bf       	out	0x3d, r28	; 61

0000083e <.Loc.45>:
	init();				// run init function
     83e:	0e 94 03 04 	call	0x806	; 0x806 <init>

00000842 <.Loc.46>:

	// output
	DDRK |= (1<<PK7) | (1<<PK6);                        // knipperlichten pin A15 en A14
     842:	87 e0       	ldi	r24, 0x07	; 7
     844:	91 e0       	ldi	r25, 0x01	; 1
     846:	dc 01       	movw	r26, r24
     848:	2c 91       	ld	r18, X
     84a:	87 e0       	ldi	r24, 0x07	; 7
     84c:	91 e0       	ldi	r25, 0x01	; 1

0000084e <.Loc.47>:
     84e:	20 6c       	ori	r18, 0xC0	; 192
     850:	fc 01       	movw	r30, r24
     852:	20 83       	st	Z, r18

00000854 <.Loc.48>:
	PORTK &= ~(1<<PK7) & ~(1<<PK6);                     // knipperlichten pin A15 en A14 init uit
     854:	88 e0       	ldi	r24, 0x08	; 8
     856:	91 e0       	ldi	r25, 0x01	; 1
     858:	dc 01       	movw	r26, r24
     85a:	2c 91       	ld	r18, X

0000085c <.Loc.49>:
     85c:	88 e0       	ldi	r24, 0x08	; 8
     85e:	91 e0       	ldi	r25, 0x01	; 1

00000860 <.Loc.50>:
     860:	2f 73       	andi	r18, 0x3F	; 63
     862:	fc 01       	movw	r30, r24
     864:	20 83       	st	Z, r18

00000866 <.Loc.51>:
	DDRD |= (1<<PD0);                                   // buzzer
     866:	8a e2       	ldi	r24, 0x2A	; 42
     868:	90 e0       	ldi	r25, 0x00	; 0
     86a:	dc 01       	movw	r26, r24
     86c:	2c 91       	ld	r18, X
     86e:	8a e2       	ldi	r24, 0x2A	; 42
     870:	90 e0       	ldi	r25, 0x00	; 0

00000872 <.Loc.52>:
     872:	21 60       	ori	r18, 0x01	; 1
     874:	fc 01       	movw	r30, r24
     876:	20 83       	st	Z, r18

00000878 <.Loc.53>:
	PORTD &= ~(1<<PD0);                                 // buzzer init uit
     878:	8b e2       	ldi	r24, 0x2B	; 43
     87a:	90 e0       	ldi	r25, 0x00	; 0
     87c:	dc 01       	movw	r26, r24
     87e:	2c 91       	ld	r18, X

00000880 <.Loc.54>:
     880:	8b e2       	ldi	r24, 0x2B	; 43
     882:	90 e0       	ldi	r25, 0x00	; 0

00000884 <.Loc.55>:
     884:	2e 7f       	andi	r18, 0xFE	; 254
     886:	fc 01       	movw	r30, r24
     888:	20 83       	st	Z, r18

0000088a <.Loc.56>:
	DDRF |= (1<<PF7);                                   // ledje in de noodknop
     88a:	80 e3       	ldi	r24, 0x30	; 48
     88c:	90 e0       	ldi	r25, 0x00	; 0
     88e:	dc 01       	movw	r26, r24
     890:	2c 91       	ld	r18, X
     892:	80 e3       	ldi	r24, 0x30	; 48
     894:	90 e0       	ldi	r25, 0x00	; 0

00000896 <.Loc.57>:
     896:	20 68       	ori	r18, 0x80	; 128
     898:	fc 01       	movw	r30, r24
     89a:	20 83       	st	Z, r18

0000089c <.Loc.58>:
	PORTF |= (1<<PF7);                                  // ledje in de noodknop init uit
     89c:	81 e3       	ldi	r24, 0x31	; 49
     89e:	90 e0       	ldi	r25, 0x00	; 0
     8a0:	dc 01       	movw	r26, r24
     8a2:	2c 91       	ld	r18, X
     8a4:	81 e3       	ldi	r24, 0x31	; 49
     8a6:	90 e0       	ldi	r25, 0x00	; 0

000008a8 <.Loc.59>:
     8a8:	20 68       	ori	r18, 0x80	; 128
     8aa:	fc 01       	movw	r30, r24
     8ac:	20 83       	st	Z, r18

000008ae <.Loc.60>:

	//bedingingpaneel
	PORTF |= (1<<opbouw_knop) | (1<<afbouw_knop) | (1<<volgende_steiger) | (1<<nood_knop);   		// eneble alle knoppen voor input
     8ae:	81 e3       	ldi	r24, 0x31	; 49
     8b0:	90 e0       	ldi	r25, 0x00	; 0
     8b2:	dc 01       	movw	r26, r24
     8b4:	2c 91       	ld	r18, X
     8b6:	81 e3       	ldi	r24, 0x31	; 49
     8b8:	90 e0       	ldi	r25, 0x00	; 0

000008ba <.Loc.61>:
     8ba:	27 61       	ori	r18, 0x17	; 23
     8bc:	fc 01       	movw	r30, r24
     8be:	20 83       	st	Z, r18

000008c0 <.Loc.62>:
	DDRF |= (1<<opbouw_knop) | (1<<afbouw_knop) | (1<<volgende_steiger) | (1<<nood_knop);		// eneble interne pullup resistor
     8c0:	80 e3       	ldi	r24, 0x30	; 48
     8c2:	90 e0       	ldi	r25, 0x00	; 0
     8c4:	dc 01       	movw	r26, r24
     8c6:	2c 91       	ld	r18, X
     8c8:	80 e3       	ldi	r24, 0x30	; 48
     8ca:	90 e0       	ldi	r25, 0x00	; 0

000008cc <.Loc.63>:
     8cc:	27 61       	ori	r18, 0x17	; 23
     8ce:	fc 01       	movw	r30, r24
     8d0:	20 83       	st	Z, r18

000008d2 <.Loc.64>:

	//schakelaars
	PORTA &= (1<<home_switch);
     8d2:	82 e2       	ldi	r24, 0x22	; 34
     8d4:	90 e0       	ldi	r25, 0x00	; 0
     8d6:	dc 01       	movw	r26, r24
     8d8:	2c 91       	ld	r18, X

000008da <.Loc.65>:
     8da:	82 e2       	ldi	r24, 0x22	; 34
     8dc:	90 e0       	ldi	r25, 0x00	; 0

000008de <.Loc.66>:
     8de:	21 70       	andi	r18, 0x01	; 1
     8e0:	fc 01       	movw	r30, r24
     8e2:	20 83       	st	Z, r18

000008e4 <.Loc.67>:
	PORTA &= (1<<top_switch);
     8e4:	82 e2       	ldi	r24, 0x22	; 34
     8e6:	90 e0       	ldi	r25, 0x00	; 0
     8e8:	dc 01       	movw	r26, r24
     8ea:	2c 91       	ld	r18, X

000008ec <.Loc.68>:
     8ec:	82 e2       	ldi	r24, 0x22	; 34
     8ee:	90 e0       	ldi	r25, 0x00	; 0

000008f0 <.Loc.69>:
     8f0:	22 70       	andi	r18, 0x02	; 2
     8f2:	fc 01       	movw	r30, r24
     8f4:	20 83       	st	Z, r18

000008f6 <.Loc.70>:
	PORTA &= (1<<middel_switch);
     8f6:	82 e2       	ldi	r24, 0x22	; 34
     8f8:	90 e0       	ldi	r25, 0x00	; 0
     8fa:	dc 01       	movw	r26, r24
     8fc:	2c 91       	ld	r18, X

000008fe <.Loc.71>:
     8fe:	82 e2       	ldi	r24, 0x22	; 34
     900:	90 e0       	ldi	r25, 0x00	; 0

00000902 <.Loc.72>:
     902:	20 72       	andi	r18, 0x20	; 32
     904:	fc 01       	movw	r30, r24
     906:	20 83       	st	Z, r18

00000908 <.Loc.73>:
	int status = 0;						// status voor de switch case statement
     908:	1a 82       	std	Y+2, r1	; 0x02
     90a:	19 82       	std	Y+1, r1	; 0x01

0000090c <.Loc.74>:

    knipperLichten(0);
     90c:	80 e0       	ldi	r24, 0x00	; 0
     90e:	0e 94 b4 03 	call	0x768	; 0x768 <knipperLichten>

00000912 <.Loc.75>:
    h_bridge_set_percentage(0);
     912:	80 e0       	ldi	r24, 0x00	; 0
     914:	0e 94 c3 02 	call	0x586	; 0x586 <h_bridge_set_percentage>

00000918 <.Loc.76>:
    h_bridge_set_percentage2(0);
     918:	80 e0       	ldi	r24, 0x00	; 0
     91a:	0e 94 0d 03 	call	0x61a	; 0x61a <h_bridge_set_percentage2>

0000091e <.L147>:

	while (1)
	{
        if (buzz >= 8)                              // buzzer gaat 8 keer aan en uit door timer 5
     91e:	80 91 00 02 	lds	r24, 0x0200	; 0x800200 <buzz>
     922:	90 91 01 02 	lds	r25, 0x0201	; 0x800201 <buzz+0x1>

00000926 <.Loc.78>:
     926:	87 30       	cpi	r24, 0x07	; 7
     928:	91 05       	cpc	r25, r1
     92a:	71 f0       	breq	.+28     	; 0x948 <.L12>
     92c:	6c f0       	brlt	.+26     	; 0x948 <.L12>

0000092e <.Loc.79>:
        {
            buzzer(0);                              // na 8 keer stopt de buzzer
     92e:	80 e0       	ldi	r24, 0x00	; 0
     930:	0e 94 88 03 	call	0x710	; 0x710 <buzzer>

00000934 <.Loc.80>:
            if (TIMSK5 == 0x00)                     // als timer 5 uit staat
     934:	83 e7       	ldi	r24, 0x73	; 115
     936:	90 e0       	ldi	r25, 0x00	; 0
     938:	dc 01       	movw	r26, r24
     93a:	8c 91       	ld	r24, X

0000093c <.Loc.81>:
     93c:	88 23       	and	r24, r24
     93e:	21 f4       	brne	.+8      	; 0x948 <.L12>

00000940 <.Loc.82>:
            {
                buzz = 0;                           // wordt de buzzer gereset en kan opnieuw aangezet worden
     940:	10 92 01 02 	sts	0x0201, r1	; 0x800201 <buzz+0x1>
     944:	10 92 00 02 	sts	0x0200, r1	; 0x800200 <buzz>

00000948 <.L12>:
            }
        }
        if (knipper >= 15)
     948:	80 91 02 02 	lds	r24, 0x0202	; 0x800202 <knipper>
     94c:	90 91 03 02 	lds	r25, 0x0203	; 0x800203 <knipper+0x1>

00000950 <.Loc.84>:
     950:	8e 30       	cpi	r24, 0x0E	; 14
     952:	91 05       	cpc	r25, r1
     954:	41 f0       	breq	.+16     	; 0x966 <.L13>
     956:	3c f0       	brlt	.+14     	; 0x966 <.L13>

00000958 <.Loc.85>:
        {
            knipperLichten(0);
     958:	80 e0       	ldi	r24, 0x00	; 0
     95a:	0e 94 b4 03 	call	0x768	; 0x768 <knipperLichten>

0000095e <.Loc.86>:
            knipper = 0;
     95e:	10 92 03 02 	sts	0x0203, r1	; 0x800203 <knipper+0x1>
     962:	10 92 02 02 	sts	0x0202, r1	; 0x800202 <knipper>

00000966 <.L13>:
        }
        if ((PINF & (1<<PF4)) == 0)                 // nood stop indrukken
     966:	8f e2       	ldi	r24, 0x2F	; 47
     968:	90 e0       	ldi	r25, 0x00	; 0
     96a:	fc 01       	movw	r30, r24
     96c:	80 81       	ld	r24, Z

0000096e <.Loc.88>:
     96e:	88 2f       	mov	r24, r24
     970:	90 e0       	ldi	r25, 0x00	; 0
     972:	80 71       	andi	r24, 0x10	; 16
     974:	99 27       	eor	r25, r25

00000976 <.Loc.89>:
     976:	00 97       	sbiw	r24, 0x00	; 0
     978:	09 f0       	breq	.+2      	; 0x97c <L0^A+0x2>

0000097a <L0^A>:
     97a:	9b c1       	rjmp	.+822    	; 0xcb2 <.L14>
     97c:	80 e0       	ldi	r24, 0x00	; 0
     97e:	90 e0       	ldi	r25, 0x00	; 0
     980:	a0 ea       	ldi	r26, 0xA0	; 160
     982:	b1 e4       	ldi	r27, 0x41	; 65
     984:	8b 83       	std	Y+3, r24	; 0x03
     986:	9c 83       	std	Y+4, r25	; 0x04
     988:	ad 83       	std	Y+5, r26	; 0x05
     98a:	be 83       	std	Y+6, r27	; 0x06

0000098c <.LBB84>:

	__builtin_avr_delay_cycles(__ticks_dc);

#else
	uint16_t __ticks;
	__tmp = ((F_CPU) / 4e3) * __ms;
     98c:	20 e0       	ldi	r18, 0x00	; 0
     98e:	30 e0       	ldi	r19, 0x00	; 0
     990:	4a e7       	ldi	r20, 0x7A	; 122
     992:	55 e4       	ldi	r21, 0x45	; 69
     994:	6b 81       	ldd	r22, Y+3	; 0x03
     996:	7c 81       	ldd	r23, Y+4	; 0x04
     998:	8d 81       	ldd	r24, Y+5	; 0x05
     99a:	9e 81       	ldd	r25, Y+6	; 0x06
     99c:	0e 94 91 16 	call	0x2d22	; 0x2d22 <__mulsf3>
     9a0:	c3 51       	subi	r28, 0x13	; 19
     9a2:	df 4f       	sbci	r29, 0xFF	; 255
     9a4:	68 83       	st	Y, r22
     9a6:	79 83       	std	Y+1, r23	; 0x01
     9a8:	8a 83       	std	Y+2, r24	; 0x02
     9aa:	9b 83       	std	Y+3, r25	; 0x03
     9ac:	cd 5e       	subi	r28, 0xED	; 237
     9ae:	d0 40       	sbci	r29, 0x00	; 0
     9b0:	c3 51       	subi	r28, 0x13	; 19
     9b2:	df 4f       	sbci	r29, 0xFF	; 255
     9b4:	88 81       	ld	r24, Y
     9b6:	99 81       	ldd	r25, Y+1	; 0x01
     9b8:	aa 81       	ldd	r26, Y+2	; 0x02
     9ba:	bb 81       	ldd	r27, Y+3	; 0x03
     9bc:	cd 5e       	subi	r28, 0xED	; 237
     9be:	d0 40       	sbci	r29, 0x00	; 0
     9c0:	8f 83       	std	Y+7, r24	; 0x07
     9c2:	98 87       	std	Y+8, r25	; 0x08
     9c4:	a9 87       	std	Y+9, r26	; 0x09
     9c6:	ba 87       	std	Y+10, r27	; 0x0a

000009c8 <.Loc.91>:
	if (__tmp < 1.0)
     9c8:	20 e0       	ldi	r18, 0x00	; 0
     9ca:	30 e0       	ldi	r19, 0x00	; 0
     9cc:	40 e8       	ldi	r20, 0x80	; 128
     9ce:	5f e3       	ldi	r21, 0x3F	; 63
     9d0:	6f 81       	ldd	r22, Y+7	; 0x07
     9d2:	78 85       	ldd	r23, Y+8	; 0x08
     9d4:	89 85       	ldd	r24, Y+9	; 0x09
     9d6:	9a 85       	ldd	r25, Y+10	; 0x0a
     9d8:	0e 94 a6 15 	call	0x2b4c	; 0x2b4c <__cmpsf2>
     9dc:	88 23       	and	r24, r24
     9de:	2c f4       	brge	.+10     	; 0x9ea <.L174>

000009e0 <.Loc.92>:
		__ticks = 1;
     9e0:	81 e0       	ldi	r24, 0x01	; 1
     9e2:	90 e0       	ldi	r25, 0x00	; 0
     9e4:	9c 87       	std	Y+12, r25	; 0x0c
     9e6:	8b 87       	std	Y+11, r24	; 0x0b
     9e8:	76 c0       	rjmp	.+236    	; 0xad6 <.L17>

000009ea <.L174>:
	else if (__tmp > 65535)
     9ea:	20 e0       	ldi	r18, 0x00	; 0
     9ec:	3f ef       	ldi	r19, 0xFF	; 255
     9ee:	4f e7       	ldi	r20, 0x7F	; 127
     9f0:	57 e4       	ldi	r21, 0x47	; 71
     9f2:	6f 81       	ldd	r22, Y+7	; 0x07
     9f4:	78 85       	ldd	r23, Y+8	; 0x08
     9f6:	89 85       	ldd	r24, Y+9	; 0x09
     9f8:	9a 85       	ldd	r25, Y+10	; 0x0a
     9fa:	0e 94 8c 16 	call	0x2d18	; 0x2d18 <__gesf2>
     9fe:	88 23       	and	r24, r24
     a00:	09 f0       	breq	.+2      	; 0xa04 <L0^A>

00000a02 <L0^A>:
     a02:	0c f4       	brge	.+2      	; 0xa06 <.Loc.94>

00000a04 <L0^A>:
     a04:	52 c0       	rjmp	.+164    	; 0xaaa <.L175>

00000a06 <.Loc.94>:
	{
		//	__ticks = requested delay in 1/10 ms
		__ticks = (uint16_t) (__ms * 10.0);
     a06:	20 e0       	ldi	r18, 0x00	; 0
     a08:	30 e0       	ldi	r19, 0x00	; 0
     a0a:	40 e2       	ldi	r20, 0x20	; 32
     a0c:	51 e4       	ldi	r21, 0x41	; 65
     a0e:	6b 81       	ldd	r22, Y+3	; 0x03
     a10:	7c 81       	ldd	r23, Y+4	; 0x04
     a12:	8d 81       	ldd	r24, Y+5	; 0x05
     a14:	9e 81       	ldd	r25, Y+6	; 0x06
     a16:	0e 94 91 16 	call	0x2d22	; 0x2d22 <__mulsf3>
     a1a:	cf 50       	subi	r28, 0x0F	; 15
     a1c:	df 4f       	sbci	r29, 0xFF	; 255
     a1e:	68 83       	st	Y, r22
     a20:	79 83       	std	Y+1, r23	; 0x01
     a22:	8a 83       	std	Y+2, r24	; 0x02
     a24:	9b 83       	std	Y+3, r25	; 0x03
     a26:	c1 5f       	subi	r28, 0xF1	; 241
     a28:	d0 40       	sbci	r29, 0x00	; 0
     a2a:	cf 50       	subi	r28, 0x0F	; 15
     a2c:	df 4f       	sbci	r29, 0xFF	; 255
     a2e:	88 81       	ld	r24, Y
     a30:	99 81       	ldd	r25, Y+1	; 0x01
     a32:	aa 81       	ldd	r26, Y+2	; 0x02
     a34:	bb 81       	ldd	r27, Y+3	; 0x03
     a36:	c1 5f       	subi	r28, 0xF1	; 241
     a38:	d0 40       	sbci	r29, 0x00	; 0
     a3a:	c7 54       	subi	r28, 0x47	; 71
     a3c:	df 4f       	sbci	r29, 0xFF	; 255
     a3e:	88 83       	st	Y, r24
     a40:	99 83       	std	Y+1, r25	; 0x01
     a42:	aa 83       	std	Y+2, r26	; 0x02
     a44:	bb 83       	std	Y+3, r27	; 0x03
     a46:	c9 5b       	subi	r28, 0xB9	; 185
     a48:	d0 40       	sbci	r29, 0x00	; 0

00000a4a <.Loc.95>:
     a4a:	c7 54       	subi	r28, 0x47	; 71
     a4c:	df 4f       	sbci	r29, 0xFF	; 255
     a4e:	68 81       	ld	r22, Y
     a50:	79 81       	ldd	r23, Y+1	; 0x01
     a52:	8a 81       	ldd	r24, Y+2	; 0x02
     a54:	9b 81       	ldd	r25, Y+3	; 0x03
     a56:	c9 5b       	subi	r28, 0xB9	; 185
     a58:	d0 40       	sbci	r29, 0x00	; 0
     a5a:	0e 94 ab 15 	call	0x2b56	; 0x2b56 <__fixunssfsi>
     a5e:	cb 50       	subi	r28, 0x0B	; 11
     a60:	df 4f       	sbci	r29, 0xFF	; 255
     a62:	68 83       	st	Y, r22
     a64:	79 83       	std	Y+1, r23	; 0x01
     a66:	8a 83       	std	Y+2, r24	; 0x02
     a68:	9b 83       	std	Y+3, r25	; 0x03
     a6a:	c5 5f       	subi	r28, 0xF5	; 245
     a6c:	d0 40       	sbci	r29, 0x00	; 0
     a6e:	cb 50       	subi	r28, 0x0B	; 11
     a70:	df 4f       	sbci	r29, 0xFF	; 255
     a72:	a8 81       	ld	r26, Y
     a74:	b9 81       	ldd	r27, Y+1	; 0x01
     a76:	c5 5f       	subi	r28, 0xF5	; 245
     a78:	d0 40       	sbci	r29, 0x00	; 0
     a7a:	bc 87       	std	Y+12, r27	; 0x0c
     a7c:	ab 87       	std	Y+11, r26	; 0x0b

00000a7e <.Loc.96>:
		while(__ticks)
     a7e:	10 c0       	rjmp	.+32     	; 0xaa0 <.L20>

00000a80 <.L21>:
     a80:	80 e9       	ldi	r24, 0x90	; 144
     a82:	91 e0       	ldi	r25, 0x01	; 1
     a84:	9e 87       	std	Y+14, r25	; 0x0e
     a86:	8d 87       	std	Y+13, r24	; 0x0d

00000a88 <.LBB86>:
		"sbc %B0,__zero_reg__"    "\n\t"
		"brne 1b"
		: "+d" (__count)
	);
#else
	__asm__ volatile (
     a88:	8d 85       	ldd	r24, Y+13	; 0x0d
     a8a:	9e 85       	ldd	r25, Y+14	; 0x0e

00000a8c <.L1^B1>:
     a8c:	01 97       	sbiw	r24, 0x01	; 1
     a8e:	f1 f7       	brne	.-4      	; 0xa8c <.L1^B1>
     a90:	9e 87       	std	Y+14, r25	; 0x0e
     a92:	8d 87       	std	Y+13, r24	; 0x0d

00000a94 <.Loc.98>:
	...

00000a96 <.LBE86>:
		{
			// wait 1/10 ms
			_delay_loop_2(((F_CPU) / 4e3) / 10);
			__ticks --;
     a96:	8b 85       	ldd	r24, Y+11	; 0x0b
     a98:	9c 85       	ldd	r25, Y+12	; 0x0c
     a9a:	01 97       	sbiw	r24, 0x01	; 1
     a9c:	9c 87       	std	Y+12, r25	; 0x0c
     a9e:	8b 87       	std	Y+11, r24	; 0x0b

00000aa0 <.L20>:
		while(__ticks)
     aa0:	8b 85       	ldd	r24, Y+11	; 0x0b
     aa2:	9c 85       	ldd	r25, Y+12	; 0x0c
     aa4:	00 97       	sbiw	r24, 0x00	; 0
     aa6:	61 f7       	brne	.-40     	; 0xa80 <.L21>

00000aa8 <.Loc.101>:
		}
		return;
     aa8:	21 c0       	rjmp	.+66     	; 0xaec <.L22>

00000aaa <.L175>:
	}
	else
		__ticks = (uint16_t)__tmp;
     aaa:	6f 81       	ldd	r22, Y+7	; 0x07
     aac:	78 85       	ldd	r23, Y+8	; 0x08
     aae:	89 85       	ldd	r24, Y+9	; 0x09
     ab0:	9a 85       	ldd	r25, Y+10	; 0x0a
     ab2:	0e 94 ab 15 	call	0x2b56	; 0x2b56 <__fixunssfsi>
     ab6:	c7 50       	subi	r28, 0x07	; 7
     ab8:	df 4f       	sbci	r29, 0xFF	; 255
     aba:	68 83       	st	Y, r22
     abc:	79 83       	std	Y+1, r23	; 0x01
     abe:	8a 83       	std	Y+2, r24	; 0x02
     ac0:	9b 83       	std	Y+3, r25	; 0x03
     ac2:	c9 5f       	subi	r28, 0xF9	; 249
     ac4:	d0 40       	sbci	r29, 0x00	; 0
     ac6:	c7 50       	subi	r28, 0x07	; 7
     ac8:	df 4f       	sbci	r29, 0xFF	; 255
     aca:	e8 81       	ld	r30, Y
     acc:	f9 81       	ldd	r31, Y+1	; 0x01
     ace:	c9 5f       	subi	r28, 0xF9	; 249
     ad0:	d0 40       	sbci	r29, 0x00	; 0
     ad2:	fc 87       	std	Y+12, r31	; 0x0c
     ad4:	eb 87       	std	Y+11, r30	; 0x0b

00000ad6 <.L17>:
     ad6:	8b 85       	ldd	r24, Y+11	; 0x0b
     ad8:	9c 85       	ldd	r25, Y+12	; 0x0c
     ada:	98 8b       	std	Y+16, r25	; 0x10
     adc:	8f 87       	std	Y+15, r24	; 0x0f

00000ade <.LBB88>:
     ade:	8f 85       	ldd	r24, Y+15	; 0x0f
     ae0:	98 89       	ldd	r25, Y+16	; 0x10

00000ae2 <.L1^B2>:
     ae2:	01 97       	sbiw	r24, 0x01	; 1
     ae4:	f1 f7       	brne	.-4      	; 0xae2 <.L1^B2>
     ae6:	98 8b       	std	Y+16, r25	; 0x10
     ae8:	8f 87       	std	Y+15, r24	; 0x0f

00000aea <.Loc.104>:
	...

00000aec <.L22>:
        {
            DEBOUNCE;
            h_bridge_set_percentage(0);
     aec:	80 e0       	ldi	r24, 0x00	; 0
     aee:	0e 94 c3 02 	call	0x586	; 0x586 <h_bridge_set_percentage>

00000af2 <.Loc.106>:
            h_bridge_set_percentage2(0);
     af2:	80 e0       	ldi	r24, 0x00	; 0
     af4:	0e 94 0d 03 	call	0x61a	; 0x61a <h_bridge_set_percentage2>

00000af8 <.Loc.107>:
            buzzer(0);
     af8:	80 e0       	ldi	r24, 0x00	; 0
     afa:	0e 94 88 03 	call	0x710	; 0x710 <buzzer>

00000afe <.Loc.108>:
            knipperLichten(0);
     afe:	80 e0       	ldi	r24, 0x00	; 0
     b00:	0e 94 b4 03 	call	0x768	; 0x768 <knipperLichten>

00000b04 <.Loc.109>:
            PORTF &= ~(1<<PF7);                     // als de noodstop is ingedrukt brandt het ledje
     b04:	81 e3       	ldi	r24, 0x31	; 49
     b06:	90 e0       	ldi	r25, 0x00	; 0
     b08:	dc 01       	movw	r26, r24
     b0a:	2c 91       	ld	r18, X

00000b0c <.Loc.110>:
     b0c:	81 e3       	ldi	r24, 0x31	; 49
     b0e:	90 e0       	ldi	r25, 0x00	; 0

00000b10 <.Loc.111>:
     b10:	2f 77       	andi	r18, 0x7F	; 127
     b12:	fc 01       	movw	r30, r24
     b14:	20 83       	st	Z, r18

00000b16 <.Loc.112>:
            if ((PINF & (1<<PF4)) != 0)
     b16:	8f e2       	ldi	r24, 0x2F	; 47
     b18:	90 e0       	ldi	r25, 0x00	; 0
     b1a:	dc 01       	movw	r26, r24
     b1c:	8c 91       	ld	r24, X

00000b1e <.Loc.113>:
     b1e:	88 2f       	mov	r24, r24
     b20:	90 e0       	ldi	r25, 0x00	; 0
     b22:	80 71       	andi	r24, 0x10	; 16
     b24:	99 27       	eor	r25, r25

00000b26 <.Loc.114>:
     b26:	00 97       	sbiw	r24, 0x00	; 0
     b28:	09 f4       	brne	.+2      	; 0xb2c <L0^A+0x2>

00000b2a <L0^A>:
     b2a:	c3 c0       	rjmp	.+390    	; 0xcb2 <.L14>
     b2c:	80 e0       	ldi	r24, 0x00	; 0
     b2e:	90 e0       	ldi	r25, 0x00	; 0
     b30:	a0 ea       	ldi	r26, 0xA0	; 160
     b32:	b1 e4       	ldi	r27, 0x41	; 65
     b34:	89 8b       	std	Y+17, r24	; 0x11
     b36:	9a 8b       	std	Y+18, r25	; 0x12
     b38:	ab 8b       	std	Y+19, r26	; 0x13
     b3a:	bc 8b       	std	Y+20, r27	; 0x14

00000b3c <.LBB90>:
	__tmp = ((F_CPU) / 4e3) * __ms;
     b3c:	20 e0       	ldi	r18, 0x00	; 0
     b3e:	30 e0       	ldi	r19, 0x00	; 0
     b40:	4a e7       	ldi	r20, 0x7A	; 122
     b42:	55 e4       	ldi	r21, 0x45	; 69
     b44:	69 89       	ldd	r22, Y+17	; 0x11
     b46:	7a 89       	ldd	r23, Y+18	; 0x12
     b48:	8b 89       	ldd	r24, Y+19	; 0x13
     b4a:	9c 89       	ldd	r25, Y+20	; 0x14
     b4c:	0e 94 91 16 	call	0x2d22	; 0x2d22 <__mulsf3>
     b50:	c3 50       	subi	r28, 0x03	; 3
     b52:	df 4f       	sbci	r29, 0xFF	; 255
     b54:	68 83       	st	Y, r22
     b56:	79 83       	std	Y+1, r23	; 0x01
     b58:	8a 83       	std	Y+2, r24	; 0x02
     b5a:	9b 83       	std	Y+3, r25	; 0x03
     b5c:	cd 5f       	subi	r28, 0xFD	; 253
     b5e:	d0 40       	sbci	r29, 0x00	; 0
     b60:	c3 50       	subi	r28, 0x03	; 3
     b62:	df 4f       	sbci	r29, 0xFF	; 255
     b64:	88 81       	ld	r24, Y
     b66:	99 81       	ldd	r25, Y+1	; 0x01
     b68:	aa 81       	ldd	r26, Y+2	; 0x02
     b6a:	bb 81       	ldd	r27, Y+3	; 0x03
     b6c:	cd 5f       	subi	r28, 0xFD	; 253
     b6e:	d0 40       	sbci	r29, 0x00	; 0
     b70:	8d 8b       	std	Y+21, r24	; 0x15
     b72:	9e 8b       	std	Y+22, r25	; 0x16
     b74:	af 8b       	std	Y+23, r26	; 0x17
     b76:	b8 8f       	std	Y+24, r27	; 0x18

00000b78 <.Loc.116>:
	if (__tmp < 1.0)
     b78:	20 e0       	ldi	r18, 0x00	; 0
     b7a:	30 e0       	ldi	r19, 0x00	; 0
     b7c:	40 e8       	ldi	r20, 0x80	; 128
     b7e:	5f e3       	ldi	r21, 0x3F	; 63
     b80:	6d 89       	ldd	r22, Y+21	; 0x15
     b82:	7e 89       	ldd	r23, Y+22	; 0x16
     b84:	8f 89       	ldd	r24, Y+23	; 0x17
     b86:	98 8d       	ldd	r25, Y+24	; 0x18
     b88:	0e 94 a6 15 	call	0x2b4c	; 0x2b4c <__cmpsf2>
     b8c:	88 23       	and	r24, r24
     b8e:	2c f4       	brge	.+10     	; 0xb9a <.L176>

00000b90 <.Loc.117>:
		__ticks = 1;
     b90:	81 e0       	ldi	r24, 0x01	; 1
     b92:	90 e0       	ldi	r25, 0x00	; 0
     b94:	9a 8f       	std	Y+26, r25	; 0x1a
     b96:	89 8f       	std	Y+25, r24	; 0x19
     b98:	76 c0       	rjmp	.+236    	; 0xc86 <.L25>

00000b9a <.L176>:
	else if (__tmp > 65535)
     b9a:	20 e0       	ldi	r18, 0x00	; 0
     b9c:	3f ef       	ldi	r19, 0xFF	; 255
     b9e:	4f e7       	ldi	r20, 0x7F	; 127
     ba0:	57 e4       	ldi	r21, 0x47	; 71
     ba2:	6d 89       	ldd	r22, Y+21	; 0x15
     ba4:	7e 89       	ldd	r23, Y+22	; 0x16
     ba6:	8f 89       	ldd	r24, Y+23	; 0x17
     ba8:	98 8d       	ldd	r25, Y+24	; 0x18
     baa:	0e 94 8c 16 	call	0x2d18	; 0x2d18 <__gesf2>
     bae:	88 23       	and	r24, r24
     bb0:	09 f0       	breq	.+2      	; 0xbb4 <L0^A>

00000bb2 <L0^A>:
     bb2:	0c f4       	brge	.+2      	; 0xbb6 <.Loc.119>

00000bb4 <L0^A>:
     bb4:	52 c0       	rjmp	.+164    	; 0xc5a <.L177>

00000bb6 <.Loc.119>:
		__ticks = (uint16_t) (__ms * 10.0);
     bb6:	20 e0       	ldi	r18, 0x00	; 0
     bb8:	30 e0       	ldi	r19, 0x00	; 0
     bba:	40 e2       	ldi	r20, 0x20	; 32
     bbc:	51 e4       	ldi	r21, 0x41	; 65
     bbe:	69 89       	ldd	r22, Y+17	; 0x11
     bc0:	7a 89       	ldd	r23, Y+18	; 0x12
     bc2:	8b 89       	ldd	r24, Y+19	; 0x13
     bc4:	9c 89       	ldd	r25, Y+20	; 0x14
     bc6:	0e 94 91 16 	call	0x2d22	; 0x2d22 <__mulsf3>
     bca:	cf 5f       	subi	r28, 0xFF	; 255
     bcc:	de 4f       	sbci	r29, 0xFE	; 254
     bce:	68 83       	st	Y, r22
     bd0:	79 83       	std	Y+1, r23	; 0x01
     bd2:	8a 83       	std	Y+2, r24	; 0x02
     bd4:	9b 83       	std	Y+3, r25	; 0x03
     bd6:	c1 50       	subi	r28, 0x01	; 1
     bd8:	d1 40       	sbci	r29, 0x01	; 1
     bda:	cf 5f       	subi	r28, 0xFF	; 255
     bdc:	de 4f       	sbci	r29, 0xFE	; 254
     bde:	88 81       	ld	r24, Y
     be0:	99 81       	ldd	r25, Y+1	; 0x01
     be2:	aa 81       	ldd	r26, Y+2	; 0x02
     be4:	bb 81       	ldd	r27, Y+3	; 0x03
     be6:	c1 50       	subi	r28, 0x01	; 1
     be8:	d1 40       	sbci	r29, 0x01	; 1
     bea:	c3 54       	subi	r28, 0x43	; 67
     bec:	df 4f       	sbci	r29, 0xFF	; 255
     bee:	88 83       	st	Y, r24
     bf0:	99 83       	std	Y+1, r25	; 0x01
     bf2:	aa 83       	std	Y+2, r26	; 0x02
     bf4:	bb 83       	std	Y+3, r27	; 0x03
     bf6:	cd 5b       	subi	r28, 0xBD	; 189
     bf8:	d0 40       	sbci	r29, 0x00	; 0

00000bfa <.Loc.120>:
     bfa:	c3 54       	subi	r28, 0x43	; 67
     bfc:	df 4f       	sbci	r29, 0xFF	; 255
     bfe:	68 81       	ld	r22, Y
     c00:	79 81       	ldd	r23, Y+1	; 0x01
     c02:	8a 81       	ldd	r24, Y+2	; 0x02
     c04:	9b 81       	ldd	r25, Y+3	; 0x03
     c06:	cd 5b       	subi	r28, 0xBD	; 189
     c08:	d0 40       	sbci	r29, 0x00	; 0
     c0a:	0e 94 ab 15 	call	0x2b56	; 0x2b56 <__fixunssfsi>
     c0e:	cb 5f       	subi	r28, 0xFB	; 251
     c10:	de 4f       	sbci	r29, 0xFE	; 254
     c12:	68 83       	st	Y, r22
     c14:	79 83       	std	Y+1, r23	; 0x01
     c16:	8a 83       	std	Y+2, r24	; 0x02
     c18:	9b 83       	std	Y+3, r25	; 0x03
     c1a:	c5 50       	subi	r28, 0x05	; 5
     c1c:	d1 40       	sbci	r29, 0x01	; 1
     c1e:	cb 5f       	subi	r28, 0xFB	; 251
     c20:	de 4f       	sbci	r29, 0xFE	; 254
     c22:	a8 81       	ld	r26, Y
     c24:	b9 81       	ldd	r27, Y+1	; 0x01
     c26:	c5 50       	subi	r28, 0x05	; 5
     c28:	d1 40       	sbci	r29, 0x01	; 1
     c2a:	ba 8f       	std	Y+26, r27	; 0x1a
     c2c:	a9 8f       	std	Y+25, r26	; 0x19

00000c2e <.Loc.121>:
		while(__ticks)
     c2e:	10 c0       	rjmp	.+32     	; 0xc50 <.L28>

00000c30 <.L29>:
     c30:	80 e9       	ldi	r24, 0x90	; 144
     c32:	91 e0       	ldi	r25, 0x01	; 1
     c34:	9c 8f       	std	Y+28, r25	; 0x1c
     c36:	8b 8f       	std	Y+27, r24	; 0x1b

00000c38 <.LBB92>:
     c38:	8b 8d       	ldd	r24, Y+27	; 0x1b
     c3a:	9c 8d       	ldd	r25, Y+28	; 0x1c

00000c3c <.L1^B3>:
     c3c:	01 97       	sbiw	r24, 0x01	; 1
     c3e:	f1 f7       	brne	.-4      	; 0xc3c <.L1^B3>
     c40:	9c 8f       	std	Y+28, r25	; 0x1c
     c42:	8b 8f       	std	Y+27, r24	; 0x1b

00000c44 <.Loc.123>:
	...

00000c46 <.LBE92>:
			__ticks --;
     c46:	89 8d       	ldd	r24, Y+25	; 0x19
     c48:	9a 8d       	ldd	r25, Y+26	; 0x1a
     c4a:	01 97       	sbiw	r24, 0x01	; 1
     c4c:	9a 8f       	std	Y+26, r25	; 0x1a
     c4e:	89 8f       	std	Y+25, r24	; 0x19

00000c50 <.L28>:
		while(__ticks)
     c50:	89 8d       	ldd	r24, Y+25	; 0x19
     c52:	9a 8d       	ldd	r25, Y+26	; 0x1a
     c54:	00 97       	sbiw	r24, 0x00	; 0
     c56:	61 f7       	brne	.-40     	; 0xc30 <.L29>

00000c58 <.Loc.126>:
		return;
     c58:	21 c0       	rjmp	.+66     	; 0xc9c <.L30>

00000c5a <.L177>:
		__ticks = (uint16_t)__tmp;
     c5a:	6d 89       	ldd	r22, Y+21	; 0x15
     c5c:	7e 89       	ldd	r23, Y+22	; 0x16
     c5e:	8f 89       	ldd	r24, Y+23	; 0x17
     c60:	98 8d       	ldd	r25, Y+24	; 0x18
     c62:	0e 94 ab 15 	call	0x2b56	; 0x2b56 <__fixunssfsi>
     c66:	c7 5f       	subi	r28, 0xF7	; 247
     c68:	de 4f       	sbci	r29, 0xFE	; 254
     c6a:	68 83       	st	Y, r22
     c6c:	79 83       	std	Y+1, r23	; 0x01
     c6e:	8a 83       	std	Y+2, r24	; 0x02
     c70:	9b 83       	std	Y+3, r25	; 0x03
     c72:	c9 50       	subi	r28, 0x09	; 9
     c74:	d1 40       	sbci	r29, 0x01	; 1
     c76:	c7 5f       	subi	r28, 0xF7	; 247
     c78:	de 4f       	sbci	r29, 0xFE	; 254
     c7a:	e8 81       	ld	r30, Y
     c7c:	f9 81       	ldd	r31, Y+1	; 0x01
     c7e:	c9 50       	subi	r28, 0x09	; 9
     c80:	d1 40       	sbci	r29, 0x01	; 1
     c82:	fa 8f       	std	Y+26, r31	; 0x1a
     c84:	e9 8f       	std	Y+25, r30	; 0x19

00000c86 <.L25>:
     c86:	89 8d       	ldd	r24, Y+25	; 0x19
     c88:	9a 8d       	ldd	r25, Y+26	; 0x1a
     c8a:	9e 8f       	std	Y+30, r25	; 0x1e
     c8c:	8d 8f       	std	Y+29, r24	; 0x1d

00000c8e <.LBB94>:
     c8e:	8d 8d       	ldd	r24, Y+29	; 0x1d
     c90:	9e 8d       	ldd	r25, Y+30	; 0x1e

00000c92 <.L1^B4>:
     c92:	01 97       	sbiw	r24, 0x01	; 1
     c94:	f1 f7       	brne	.-4      	; 0xc92 <.L1^B4>
     c96:	9e 8f       	std	Y+30, r25	; 0x1e
     c98:	8d 8f       	std	Y+29, r24	; 0x1d

00000c9a <.Loc.129>:
	...

00000c9c <.L30>:
            {
                DEBOUNCE;
                PORTF |= (1<<PF7);                  // als de noodstop weer wordt losgelaten gaat het ledje uit
     c9c:	81 e3       	ldi	r24, 0x31	; 49
     c9e:	90 e0       	ldi	r25, 0x00	; 0
     ca0:	dc 01       	movw	r26, r24
     ca2:	2c 91       	ld	r18, X
     ca4:	81 e3       	ldi	r24, 0x31	; 49
     ca6:	90 e0       	ldi	r25, 0x00	; 0

00000ca8 <.Loc.131>:
     ca8:	20 68       	ori	r18, 0x80	; 128
     caa:	fc 01       	movw	r30, r24
     cac:	20 83       	st	Z, r18

00000cae <.Loc.132>:
                status = 0;
     cae:	1a 82       	std	Y+2, r1	; 0x02
     cb0:	19 82       	std	Y+1, r1	; 0x01

00000cb2 <.L14>:
            }
        }
		switch(status)
     cb2:	89 81       	ldd	r24, Y+1	; 0x01
     cb4:	9a 81       	ldd	r25, Y+2	; 0x02
     cb6:	09 2e       	mov	r0, r25
     cb8:	00 0c       	add	r0, r0
     cba:	aa 0b       	sbc	r26, r26
     cbc:	bb 0b       	sbc	r27, r27
     cbe:	8e 30       	cpi	r24, 0x0E	; 14
     cc0:	91 05       	cpc	r25, r1
     cc2:	a1 05       	cpc	r26, r1
     cc4:	b1 05       	cpc	r27, r1
     cc6:	11 f0       	breq	.+4      	; 0xccc <L0^A+0x2>

00000cc8 <L0^A>:
     cc8:	08 f0       	brcs	.+2      	; 0xccc <L0^A+0x2>

00000cca <L0^A>:
     cca:	29 ce       	rjmp	.-942    	; 0x91e <.L147>
     ccc:	fc 01       	movw	r30, r24
     cce:	88 27       	eor	r24, r24
     cd0:	e0 50       	subi	r30, 0x00	; 0
     cd2:	f9 4e       	sbci	r31, 0xE9	; 233
     cd4:	8f 4f       	sbci	r24, 0xFF	; 255
     cd6:	0c 94 e1 14 	jmp	0x29c2	; 0x29c2 <__tablejump2__>

00000cda <.L47>:
		{
        case 0:
            if(!(PINA & (1<<home_switch)))
     cda:	80 e2       	ldi	r24, 0x20	; 32
     cdc:	90 e0       	ldi	r25, 0x00	; 0
     cde:	dc 01       	movw	r26, r24
     ce0:	8c 91       	ld	r24, X

00000ce2 <.Loc.135>:
     ce2:	88 2f       	mov	r24, r24
     ce4:	90 e0       	ldi	r25, 0x00	; 0
     ce6:	81 70       	andi	r24, 0x01	; 1
     ce8:	99 27       	eor	r25, r25

00000cea <.Loc.136>:
     cea:	00 97       	sbiw	r24, 0x00	; 0
     cec:	11 f0       	breq	.+4      	; 0xcf2 <L0^A+0x4>

00000cee <L0^A>:
     cee:	0c 94 4f 12 	jmp	0x249e	; 0x249e <.L201>
     cf2:	80 e0       	ldi	r24, 0x00	; 0
     cf4:	90 e0       	ldi	r25, 0x00	; 0
     cf6:	a0 ea       	ldi	r26, 0xA0	; 160
     cf8:	b1 e4       	ldi	r27, 0x41	; 65
     cfa:	8f 8f       	std	Y+31, r24	; 0x1f
     cfc:	98 a3       	std	Y+32, r25	; 0x20
     cfe:	a9 a3       	std	Y+33, r26	; 0x21
     d00:	ba a3       	std	Y+34, r27	; 0x22

00000d02 <.LBB96>:
	__tmp = ((F_CPU) / 4e3) * __ms;
     d02:	20 e0       	ldi	r18, 0x00	; 0
     d04:	30 e0       	ldi	r19, 0x00	; 0
     d06:	4a e7       	ldi	r20, 0x7A	; 122
     d08:	55 e4       	ldi	r21, 0x45	; 69
     d0a:	6f 8d       	ldd	r22, Y+31	; 0x1f
     d0c:	78 a1       	ldd	r23, Y+32	; 0x20
     d0e:	89 a1       	ldd	r24, Y+33	; 0x21
     d10:	9a a1       	ldd	r25, Y+34	; 0x22
     d12:	0e 94 91 16 	call	0x2d22	; 0x2d22 <__mulsf3>
     d16:	c3 5f       	subi	r28, 0xF3	; 243
     d18:	de 4f       	sbci	r29, 0xFE	; 254
     d1a:	68 83       	st	Y, r22
     d1c:	79 83       	std	Y+1, r23	; 0x01
     d1e:	8a 83       	std	Y+2, r24	; 0x02
     d20:	9b 83       	std	Y+3, r25	; 0x03
     d22:	cd 50       	subi	r28, 0x0D	; 13
     d24:	d1 40       	sbci	r29, 0x01	; 1
     d26:	c3 5f       	subi	r28, 0xF3	; 243
     d28:	de 4f       	sbci	r29, 0xFE	; 254
     d2a:	88 81       	ld	r24, Y
     d2c:	99 81       	ldd	r25, Y+1	; 0x01
     d2e:	aa 81       	ldd	r26, Y+2	; 0x02
     d30:	bb 81       	ldd	r27, Y+3	; 0x03
     d32:	cd 50       	subi	r28, 0x0D	; 13
     d34:	d1 40       	sbci	r29, 0x01	; 1
     d36:	8b a3       	std	Y+35, r24	; 0x23
     d38:	9c a3       	std	Y+36, r25	; 0x24
     d3a:	ad a3       	std	Y+37, r26	; 0x25
     d3c:	be a3       	std	Y+38, r27	; 0x26

00000d3e <.Loc.138>:
	if (__tmp < 1.0)
     d3e:	20 e0       	ldi	r18, 0x00	; 0
     d40:	30 e0       	ldi	r19, 0x00	; 0
     d42:	40 e8       	ldi	r20, 0x80	; 128
     d44:	5f e3       	ldi	r21, 0x3F	; 63
     d46:	6b a1       	ldd	r22, Y+35	; 0x23
     d48:	7c a1       	ldd	r23, Y+36	; 0x24
     d4a:	8d a1       	ldd	r24, Y+37	; 0x25
     d4c:	9e a1       	ldd	r25, Y+38	; 0x26
     d4e:	0e 94 a6 15 	call	0x2b4c	; 0x2b4c <__cmpsf2>
     d52:	88 23       	and	r24, r24
     d54:	2c f4       	brge	.+10     	; 0xd60 <.L178>

00000d56 <.Loc.139>:
		__ticks = 1;
     d56:	81 e0       	ldi	r24, 0x01	; 1
     d58:	90 e0       	ldi	r25, 0x00	; 0
     d5a:	98 a7       	std	Y+40, r25	; 0x28
     d5c:	8f a3       	std	Y+39, r24	; 0x27
     d5e:	76 c0       	rjmp	.+236    	; 0xe4c <.L51>

00000d60 <.L178>:
	else if (__tmp > 65535)
     d60:	20 e0       	ldi	r18, 0x00	; 0
     d62:	3f ef       	ldi	r19, 0xFF	; 255
     d64:	4f e7       	ldi	r20, 0x7F	; 127
     d66:	57 e4       	ldi	r21, 0x47	; 71
     d68:	6b a1       	ldd	r22, Y+35	; 0x23
     d6a:	7c a1       	ldd	r23, Y+36	; 0x24
     d6c:	8d a1       	ldd	r24, Y+37	; 0x25
     d6e:	9e a1       	ldd	r25, Y+38	; 0x26
     d70:	0e 94 8c 16 	call	0x2d18	; 0x2d18 <__gesf2>
     d74:	88 23       	and	r24, r24
     d76:	09 f0       	breq	.+2      	; 0xd7a <L0^A>

00000d78 <L0^A>:
     d78:	0c f4       	brge	.+2      	; 0xd7c <.Loc.141>

00000d7a <L0^A>:
     d7a:	52 c0       	rjmp	.+164    	; 0xe20 <.L179>

00000d7c <.Loc.141>:
		__ticks = (uint16_t) (__ms * 10.0);
     d7c:	20 e0       	ldi	r18, 0x00	; 0
     d7e:	30 e0       	ldi	r19, 0x00	; 0
     d80:	40 e2       	ldi	r20, 0x20	; 32
     d82:	51 e4       	ldi	r21, 0x41	; 65
     d84:	6f 8d       	ldd	r22, Y+31	; 0x1f
     d86:	78 a1       	ldd	r23, Y+32	; 0x20
     d88:	89 a1       	ldd	r24, Y+33	; 0x21
     d8a:	9a a1       	ldd	r25, Y+34	; 0x22
     d8c:	0e 94 91 16 	call	0x2d22	; 0x2d22 <__mulsf3>
     d90:	cf 5e       	subi	r28, 0xEF	; 239
     d92:	de 4f       	sbci	r29, 0xFE	; 254
     d94:	68 83       	st	Y, r22
     d96:	79 83       	std	Y+1, r23	; 0x01
     d98:	8a 83       	std	Y+2, r24	; 0x02
     d9a:	9b 83       	std	Y+3, r25	; 0x03
     d9c:	c1 51       	subi	r28, 0x11	; 17
     d9e:	d1 40       	sbci	r29, 0x01	; 1
     da0:	cf 5e       	subi	r28, 0xEF	; 239
     da2:	de 4f       	sbci	r29, 0xFE	; 254
     da4:	88 81       	ld	r24, Y
     da6:	99 81       	ldd	r25, Y+1	; 0x01
     da8:	aa 81       	ldd	r26, Y+2	; 0x02
     daa:	bb 81       	ldd	r27, Y+3	; 0x03
     dac:	c1 51       	subi	r28, 0x11	; 17
     dae:	d1 40       	sbci	r29, 0x01	; 1
     db0:	cf 53       	subi	r28, 0x3F	; 63
     db2:	df 4f       	sbci	r29, 0xFF	; 255
     db4:	88 83       	st	Y, r24
     db6:	99 83       	std	Y+1, r25	; 0x01
     db8:	aa 83       	std	Y+2, r26	; 0x02
     dba:	bb 83       	std	Y+3, r27	; 0x03
     dbc:	c1 5c       	subi	r28, 0xC1	; 193
     dbe:	d0 40       	sbci	r29, 0x00	; 0

00000dc0 <.Loc.142>:
     dc0:	cf 53       	subi	r28, 0x3F	; 63
     dc2:	df 4f       	sbci	r29, 0xFF	; 255
     dc4:	68 81       	ld	r22, Y
     dc6:	79 81       	ldd	r23, Y+1	; 0x01
     dc8:	8a 81       	ldd	r24, Y+2	; 0x02
     dca:	9b 81       	ldd	r25, Y+3	; 0x03
     dcc:	c1 5c       	subi	r28, 0xC1	; 193
     dce:	d0 40       	sbci	r29, 0x00	; 0
     dd0:	0e 94 ab 15 	call	0x2b56	; 0x2b56 <__fixunssfsi>
     dd4:	cb 5e       	subi	r28, 0xEB	; 235
     dd6:	de 4f       	sbci	r29, 0xFE	; 254
     dd8:	68 83       	st	Y, r22
     dda:	79 83       	std	Y+1, r23	; 0x01
     ddc:	8a 83       	std	Y+2, r24	; 0x02
     dde:	9b 83       	std	Y+3, r25	; 0x03
     de0:	c5 51       	subi	r28, 0x15	; 21
     de2:	d1 40       	sbci	r29, 0x01	; 1
     de4:	cb 5e       	subi	r28, 0xEB	; 235
     de6:	de 4f       	sbci	r29, 0xFE	; 254
     de8:	a8 81       	ld	r26, Y
     dea:	b9 81       	ldd	r27, Y+1	; 0x01
     dec:	c5 51       	subi	r28, 0x15	; 21
     dee:	d1 40       	sbci	r29, 0x01	; 1
     df0:	b8 a7       	std	Y+40, r27	; 0x28
     df2:	af a3       	std	Y+39, r26	; 0x27

00000df4 <.Loc.143>:
		while(__ticks)
     df4:	10 c0       	rjmp	.+32     	; 0xe16 <.L54>

00000df6 <.L55>:
     df6:	80 e9       	ldi	r24, 0x90	; 144
     df8:	91 e0       	ldi	r25, 0x01	; 1
     dfa:	9a a7       	std	Y+42, r25	; 0x2a
     dfc:	89 a7       	std	Y+41, r24	; 0x29

00000dfe <.LBB98>:
     dfe:	89 a5       	ldd	r24, Y+41	; 0x29
     e00:	9a a5       	ldd	r25, Y+42	; 0x2a

00000e02 <.L1^B5>:
     e02:	01 97       	sbiw	r24, 0x01	; 1
     e04:	f1 f7       	brne	.-4      	; 0xe02 <.L1^B5>
     e06:	9a a7       	std	Y+42, r25	; 0x2a
     e08:	89 a7       	std	Y+41, r24	; 0x29

00000e0a <.Loc.145>:
	...

00000e0c <.LBE98>:
			__ticks --;
     e0c:	8f a1       	ldd	r24, Y+39	; 0x27
     e0e:	98 a5       	ldd	r25, Y+40	; 0x28
     e10:	01 97       	sbiw	r24, 0x01	; 1
     e12:	98 a7       	std	Y+40, r25	; 0x28
     e14:	8f a3       	std	Y+39, r24	; 0x27

00000e16 <.L54>:
		while(__ticks)
     e16:	8f a1       	ldd	r24, Y+39	; 0x27
     e18:	98 a5       	ldd	r25, Y+40	; 0x28
     e1a:	00 97       	sbiw	r24, 0x00	; 0
     e1c:	61 f7       	brne	.-40     	; 0xdf6 <.L55>

00000e1e <.Loc.148>:
		return;
     e1e:	21 c0       	rjmp	.+66     	; 0xe62 <.L56>

00000e20 <.L179>:
		__ticks = (uint16_t)__tmp;
     e20:	6b a1       	ldd	r22, Y+35	; 0x23
     e22:	7c a1       	ldd	r23, Y+36	; 0x24
     e24:	8d a1       	ldd	r24, Y+37	; 0x25
     e26:	9e a1       	ldd	r25, Y+38	; 0x26
     e28:	0e 94 ab 15 	call	0x2b56	; 0x2b56 <__fixunssfsi>
     e2c:	c7 5e       	subi	r28, 0xE7	; 231
     e2e:	de 4f       	sbci	r29, 0xFE	; 254
     e30:	68 83       	st	Y, r22
     e32:	79 83       	std	Y+1, r23	; 0x01
     e34:	8a 83       	std	Y+2, r24	; 0x02
     e36:	9b 83       	std	Y+3, r25	; 0x03
     e38:	c9 51       	subi	r28, 0x19	; 25
     e3a:	d1 40       	sbci	r29, 0x01	; 1
     e3c:	c7 5e       	subi	r28, 0xE7	; 231
     e3e:	de 4f       	sbci	r29, 0xFE	; 254
     e40:	e8 81       	ld	r30, Y
     e42:	f9 81       	ldd	r31, Y+1	; 0x01
     e44:	c9 51       	subi	r28, 0x19	; 25
     e46:	d1 40       	sbci	r29, 0x01	; 1
     e48:	f8 a7       	std	Y+40, r31	; 0x28
     e4a:	ef a3       	std	Y+39, r30	; 0x27

00000e4c <.L51>:
     e4c:	8f a1       	ldd	r24, Y+39	; 0x27
     e4e:	98 a5       	ldd	r25, Y+40	; 0x28
     e50:	9c a7       	std	Y+44, r25	; 0x2c
     e52:	8b a7       	std	Y+43, r24	; 0x2b

00000e54 <.LBB100>:
     e54:	8b a5       	ldd	r24, Y+43	; 0x2b
     e56:	9c a5       	ldd	r25, Y+44	; 0x2c

00000e58 <.L1^B6>:
     e58:	01 97       	sbiw	r24, 0x01	; 1
     e5a:	f1 f7       	brne	.-4      	; 0xe58 <.L1^B6>
     e5c:	9c a7       	std	Y+44, r25	; 0x2c
     e5e:	8b a7       	std	Y+43, r24	; 0x2b

00000e60 <.Loc.151>:
	...

00000e62 <.L56>:
            {
                DEBOUNCE;
                status = 2;
     e62:	82 e0       	ldi	r24, 0x02	; 2
     e64:	90 e0       	ldi	r25, 0x00	; 0
     e66:	9a 83       	std	Y+2, r25	; 0x02
     e68:	89 83       	std	Y+1, r24	; 0x01

00000e6a <.Loc.153>:
                break;
     e6a:	0c 94 56 12 	jmp	0x24ac	; 0x24ac <.L31>

00000e6e <.L46>:
            }
            break;
        case 1:
            if(!(PINA & (1<<home_switch)))
     e6e:	80 e2       	ldi	r24, 0x20	; 32
     e70:	90 e0       	ldi	r25, 0x00	; 0
     e72:	dc 01       	movw	r26, r24
     e74:	8c 91       	ld	r24, X

00000e76 <.Loc.155>:
     e76:	88 2f       	mov	r24, r24
     e78:	90 e0       	ldi	r25, 0x00	; 0
     e7a:	81 70       	andi	r24, 0x01	; 1
     e7c:	99 27       	eor	r25, r25

00000e7e <.Loc.156>:
     e7e:	00 97       	sbiw	r24, 0x00	; 0
     e80:	09 f0       	breq	.+2      	; 0xe84 <L0^A+0x2>

00000e82 <L0^A>:
     e82:	bc c0       	rjmp	.+376    	; 0xffc <.L57>
     e84:	80 e0       	ldi	r24, 0x00	; 0
     e86:	90 e0       	ldi	r25, 0x00	; 0
     e88:	a0 ea       	ldi	r26, 0xA0	; 160
     e8a:	b1 e4       	ldi	r27, 0x41	; 65
     e8c:	8d a7       	std	Y+45, r24	; 0x2d
     e8e:	9e a7       	std	Y+46, r25	; 0x2e
     e90:	af a7       	std	Y+47, r26	; 0x2f
     e92:	b8 ab       	std	Y+48, r27	; 0x30

00000e94 <.LBB102>:
	__tmp = ((F_CPU) / 4e3) * __ms;
     e94:	20 e0       	ldi	r18, 0x00	; 0
     e96:	30 e0       	ldi	r19, 0x00	; 0
     e98:	4a e7       	ldi	r20, 0x7A	; 122
     e9a:	55 e4       	ldi	r21, 0x45	; 69
     e9c:	6d a5       	ldd	r22, Y+45	; 0x2d
     e9e:	7e a5       	ldd	r23, Y+46	; 0x2e
     ea0:	8f a5       	ldd	r24, Y+47	; 0x2f
     ea2:	98 a9       	ldd	r25, Y+48	; 0x30
     ea4:	0e 94 91 16 	call	0x2d22	; 0x2d22 <__mulsf3>
     ea8:	c3 5e       	subi	r28, 0xE3	; 227
     eaa:	de 4f       	sbci	r29, 0xFE	; 254
     eac:	68 83       	st	Y, r22
     eae:	79 83       	std	Y+1, r23	; 0x01
     eb0:	8a 83       	std	Y+2, r24	; 0x02
     eb2:	9b 83       	std	Y+3, r25	; 0x03
     eb4:	cd 51       	subi	r28, 0x1D	; 29
     eb6:	d1 40       	sbci	r29, 0x01	; 1
     eb8:	c3 5e       	subi	r28, 0xE3	; 227
     eba:	de 4f       	sbci	r29, 0xFE	; 254
     ebc:	88 81       	ld	r24, Y
     ebe:	99 81       	ldd	r25, Y+1	; 0x01
     ec0:	aa 81       	ldd	r26, Y+2	; 0x02
     ec2:	bb 81       	ldd	r27, Y+3	; 0x03
     ec4:	cd 51       	subi	r28, 0x1D	; 29
     ec6:	d1 40       	sbci	r29, 0x01	; 1
     ec8:	89 ab       	std	Y+49, r24	; 0x31
     eca:	9a ab       	std	Y+50, r25	; 0x32
     ecc:	ab ab       	std	Y+51, r26	; 0x33
     ece:	bc ab       	std	Y+52, r27	; 0x34

00000ed0 <.Loc.158>:
	if (__tmp < 1.0)
     ed0:	20 e0       	ldi	r18, 0x00	; 0
     ed2:	30 e0       	ldi	r19, 0x00	; 0
     ed4:	40 e8       	ldi	r20, 0x80	; 128
     ed6:	5f e3       	ldi	r21, 0x3F	; 63
     ed8:	69 a9       	ldd	r22, Y+49	; 0x31
     eda:	7a a9       	ldd	r23, Y+50	; 0x32
     edc:	8b a9       	ldd	r24, Y+51	; 0x33
     ede:	9c a9       	ldd	r25, Y+52	; 0x34
     ee0:	0e 94 a6 15 	call	0x2b4c	; 0x2b4c <__cmpsf2>
     ee4:	88 23       	and	r24, r24
     ee6:	2c f4       	brge	.+10     	; 0xef2 <.L180>

00000ee8 <.Loc.159>:
		__ticks = 1;
     ee8:	81 e0       	ldi	r24, 0x01	; 1
     eea:	90 e0       	ldi	r25, 0x00	; 0
     eec:	9e ab       	std	Y+54, r25	; 0x36
     eee:	8d ab       	std	Y+53, r24	; 0x35
     ef0:	76 c0       	rjmp	.+236    	; 0xfde <.L60>

00000ef2 <.L180>:
	else if (__tmp > 65535)
     ef2:	20 e0       	ldi	r18, 0x00	; 0
     ef4:	3f ef       	ldi	r19, 0xFF	; 255
     ef6:	4f e7       	ldi	r20, 0x7F	; 127
     ef8:	57 e4       	ldi	r21, 0x47	; 71
     efa:	69 a9       	ldd	r22, Y+49	; 0x31
     efc:	7a a9       	ldd	r23, Y+50	; 0x32
     efe:	8b a9       	ldd	r24, Y+51	; 0x33
     f00:	9c a9       	ldd	r25, Y+52	; 0x34
     f02:	0e 94 8c 16 	call	0x2d18	; 0x2d18 <__gesf2>
     f06:	88 23       	and	r24, r24
     f08:	09 f0       	breq	.+2      	; 0xf0c <L0^A>

00000f0a <L0^A>:
     f0a:	0c f4       	brge	.+2      	; 0xf0e <.Loc.161>

00000f0c <L0^A>:
     f0c:	52 c0       	rjmp	.+164    	; 0xfb2 <.L181>

00000f0e <.Loc.161>:
		__ticks = (uint16_t) (__ms * 10.0);
     f0e:	20 e0       	ldi	r18, 0x00	; 0
     f10:	30 e0       	ldi	r19, 0x00	; 0
     f12:	40 e2       	ldi	r20, 0x20	; 32
     f14:	51 e4       	ldi	r21, 0x41	; 65
     f16:	6d a5       	ldd	r22, Y+45	; 0x2d
     f18:	7e a5       	ldd	r23, Y+46	; 0x2e
     f1a:	8f a5       	ldd	r24, Y+47	; 0x2f
     f1c:	98 a9       	ldd	r25, Y+48	; 0x30
     f1e:	0e 94 91 16 	call	0x2d22	; 0x2d22 <__mulsf3>
     f22:	cf 5d       	subi	r28, 0xDF	; 223
     f24:	de 4f       	sbci	r29, 0xFE	; 254
     f26:	68 83       	st	Y, r22
     f28:	79 83       	std	Y+1, r23	; 0x01
     f2a:	8a 83       	std	Y+2, r24	; 0x02
     f2c:	9b 83       	std	Y+3, r25	; 0x03
     f2e:	c1 52       	subi	r28, 0x21	; 33
     f30:	d1 40       	sbci	r29, 0x01	; 1
     f32:	cf 5d       	subi	r28, 0xDF	; 223
     f34:	de 4f       	sbci	r29, 0xFE	; 254
     f36:	88 81       	ld	r24, Y
     f38:	99 81       	ldd	r25, Y+1	; 0x01
     f3a:	aa 81       	ldd	r26, Y+2	; 0x02
     f3c:	bb 81       	ldd	r27, Y+3	; 0x03
     f3e:	c1 52       	subi	r28, 0x21	; 33
     f40:	d1 40       	sbci	r29, 0x01	; 1
     f42:	cb 53       	subi	r28, 0x3B	; 59
     f44:	df 4f       	sbci	r29, 0xFF	; 255
     f46:	88 83       	st	Y, r24
     f48:	99 83       	std	Y+1, r25	; 0x01
     f4a:	aa 83       	std	Y+2, r26	; 0x02
     f4c:	bb 83       	std	Y+3, r27	; 0x03
     f4e:	c5 5c       	subi	r28, 0xC5	; 197
     f50:	d0 40       	sbci	r29, 0x00	; 0

00000f52 <.Loc.162>:
     f52:	cb 53       	subi	r28, 0x3B	; 59
     f54:	df 4f       	sbci	r29, 0xFF	; 255
     f56:	68 81       	ld	r22, Y
     f58:	79 81       	ldd	r23, Y+1	; 0x01
     f5a:	8a 81       	ldd	r24, Y+2	; 0x02
     f5c:	9b 81       	ldd	r25, Y+3	; 0x03
     f5e:	c5 5c       	subi	r28, 0xC5	; 197
     f60:	d0 40       	sbci	r29, 0x00	; 0
     f62:	0e 94 ab 15 	call	0x2b56	; 0x2b56 <__fixunssfsi>
     f66:	cb 5d       	subi	r28, 0xDB	; 219
     f68:	de 4f       	sbci	r29, 0xFE	; 254
     f6a:	68 83       	st	Y, r22
     f6c:	79 83       	std	Y+1, r23	; 0x01
     f6e:	8a 83       	std	Y+2, r24	; 0x02
     f70:	9b 83       	std	Y+3, r25	; 0x03
     f72:	c5 52       	subi	r28, 0x25	; 37
     f74:	d1 40       	sbci	r29, 0x01	; 1
     f76:	cb 5d       	subi	r28, 0xDB	; 219
     f78:	de 4f       	sbci	r29, 0xFE	; 254
     f7a:	a8 81       	ld	r26, Y
     f7c:	b9 81       	ldd	r27, Y+1	; 0x01
     f7e:	c5 52       	subi	r28, 0x25	; 37
     f80:	d1 40       	sbci	r29, 0x01	; 1
     f82:	be ab       	std	Y+54, r27	; 0x36
     f84:	ad ab       	std	Y+53, r26	; 0x35

00000f86 <.Loc.163>:
		while(__ticks)
     f86:	10 c0       	rjmp	.+32     	; 0xfa8 <.L63>

00000f88 <.L64>:
     f88:	80 e9       	ldi	r24, 0x90	; 144
     f8a:	91 e0       	ldi	r25, 0x01	; 1
     f8c:	98 af       	std	Y+56, r25	; 0x38
     f8e:	8f ab       	std	Y+55, r24	; 0x37

00000f90 <.LBB104>:
     f90:	8f a9       	ldd	r24, Y+55	; 0x37
     f92:	98 ad       	ldd	r25, Y+56	; 0x38

00000f94 <.L1^B7>:
     f94:	01 97       	sbiw	r24, 0x01	; 1
     f96:	f1 f7       	brne	.-4      	; 0xf94 <.L1^B7>
     f98:	98 af       	std	Y+56, r25	; 0x38
     f9a:	8f ab       	std	Y+55, r24	; 0x37

00000f9c <.Loc.165>:
	...

00000f9e <.LBE104>:
			__ticks --;
     f9e:	8d a9       	ldd	r24, Y+53	; 0x35
     fa0:	9e a9       	ldd	r25, Y+54	; 0x36
     fa2:	01 97       	sbiw	r24, 0x01	; 1
     fa4:	9e ab       	std	Y+54, r25	; 0x36
     fa6:	8d ab       	std	Y+53, r24	; 0x35

00000fa8 <.L63>:
		while(__ticks)
     fa8:	8d a9       	ldd	r24, Y+53	; 0x35
     faa:	9e a9       	ldd	r25, Y+54	; 0x36
     fac:	00 97       	sbiw	r24, 0x00	; 0
     fae:	61 f7       	brne	.-40     	; 0xf88 <.L64>

00000fb0 <.Loc.168>:
		return;
     fb0:	21 c0       	rjmp	.+66     	; 0xff4 <.L65>

00000fb2 <.L181>:
		__ticks = (uint16_t)__tmp;
     fb2:	69 a9       	ldd	r22, Y+49	; 0x31
     fb4:	7a a9       	ldd	r23, Y+50	; 0x32
     fb6:	8b a9       	ldd	r24, Y+51	; 0x33
     fb8:	9c a9       	ldd	r25, Y+52	; 0x34
     fba:	0e 94 ab 15 	call	0x2b56	; 0x2b56 <__fixunssfsi>
     fbe:	c7 5d       	subi	r28, 0xD7	; 215
     fc0:	de 4f       	sbci	r29, 0xFE	; 254
     fc2:	68 83       	st	Y, r22
     fc4:	79 83       	std	Y+1, r23	; 0x01
     fc6:	8a 83       	std	Y+2, r24	; 0x02
     fc8:	9b 83       	std	Y+3, r25	; 0x03
     fca:	c9 52       	subi	r28, 0x29	; 41
     fcc:	d1 40       	sbci	r29, 0x01	; 1
     fce:	c7 5d       	subi	r28, 0xD7	; 215
     fd0:	de 4f       	sbci	r29, 0xFE	; 254
     fd2:	e8 81       	ld	r30, Y
     fd4:	f9 81       	ldd	r31, Y+1	; 0x01
     fd6:	c9 52       	subi	r28, 0x29	; 41
     fd8:	d1 40       	sbci	r29, 0x01	; 1
     fda:	fe ab       	std	Y+54, r31	; 0x36
     fdc:	ed ab       	std	Y+53, r30	; 0x35

00000fde <.L60>:
     fde:	8d a9       	ldd	r24, Y+53	; 0x35
     fe0:	9e a9       	ldd	r25, Y+54	; 0x36
     fe2:	9a af       	std	Y+58, r25	; 0x3a
     fe4:	89 af       	std	Y+57, r24	; 0x39

00000fe6 <.LBB106>:
     fe6:	89 ad       	ldd	r24, Y+57	; 0x39
     fe8:	9a ad       	ldd	r25, Y+58	; 0x3a

00000fea <.L1^B8>:
     fea:	01 97       	sbiw	r24, 0x01	; 1
     fec:	f1 f7       	brne	.-4      	; 0xfea <.L1^B8>
     fee:	9a af       	std	Y+58, r25	; 0x3a
     ff0:	89 af       	std	Y+57, r24	; 0x39

00000ff2 <.Loc.171>:
	...

00000ff4 <.L65>:
            {
                DEBOUNCE;
                status = 0;
     ff4:	1a 82       	std	Y+2, r1	; 0x02
     ff6:	19 82       	std	Y+1, r1	; 0x01

00000ff8 <.Loc.173>:
                break;
     ff8:	0c 94 56 12 	jmp	0x24ac	; 0x24ac <.L31>

00000ffc <.L57>:
            }
            h_bridge_set_percentage(-70);
     ffc:	8a eb       	ldi	r24, 0xBA	; 186
     ffe:	0e 94 c3 02 	call	0x586	; 0x586 <h_bridge_set_percentage>

00001002 <.Loc.175>:
            h_bridge_set_percentage2(-70);
    1002:	8a eb       	ldi	r24, 0xBA	; 186
    1004:	0e 94 0d 03 	call	0x61a	; 0x61a <h_bridge_set_percentage2>

00001008 <.Loc.176>:
            break;
    1008:	0c 94 56 12 	jmp	0x24ac	; 0x24ac <.L31>

0000100c <.L45>:
        case 2:
            if(!(PINF & (1<<opbouw_knop)))
    100c:	8f e2       	ldi	r24, 0x2F	; 47
    100e:	90 e0       	ldi	r25, 0x00	; 0
    1010:	dc 01       	movw	r26, r24
    1012:	8c 91       	ld	r24, X

00001014 <.Loc.178>:
    1014:	88 2f       	mov	r24, r24
    1016:	90 e0       	ldi	r25, 0x00	; 0
    1018:	81 70       	andi	r24, 0x01	; 1
    101a:	99 27       	eor	r25, r25

0000101c <.Loc.179>:
    101c:	00 97       	sbiw	r24, 0x00	; 0
    101e:	09 f0       	breq	.+2      	; 0x1022 <L0^A+0x2>

00001020 <L0^A>:
    1020:	05 c1       	rjmp	.+522    	; 0x122c <.L66>
    1022:	80 e0       	ldi	r24, 0x00	; 0
    1024:	90 e0       	ldi	r25, 0x00	; 0
    1026:	a0 ea       	ldi	r26, 0xA0	; 160
    1028:	b1 e4       	ldi	r27, 0x41	; 65
    102a:	8b af       	std	Y+59, r24	; 0x3b
    102c:	9c af       	std	Y+60, r25	; 0x3c
    102e:	ad af       	std	Y+61, r26	; 0x3d
    1030:	be af       	std	Y+62, r27	; 0x3e

00001032 <.LBB108>:
	__tmp = ((F_CPU) / 4e3) * __ms;
    1032:	8e 01       	movw	r16, r28
    1034:	01 5c       	subi	r16, 0xC1	; 193
    1036:	1f 4f       	sbci	r17, 0xFF	; 255
    1038:	20 e0       	ldi	r18, 0x00	; 0
    103a:	30 e0       	ldi	r19, 0x00	; 0
    103c:	4a e7       	ldi	r20, 0x7A	; 122
    103e:	55 e4       	ldi	r21, 0x45	; 69
    1040:	6b ad       	ldd	r22, Y+59	; 0x3b
    1042:	7c ad       	ldd	r23, Y+60	; 0x3c
    1044:	8d ad       	ldd	r24, Y+61	; 0x3d
    1046:	9e ad       	ldd	r25, Y+62	; 0x3e
    1048:	0e 94 91 16 	call	0x2d22	; 0x2d22 <__mulsf3>
    104c:	c3 5d       	subi	r28, 0xD3	; 211
    104e:	de 4f       	sbci	r29, 0xFE	; 254
    1050:	68 83       	st	Y, r22
    1052:	79 83       	std	Y+1, r23	; 0x01
    1054:	8a 83       	std	Y+2, r24	; 0x02
    1056:	9b 83       	std	Y+3, r25	; 0x03
    1058:	cd 52       	subi	r28, 0x2D	; 45
    105a:	d1 40       	sbci	r29, 0x01	; 1
    105c:	c3 5d       	subi	r28, 0xD3	; 211
    105e:	de 4f       	sbci	r29, 0xFE	; 254
    1060:	88 81       	ld	r24, Y
    1062:	99 81       	ldd	r25, Y+1	; 0x01
    1064:	aa 81       	ldd	r26, Y+2	; 0x02
    1066:	bb 81       	ldd	r27, Y+3	; 0x03
    1068:	cd 52       	subi	r28, 0x2D	; 45
    106a:	d1 40       	sbci	r29, 0x01	; 1
    106c:	f8 01       	movw	r30, r16
    106e:	80 83       	st	Z, r24
    1070:	91 83       	std	Z+1, r25	; 0x01
    1072:	a2 83       	std	Z+2, r26	; 0x02
    1074:	b3 83       	std	Z+3, r27	; 0x03

00001076 <.Loc.181>:
	if (__tmp < 1.0)
    1076:	ce 01       	movw	r24, r28
    1078:	cf 96       	adiw	r24, 0x3f	; 63
    107a:	20 e0       	ldi	r18, 0x00	; 0
    107c:	30 e0       	ldi	r19, 0x00	; 0
    107e:	40 e8       	ldi	r20, 0x80	; 128
    1080:	5f e3       	ldi	r21, 0x3F	; 63
    1082:	dc 01       	movw	r26, r24
    1084:	6d 91       	ld	r22, X+
    1086:	7d 91       	ld	r23, X+
    1088:	8d 91       	ld	r24, X+
    108a:	9c 91       	ld	r25, X
    108c:	0e 94 a6 15 	call	0x2b4c	; 0x2b4c <__cmpsf2>
    1090:	88 23       	and	r24, r24
    1092:	4c f4       	brge	.+18     	; 0x10a6 <.L182>

00001094 <.Loc.182>:
		__ticks = 1;
    1094:	ce 01       	movw	r24, r28
    1096:	8d 5b       	subi	r24, 0xBD	; 189
    1098:	9f 4f       	sbci	r25, 0xFF	; 255
    109a:	21 e0       	ldi	r18, 0x01	; 1
    109c:	30 e0       	ldi	r19, 0x00	; 0
    109e:	fc 01       	movw	r30, r24
    10a0:	31 83       	std	Z+1, r19	; 0x01
    10a2:	20 83       	st	Z, r18
    10a4:	9f c0       	rjmp	.+318    	; 0x11e4 <.L69>

000010a6 <.L182>:
	else if (__tmp > 65535)
    10a6:	ce 01       	movw	r24, r28
    10a8:	cf 96       	adiw	r24, 0x3f	; 63
    10aa:	20 e0       	ldi	r18, 0x00	; 0
    10ac:	3f ef       	ldi	r19, 0xFF	; 255
    10ae:	4f e7       	ldi	r20, 0x7F	; 127
    10b0:	57 e4       	ldi	r21, 0x47	; 71
    10b2:	dc 01       	movw	r26, r24
    10b4:	6d 91       	ld	r22, X+
    10b6:	7d 91       	ld	r23, X+
    10b8:	8d 91       	ld	r24, X+
    10ba:	9c 91       	ld	r25, X
    10bc:	0e 94 8c 16 	call	0x2d18	; 0x2d18 <__gesf2>
    10c0:	88 23       	and	r24, r24
    10c2:	09 f0       	breq	.+2      	; 0x10c6 <L0^A>

000010c4 <L0^A>:
    10c4:	0c f4       	brge	.+2      	; 0x10c8 <.Loc.184>

000010c6 <L0^A>:
    10c6:	71 c0       	rjmp	.+226    	; 0x11aa <.L183>

000010c8 <.Loc.184>:
		__ticks = (uint16_t) (__ms * 10.0);
    10c8:	20 e0       	ldi	r18, 0x00	; 0
    10ca:	30 e0       	ldi	r19, 0x00	; 0
    10cc:	40 e2       	ldi	r20, 0x20	; 32
    10ce:	51 e4       	ldi	r21, 0x41	; 65
    10d0:	6b ad       	ldd	r22, Y+59	; 0x3b
    10d2:	7c ad       	ldd	r23, Y+60	; 0x3c
    10d4:	8d ad       	ldd	r24, Y+61	; 0x3d
    10d6:	9e ad       	ldd	r25, Y+62	; 0x3e
    10d8:	0e 94 91 16 	call	0x2d22	; 0x2d22 <__mulsf3>
    10dc:	cf 5c       	subi	r28, 0xCF	; 207
    10de:	de 4f       	sbci	r29, 0xFE	; 254
    10e0:	68 83       	st	Y, r22
    10e2:	79 83       	std	Y+1, r23	; 0x01
    10e4:	8a 83       	std	Y+2, r24	; 0x02
    10e6:	9b 83       	std	Y+3, r25	; 0x03
    10e8:	c1 53       	subi	r28, 0x31	; 49
    10ea:	d1 40       	sbci	r29, 0x01	; 1
    10ec:	cf 5c       	subi	r28, 0xCF	; 207
    10ee:	de 4f       	sbci	r29, 0xFE	; 254
    10f0:	88 81       	ld	r24, Y
    10f2:	99 81       	ldd	r25, Y+1	; 0x01
    10f4:	aa 81       	ldd	r26, Y+2	; 0x02
    10f6:	bb 81       	ldd	r27, Y+3	; 0x03
    10f8:	c1 53       	subi	r28, 0x31	; 49
    10fa:	d1 40       	sbci	r29, 0x01	; 1
    10fc:	c7 53       	subi	r28, 0x37	; 55
    10fe:	df 4f       	sbci	r29, 0xFF	; 255
    1100:	88 83       	st	Y, r24
    1102:	99 83       	std	Y+1, r25	; 0x01
    1104:	aa 83       	std	Y+2, r26	; 0x02
    1106:	bb 83       	std	Y+3, r27	; 0x03
    1108:	c9 5c       	subi	r28, 0xC9	; 201
    110a:	d0 40       	sbci	r29, 0x00	; 0

0000110c <.Loc.185>:
    110c:	8e 01       	movw	r16, r28
    110e:	0d 5b       	subi	r16, 0xBD	; 189
    1110:	1f 4f       	sbci	r17, 0xFF	; 255
    1112:	c7 53       	subi	r28, 0x37	; 55
    1114:	df 4f       	sbci	r29, 0xFF	; 255
    1116:	68 81       	ld	r22, Y
    1118:	79 81       	ldd	r23, Y+1	; 0x01
    111a:	8a 81       	ldd	r24, Y+2	; 0x02
    111c:	9b 81       	ldd	r25, Y+3	; 0x03
    111e:	c9 5c       	subi	r28, 0xC9	; 201
    1120:	d0 40       	sbci	r29, 0x00	; 0
    1122:	0e 94 ab 15 	call	0x2b56	; 0x2b56 <__fixunssfsi>
    1126:	cb 5c       	subi	r28, 0xCB	; 203
    1128:	de 4f       	sbci	r29, 0xFE	; 254
    112a:	68 83       	st	Y, r22
    112c:	79 83       	std	Y+1, r23	; 0x01
    112e:	8a 83       	std	Y+2, r24	; 0x02
    1130:	9b 83       	std	Y+3, r25	; 0x03
    1132:	c5 53       	subi	r28, 0x35	; 53
    1134:	d1 40       	sbci	r29, 0x01	; 1
    1136:	cb 5c       	subi	r28, 0xCB	; 203
    1138:	de 4f       	sbci	r29, 0xFE	; 254
    113a:	e8 81       	ld	r30, Y
    113c:	f9 81       	ldd	r31, Y+1	; 0x01
    113e:	c5 53       	subi	r28, 0x35	; 53
    1140:	d1 40       	sbci	r29, 0x01	; 1
    1142:	d8 01       	movw	r26, r16
    1144:	11 96       	adiw	r26, 0x01	; 1
    1146:	fc 93       	st	X, r31
    1148:	ee 93       	st	-X, r30

0000114a <.Loc.186>:
		while(__ticks)
    114a:	26 c0       	rjmp	.+76     	; 0x1198 <.L72>

0000114c <.L73>:
    114c:	ce 01       	movw	r24, r28
    114e:	8b 5b       	subi	r24, 0xBB	; 187
    1150:	9f 4f       	sbci	r25, 0xFF	; 255
    1152:	20 e9       	ldi	r18, 0x90	; 144
    1154:	31 e0       	ldi	r19, 0x01	; 1
    1156:	dc 01       	movw	r26, r24
    1158:	2d 93       	st	X+, r18
    115a:	3c 93       	st	X, r19

0000115c <.LBB110>:
    115c:	ce 01       	movw	r24, r28
    115e:	8b 5b       	subi	r24, 0xBB	; 187
    1160:	9f 4f       	sbci	r25, 0xFF	; 255
    1162:	fc 01       	movw	r30, r24
    1164:	80 81       	ld	r24, Z
    1166:	91 81       	ldd	r25, Z+1	; 0x01

00001168 <.L1^B9>:
    1168:	01 97       	sbiw	r24, 0x01	; 1
    116a:	f1 f7       	brne	.-4      	; 0x1168 <.L1^B9>
    116c:	9e 01       	movw	r18, r28
    116e:	2b 5b       	subi	r18, 0xBB	; 187
    1170:	3f 4f       	sbci	r19, 0xFF	; 255
    1172:	d9 01       	movw	r26, r18
    1174:	8d 93       	st	X+, r24
    1176:	9c 93       	st	X, r25

00001178 <.Loc.188>:
	...

0000117a <.LBE110>:
			__ticks --;
    117a:	ce 01       	movw	r24, r28
    117c:	8d 5b       	subi	r24, 0xBD	; 189
    117e:	9f 4f       	sbci	r25, 0xFF	; 255
    1180:	9e 01       	movw	r18, r28
    1182:	2d 5b       	subi	r18, 0xBD	; 189
    1184:	3f 4f       	sbci	r19, 0xFF	; 255
    1186:	f9 01       	movw	r30, r18
    1188:	20 81       	ld	r18, Z
    118a:	31 81       	ldd	r19, Z+1	; 0x01
    118c:	21 50       	subi	r18, 0x01	; 1
    118e:	31 09       	sbc	r19, r1
    1190:	dc 01       	movw	r26, r24
    1192:	11 96       	adiw	r26, 0x01	; 1
    1194:	3c 93       	st	X, r19
    1196:	2e 93       	st	-X, r18

00001198 <.L72>:
		while(__ticks)
    1198:	ce 01       	movw	r24, r28
    119a:	8d 5b       	subi	r24, 0xBD	; 189
    119c:	9f 4f       	sbci	r25, 0xFF	; 255
    119e:	fc 01       	movw	r30, r24
    11a0:	80 81       	ld	r24, Z
    11a2:	91 81       	ldd	r25, Z+1	; 0x01
    11a4:	00 97       	sbiw	r24, 0x00	; 0
    11a6:	91 f6       	brne	.-92     	; 0x114c <.L73>

000011a8 <.Loc.191>:
		return;
    11a8:	38 c0       	rjmp	.+112    	; 0x121a <.L74>

000011aa <.L183>:
		__ticks = (uint16_t)__tmp;
    11aa:	8e 01       	movw	r16, r28
    11ac:	0d 5b       	subi	r16, 0xBD	; 189
    11ae:	1f 4f       	sbci	r17, 0xFF	; 255
    11b0:	ce 01       	movw	r24, r28
    11b2:	cf 96       	adiw	r24, 0x3f	; 63
    11b4:	dc 01       	movw	r26, r24
    11b6:	6d 91       	ld	r22, X+
    11b8:	7d 91       	ld	r23, X+
    11ba:	8d 91       	ld	r24, X+
    11bc:	9c 91       	ld	r25, X
    11be:	0e 94 ab 15 	call	0x2b56	; 0x2b56 <__fixunssfsi>
    11c2:	c7 5c       	subi	r28, 0xC7	; 199
    11c4:	de 4f       	sbci	r29, 0xFE	; 254
    11c6:	68 83       	st	Y, r22
    11c8:	79 83       	std	Y+1, r23	; 0x01
    11ca:	8a 83       	std	Y+2, r24	; 0x02
    11cc:	9b 83       	std	Y+3, r25	; 0x03
    11ce:	c9 53       	subi	r28, 0x39	; 57
    11d0:	d1 40       	sbci	r29, 0x01	; 1
    11d2:	c7 5c       	subi	r28, 0xC7	; 199
    11d4:	de 4f       	sbci	r29, 0xFE	; 254
    11d6:	88 81       	ld	r24, Y
    11d8:	99 81       	ldd	r25, Y+1	; 0x01
    11da:	c9 53       	subi	r28, 0x39	; 57
    11dc:	d1 40       	sbci	r29, 0x01	; 1
    11de:	f8 01       	movw	r30, r16
    11e0:	91 83       	std	Z+1, r25	; 0x01
    11e2:	80 83       	st	Z, r24

000011e4 <.L69>:
    11e4:	ce 01       	movw	r24, r28
    11e6:	89 5b       	subi	r24, 0xB9	; 185
    11e8:	9f 4f       	sbci	r25, 0xFF	; 255
    11ea:	9e 01       	movw	r18, r28
    11ec:	2d 5b       	subi	r18, 0xBD	; 189
    11ee:	3f 4f       	sbci	r19, 0xFF	; 255
    11f0:	d9 01       	movw	r26, r18
    11f2:	2d 91       	ld	r18, X+
    11f4:	3c 91       	ld	r19, X
    11f6:	fc 01       	movw	r30, r24
    11f8:	31 83       	std	Z+1, r19	; 0x01
    11fa:	20 83       	st	Z, r18

000011fc <.LBB112>:
    11fc:	ce 01       	movw	r24, r28
    11fe:	89 5b       	subi	r24, 0xB9	; 185
    1200:	9f 4f       	sbci	r25, 0xFF	; 255
    1202:	dc 01       	movw	r26, r24
    1204:	8d 91       	ld	r24, X+
    1206:	9c 91       	ld	r25, X

00001208 <.L1^B10>:
    1208:	01 97       	sbiw	r24, 0x01	; 1
    120a:	f1 f7       	brne	.-4      	; 0x1208 <.L1^B10>
    120c:	9e 01       	movw	r18, r28
    120e:	29 5b       	subi	r18, 0xB9	; 185
    1210:	3f 4f       	sbci	r19, 0xFF	; 255
    1212:	f9 01       	movw	r30, r18
    1214:	91 83       	std	Z+1, r25	; 0x01
    1216:	80 83       	st	Z, r24

00001218 <.Loc.194>:
	...

0000121a <.L74>:
            {
                DEBOUNCE;
                knipperLichten(0);
    121a:	80 e0       	ldi	r24, 0x00	; 0
    121c:	0e 94 b4 03 	call	0x768	; 0x768 <knipperLichten>

00001220 <.Loc.196>:
                status = 3;
    1220:	83 e0       	ldi	r24, 0x03	; 3
    1222:	90 e0       	ldi	r25, 0x00	; 0
    1224:	9a 83       	std	Y+2, r25	; 0x02
    1226:	89 83       	std	Y+1, r24	; 0x01

00001228 <.Loc.197>:
                break;
    1228:	0c 94 56 12 	jmp	0x24ac	; 0x24ac <.L31>

0000122c <.L66>:
            }
            if(!(PINF & (1<<afbouw_knop)))
    122c:	8f e2       	ldi	r24, 0x2F	; 47
    122e:	90 e0       	ldi	r25, 0x00	; 0
    1230:	dc 01       	movw	r26, r24
    1232:	8c 91       	ld	r24, X

00001234 <.Loc.199>:
    1234:	88 2f       	mov	r24, r24
    1236:	90 e0       	ldi	r25, 0x00	; 0
    1238:	82 70       	andi	r24, 0x02	; 2
    123a:	99 27       	eor	r25, r25

0000123c <.Loc.200>:
    123c:	00 97       	sbiw	r24, 0x00	; 0
    123e:	11 f0       	breq	.+4      	; 0x1244 <L0^A+0x4>

00001240 <L0^A>:
    1240:	0c 94 52 12 	jmp	0x24a4	; 0x24a4 <.L202>
    1244:	9e 01       	movw	r18, r28
    1246:	27 5b       	subi	r18, 0xB7	; 183
    1248:	3f 4f       	sbci	r19, 0xFF	; 255
    124a:	80 e0       	ldi	r24, 0x00	; 0
    124c:	90 e0       	ldi	r25, 0x00	; 0
    124e:	a0 ea       	ldi	r26, 0xA0	; 160
    1250:	b1 e4       	ldi	r27, 0x41	; 65
    1252:	f9 01       	movw	r30, r18
    1254:	80 83       	st	Z, r24
    1256:	91 83       	std	Z+1, r25	; 0x01
    1258:	a2 83       	std	Z+2, r26	; 0x02
    125a:	b3 83       	std	Z+3, r27	; 0x03

0000125c <.LBB114>:
	__tmp = ((F_CPU) / 4e3) * __ms;
    125c:	8e 01       	movw	r16, r28
    125e:	03 5b       	subi	r16, 0xB3	; 179
    1260:	1f 4f       	sbci	r17, 0xFF	; 255
    1262:	ce 01       	movw	r24, r28
    1264:	87 5b       	subi	r24, 0xB7	; 183
    1266:	9f 4f       	sbci	r25, 0xFF	; 255
    1268:	20 e0       	ldi	r18, 0x00	; 0
    126a:	30 e0       	ldi	r19, 0x00	; 0
    126c:	4a e7       	ldi	r20, 0x7A	; 122
    126e:	55 e4       	ldi	r21, 0x45	; 69
    1270:	dc 01       	movw	r26, r24
    1272:	6d 91       	ld	r22, X+
    1274:	7d 91       	ld	r23, X+
    1276:	8d 91       	ld	r24, X+
    1278:	9c 91       	ld	r25, X
    127a:	0e 94 91 16 	call	0x2d22	; 0x2d22 <__mulsf3>
    127e:	c3 5c       	subi	r28, 0xC3	; 195
    1280:	de 4f       	sbci	r29, 0xFE	; 254
    1282:	68 83       	st	Y, r22
    1284:	79 83       	std	Y+1, r23	; 0x01
    1286:	8a 83       	std	Y+2, r24	; 0x02
    1288:	9b 83       	std	Y+3, r25	; 0x03
    128a:	cd 53       	subi	r28, 0x3D	; 61
    128c:	d1 40       	sbci	r29, 0x01	; 1
    128e:	c3 5c       	subi	r28, 0xC3	; 195
    1290:	de 4f       	sbci	r29, 0xFE	; 254
    1292:	88 81       	ld	r24, Y
    1294:	99 81       	ldd	r25, Y+1	; 0x01
    1296:	aa 81       	ldd	r26, Y+2	; 0x02
    1298:	bb 81       	ldd	r27, Y+3	; 0x03
    129a:	cd 53       	subi	r28, 0x3D	; 61
    129c:	d1 40       	sbci	r29, 0x01	; 1
    129e:	f8 01       	movw	r30, r16
    12a0:	80 83       	st	Z, r24
    12a2:	91 83       	std	Z+1, r25	; 0x01
    12a4:	a2 83       	std	Z+2, r26	; 0x02
    12a6:	b3 83       	std	Z+3, r27	; 0x03

000012a8 <.Loc.202>:
	if (__tmp < 1.0)
    12a8:	ce 01       	movw	r24, r28
    12aa:	83 5b       	subi	r24, 0xB3	; 179
    12ac:	9f 4f       	sbci	r25, 0xFF	; 255
    12ae:	20 e0       	ldi	r18, 0x00	; 0
    12b0:	30 e0       	ldi	r19, 0x00	; 0
    12b2:	40 e8       	ldi	r20, 0x80	; 128
    12b4:	5f e3       	ldi	r21, 0x3F	; 63
    12b6:	dc 01       	movw	r26, r24
    12b8:	6d 91       	ld	r22, X+
    12ba:	7d 91       	ld	r23, X+
    12bc:	8d 91       	ld	r24, X+
    12be:	9c 91       	ld	r25, X
    12c0:	0e 94 a6 15 	call	0x2b4c	; 0x2b4c <__cmpsf2>
    12c4:	88 23       	and	r24, r24
    12c6:	4c f4       	brge	.+18     	; 0x12da <.L184>

000012c8 <.Loc.203>:
		__ticks = 1;
    12c8:	ce 01       	movw	r24, r28
    12ca:	8f 5a       	subi	r24, 0xAF	; 175
    12cc:	9f 4f       	sbci	r25, 0xFF	; 255
    12ce:	21 e0       	ldi	r18, 0x01	; 1
    12d0:	30 e0       	ldi	r19, 0x00	; 0
    12d2:	fc 01       	movw	r30, r24
    12d4:	31 83       	std	Z+1, r19	; 0x01
    12d6:	20 83       	st	Z, r18
    12d8:	a5 c0       	rjmp	.+330    	; 0x1424 <.L78>

000012da <.L184>:
	else if (__tmp > 65535)
    12da:	ce 01       	movw	r24, r28
    12dc:	83 5b       	subi	r24, 0xB3	; 179
    12de:	9f 4f       	sbci	r25, 0xFF	; 255
    12e0:	20 e0       	ldi	r18, 0x00	; 0
    12e2:	3f ef       	ldi	r19, 0xFF	; 255
    12e4:	4f e7       	ldi	r20, 0x7F	; 127
    12e6:	57 e4       	ldi	r21, 0x47	; 71
    12e8:	dc 01       	movw	r26, r24
    12ea:	6d 91       	ld	r22, X+
    12ec:	7d 91       	ld	r23, X+
    12ee:	8d 91       	ld	r24, X+
    12f0:	9c 91       	ld	r25, X
    12f2:	0e 94 8c 16 	call	0x2d18	; 0x2d18 <__gesf2>
    12f6:	88 23       	and	r24, r24
    12f8:	09 f0       	breq	.+2      	; 0x12fc <L0^A>

000012fa <L0^A>:
    12fa:	0c f4       	brge	.+2      	; 0x12fe <.Loc.205>

000012fc <L0^A>:
    12fc:	75 c0       	rjmp	.+234    	; 0x13e8 <.L185>

000012fe <.Loc.205>:
		__ticks = (uint16_t) (__ms * 10.0);
    12fe:	ce 01       	movw	r24, r28
    1300:	87 5b       	subi	r24, 0xB7	; 183
    1302:	9f 4f       	sbci	r25, 0xFF	; 255
    1304:	20 e0       	ldi	r18, 0x00	; 0
    1306:	30 e0       	ldi	r19, 0x00	; 0
    1308:	40 e2       	ldi	r20, 0x20	; 32
    130a:	51 e4       	ldi	r21, 0x41	; 65
    130c:	fc 01       	movw	r30, r24
    130e:	60 81       	ld	r22, Z
    1310:	71 81       	ldd	r23, Z+1	; 0x01
    1312:	82 81       	ldd	r24, Z+2	; 0x02
    1314:	93 81       	ldd	r25, Z+3	; 0x03
    1316:	0e 94 91 16 	call	0x2d22	; 0x2d22 <__mulsf3>
    131a:	cf 5b       	subi	r28, 0xBF	; 191
    131c:	de 4f       	sbci	r29, 0xFE	; 254
    131e:	68 83       	st	Y, r22
    1320:	79 83       	std	Y+1, r23	; 0x01
    1322:	8a 83       	std	Y+2, r24	; 0x02
    1324:	9b 83       	std	Y+3, r25	; 0x03
    1326:	c1 54       	subi	r28, 0x41	; 65
    1328:	d1 40       	sbci	r29, 0x01	; 1
    132a:	cf 5b       	subi	r28, 0xBF	; 191
    132c:	de 4f       	sbci	r29, 0xFE	; 254
    132e:	88 81       	ld	r24, Y
    1330:	99 81       	ldd	r25, Y+1	; 0x01
    1332:	aa 81       	ldd	r26, Y+2	; 0x02
    1334:	bb 81       	ldd	r27, Y+3	; 0x03
    1336:	c1 54       	subi	r28, 0x41	; 65
    1338:	d1 40       	sbci	r29, 0x01	; 1
    133a:	c3 53       	subi	r28, 0x33	; 51
    133c:	df 4f       	sbci	r29, 0xFF	; 255
    133e:	88 83       	st	Y, r24
    1340:	99 83       	std	Y+1, r25	; 0x01
    1342:	aa 83       	std	Y+2, r26	; 0x02
    1344:	bb 83       	std	Y+3, r27	; 0x03
    1346:	cd 5c       	subi	r28, 0xCD	; 205
    1348:	d0 40       	sbci	r29, 0x00	; 0

0000134a <.Loc.206>:
    134a:	8e 01       	movw	r16, r28
    134c:	0f 5a       	subi	r16, 0xAF	; 175
    134e:	1f 4f       	sbci	r17, 0xFF	; 255
    1350:	c3 53       	subi	r28, 0x33	; 51
    1352:	df 4f       	sbci	r29, 0xFF	; 255
    1354:	68 81       	ld	r22, Y
    1356:	79 81       	ldd	r23, Y+1	; 0x01
    1358:	8a 81       	ldd	r24, Y+2	; 0x02
    135a:	9b 81       	ldd	r25, Y+3	; 0x03
    135c:	cd 5c       	subi	r28, 0xCD	; 205
    135e:	d0 40       	sbci	r29, 0x00	; 0
    1360:	0e 94 ab 15 	call	0x2b56	; 0x2b56 <__fixunssfsi>
    1364:	cb 5b       	subi	r28, 0xBB	; 187
    1366:	de 4f       	sbci	r29, 0xFE	; 254
    1368:	68 83       	st	Y, r22
    136a:	79 83       	std	Y+1, r23	; 0x01
    136c:	8a 83       	std	Y+2, r24	; 0x02
    136e:	9b 83       	std	Y+3, r25	; 0x03
    1370:	c5 54       	subi	r28, 0x45	; 69
    1372:	d1 40       	sbci	r29, 0x01	; 1
    1374:	cb 5b       	subi	r28, 0xBB	; 187
    1376:	de 4f       	sbci	r29, 0xFE	; 254
    1378:	e8 81       	ld	r30, Y
    137a:	f9 81       	ldd	r31, Y+1	; 0x01
    137c:	c5 54       	subi	r28, 0x45	; 69
    137e:	d1 40       	sbci	r29, 0x01	; 1
    1380:	d8 01       	movw	r26, r16
    1382:	11 96       	adiw	r26, 0x01	; 1
    1384:	fc 93       	st	X, r31
    1386:	ee 93       	st	-X, r30

00001388 <.Loc.207>:
		while(__ticks)
    1388:	26 c0       	rjmp	.+76     	; 0x13d6 <.L81>

0000138a <.L82>:
    138a:	ce 01       	movw	r24, r28
    138c:	8d 5a       	subi	r24, 0xAD	; 173
    138e:	9f 4f       	sbci	r25, 0xFF	; 255
    1390:	20 e9       	ldi	r18, 0x90	; 144
    1392:	31 e0       	ldi	r19, 0x01	; 1
    1394:	dc 01       	movw	r26, r24
    1396:	2d 93       	st	X+, r18
    1398:	3c 93       	st	X, r19

0000139a <.LBB116>:
    139a:	ce 01       	movw	r24, r28
    139c:	8d 5a       	subi	r24, 0xAD	; 173
    139e:	9f 4f       	sbci	r25, 0xFF	; 255
    13a0:	fc 01       	movw	r30, r24
    13a2:	80 81       	ld	r24, Z
    13a4:	91 81       	ldd	r25, Z+1	; 0x01

000013a6 <.L1^B11>:
    13a6:	01 97       	sbiw	r24, 0x01	; 1
    13a8:	f1 f7       	brne	.-4      	; 0x13a6 <.L1^B11>
    13aa:	9e 01       	movw	r18, r28
    13ac:	2d 5a       	subi	r18, 0xAD	; 173
    13ae:	3f 4f       	sbci	r19, 0xFF	; 255
    13b0:	d9 01       	movw	r26, r18
    13b2:	8d 93       	st	X+, r24
    13b4:	9c 93       	st	X, r25

000013b6 <.Loc.209>:
	...

000013b8 <.LBE116>:
			__ticks --;
    13b8:	ce 01       	movw	r24, r28
    13ba:	8f 5a       	subi	r24, 0xAF	; 175
    13bc:	9f 4f       	sbci	r25, 0xFF	; 255
    13be:	9e 01       	movw	r18, r28
    13c0:	2f 5a       	subi	r18, 0xAF	; 175
    13c2:	3f 4f       	sbci	r19, 0xFF	; 255
    13c4:	f9 01       	movw	r30, r18
    13c6:	20 81       	ld	r18, Z
    13c8:	31 81       	ldd	r19, Z+1	; 0x01
    13ca:	21 50       	subi	r18, 0x01	; 1
    13cc:	31 09       	sbc	r19, r1
    13ce:	dc 01       	movw	r26, r24
    13d0:	11 96       	adiw	r26, 0x01	; 1
    13d2:	3c 93       	st	X, r19
    13d4:	2e 93       	st	-X, r18

000013d6 <.L81>:
		while(__ticks)
    13d6:	ce 01       	movw	r24, r28
    13d8:	8f 5a       	subi	r24, 0xAF	; 175
    13da:	9f 4f       	sbci	r25, 0xFF	; 255
    13dc:	fc 01       	movw	r30, r24
    13de:	80 81       	ld	r24, Z
    13e0:	91 81       	ldd	r25, Z+1	; 0x01
    13e2:	00 97       	sbiw	r24, 0x00	; 0
    13e4:	91 f6       	brne	.-92     	; 0x138a <.L82>

000013e6 <.Loc.212>:
		return;
    13e6:	3a c0       	rjmp	.+116    	; 0x145c <.L83>

000013e8 <.L185>:
		__ticks = (uint16_t)__tmp;
    13e8:	8e 01       	movw	r16, r28
    13ea:	0f 5a       	subi	r16, 0xAF	; 175
    13ec:	1f 4f       	sbci	r17, 0xFF	; 255
    13ee:	ce 01       	movw	r24, r28
    13f0:	83 5b       	subi	r24, 0xB3	; 179
    13f2:	9f 4f       	sbci	r25, 0xFF	; 255
    13f4:	dc 01       	movw	r26, r24
    13f6:	6d 91       	ld	r22, X+
    13f8:	7d 91       	ld	r23, X+
    13fa:	8d 91       	ld	r24, X+
    13fc:	9c 91       	ld	r25, X
    13fe:	0e 94 ab 15 	call	0x2b56	; 0x2b56 <__fixunssfsi>
    1402:	c7 5b       	subi	r28, 0xB7	; 183
    1404:	de 4f       	sbci	r29, 0xFE	; 254
    1406:	68 83       	st	Y, r22
    1408:	79 83       	std	Y+1, r23	; 0x01
    140a:	8a 83       	std	Y+2, r24	; 0x02
    140c:	9b 83       	std	Y+3, r25	; 0x03
    140e:	c9 54       	subi	r28, 0x49	; 73
    1410:	d1 40       	sbci	r29, 0x01	; 1
    1412:	c7 5b       	subi	r28, 0xB7	; 183
    1414:	de 4f       	sbci	r29, 0xFE	; 254
    1416:	88 81       	ld	r24, Y
    1418:	99 81       	ldd	r25, Y+1	; 0x01
    141a:	c9 54       	subi	r28, 0x49	; 73
    141c:	d1 40       	sbci	r29, 0x01	; 1
    141e:	f8 01       	movw	r30, r16
    1420:	91 83       	std	Z+1, r25	; 0x01
    1422:	80 83       	st	Z, r24

00001424 <.L78>:
    1424:	ce 01       	movw	r24, r28
    1426:	8b 5a       	subi	r24, 0xAB	; 171
    1428:	9f 4f       	sbci	r25, 0xFF	; 255
    142a:	9e 01       	movw	r18, r28
    142c:	2f 5a       	subi	r18, 0xAF	; 175
    142e:	3f 4f       	sbci	r19, 0xFF	; 255
    1430:	d9 01       	movw	r26, r18
    1432:	2d 91       	ld	r18, X+
    1434:	3c 91       	ld	r19, X
    1436:	fc 01       	movw	r30, r24
    1438:	31 83       	std	Z+1, r19	; 0x01
    143a:	20 83       	st	Z, r18

0000143c <.LBB118>:
    143c:	ce 01       	movw	r24, r28
    143e:	8b 5a       	subi	r24, 0xAB	; 171
    1440:	9f 4f       	sbci	r25, 0xFF	; 255
    1442:	dc 01       	movw	r26, r24
    1444:	8d 91       	ld	r24, X+
    1446:	9c 91       	ld	r25, X
    1448:	11 97       	sbiw	r26, 0x01	; 1

0000144a <.L1^B12>:
    144a:	01 97       	sbiw	r24, 0x01	; 1
    144c:	f1 f7       	brne	.-4      	; 0x144a <.L1^B12>
    144e:	9e 01       	movw	r18, r28
    1450:	2b 5a       	subi	r18, 0xAB	; 171
    1452:	3f 4f       	sbci	r19, 0xFF	; 255
    1454:	f9 01       	movw	r30, r18
    1456:	91 83       	std	Z+1, r25	; 0x01
    1458:	80 83       	st	Z, r24

0000145a <.Loc.215>:
	...

0000145c <.L83>:
            {
                DEBOUNCE;
                status = 4;
    145c:	84 e0       	ldi	r24, 0x04	; 4
    145e:	90 e0       	ldi	r25, 0x00	; 0
    1460:	9a 83       	std	Y+2, r25	; 0x02
    1462:	89 83       	std	Y+1, r24	; 0x01

00001464 <.Loc.217>:
                break;
    1464:	0c 94 56 12 	jmp	0x24ac	; 0x24ac <.L31>

00001468 <.L44>:
            }
            break;

            //Opbouwen
        case 3:
            servo1_set_percentage(50);
    1468:	82 e3       	ldi	r24, 0x32	; 50
    146a:	0e 94 c6 13 	call	0x278c	; 0x278c <servo1_set_percentage>

0000146e <.Loc.219>:
            servo2_set_percentage(50);
    146e:	82 e3       	ldi	r24, 0x32	; 50
    1470:	0e 94 3a 14 	call	0x2874	; 0x2874 <servo2_set_percentage>

00001474 <.Loc.220>:
            status = 5;
    1474:	85 e0       	ldi	r24, 0x05	; 5
    1476:	90 e0       	ldi	r25, 0x00	; 0
    1478:	9a 83       	std	Y+2, r25	; 0x02
    147a:	89 83       	std	Y+1, r24	; 0x01

0000147c <.Loc.221>:
            break;
    147c:	0c 94 56 12 	jmp	0x24ac	; 0x24ac <.L31>

00001480 <.L42>:
        case 5:
            if (!(PINA & (1<<top_switch)))
    1480:	80 e2       	ldi	r24, 0x20	; 32
    1482:	90 e0       	ldi	r25, 0x00	; 0
    1484:	dc 01       	movw	r26, r24
    1486:	8c 91       	ld	r24, X

00001488 <.Loc.223>:
    1488:	88 2f       	mov	r24, r24
    148a:	90 e0       	ldi	r25, 0x00	; 0
    148c:	82 70       	andi	r24, 0x02	; 2
    148e:	99 27       	eor	r25, r25

00001490 <.Loc.224>:
    1490:	00 97       	sbiw	r24, 0x00	; 0
    1492:	09 f0       	breq	.+2      	; 0x1496 <L0^A+0x2>

00001494 <L0^A>:
    1494:	13 c1       	rjmp	.+550    	; 0x16bc <.L84>
    1496:	9e 01       	movw	r18, r28
    1498:	29 5a       	subi	r18, 0xA9	; 169
    149a:	3f 4f       	sbci	r19, 0xFF	; 255
    149c:	80 e0       	ldi	r24, 0x00	; 0
    149e:	90 e0       	ldi	r25, 0x00	; 0
    14a0:	a0 ea       	ldi	r26, 0xA0	; 160
    14a2:	b1 e4       	ldi	r27, 0x41	; 65
    14a4:	f9 01       	movw	r30, r18
    14a6:	80 83       	st	Z, r24
    14a8:	91 83       	std	Z+1, r25	; 0x01
    14aa:	a2 83       	std	Z+2, r26	; 0x02
    14ac:	b3 83       	std	Z+3, r27	; 0x03

000014ae <.LBB120>:
	__tmp = ((F_CPU) / 4e3) * __ms;
    14ae:	8e 01       	movw	r16, r28
    14b0:	05 5a       	subi	r16, 0xA5	; 165
    14b2:	1f 4f       	sbci	r17, 0xFF	; 255
    14b4:	ce 01       	movw	r24, r28
    14b6:	89 5a       	subi	r24, 0xA9	; 169
    14b8:	9f 4f       	sbci	r25, 0xFF	; 255
    14ba:	20 e0       	ldi	r18, 0x00	; 0
    14bc:	30 e0       	ldi	r19, 0x00	; 0
    14be:	4a e7       	ldi	r20, 0x7A	; 122
    14c0:	55 e4       	ldi	r21, 0x45	; 69
    14c2:	dc 01       	movw	r26, r24
    14c4:	6d 91       	ld	r22, X+
    14c6:	7d 91       	ld	r23, X+
    14c8:	8d 91       	ld	r24, X+
    14ca:	9c 91       	ld	r25, X
    14cc:	0e 94 91 16 	call	0x2d22	; 0x2d22 <__mulsf3>
    14d0:	c3 5b       	subi	r28, 0xB3	; 179
    14d2:	de 4f       	sbci	r29, 0xFE	; 254
    14d4:	68 83       	st	Y, r22
    14d6:	79 83       	std	Y+1, r23	; 0x01
    14d8:	8a 83       	std	Y+2, r24	; 0x02
    14da:	9b 83       	std	Y+3, r25	; 0x03
    14dc:	cd 54       	subi	r28, 0x4D	; 77
    14de:	d1 40       	sbci	r29, 0x01	; 1
    14e0:	c3 5b       	subi	r28, 0xB3	; 179
    14e2:	de 4f       	sbci	r29, 0xFE	; 254
    14e4:	88 81       	ld	r24, Y
    14e6:	99 81       	ldd	r25, Y+1	; 0x01
    14e8:	aa 81       	ldd	r26, Y+2	; 0x02
    14ea:	bb 81       	ldd	r27, Y+3	; 0x03
    14ec:	cd 54       	subi	r28, 0x4D	; 77
    14ee:	d1 40       	sbci	r29, 0x01	; 1
    14f0:	f8 01       	movw	r30, r16
    14f2:	80 83       	st	Z, r24
    14f4:	91 83       	std	Z+1, r25	; 0x01
    14f6:	a2 83       	std	Z+2, r26	; 0x02
    14f8:	b3 83       	std	Z+3, r27	; 0x03

000014fa <.Loc.226>:
	if (__tmp < 1.0)
    14fa:	ce 01       	movw	r24, r28
    14fc:	85 5a       	subi	r24, 0xA5	; 165
    14fe:	9f 4f       	sbci	r25, 0xFF	; 255
    1500:	20 e0       	ldi	r18, 0x00	; 0
    1502:	30 e0       	ldi	r19, 0x00	; 0
    1504:	40 e8       	ldi	r20, 0x80	; 128
    1506:	5f e3       	ldi	r21, 0x3F	; 63
    1508:	dc 01       	movw	r26, r24
    150a:	6d 91       	ld	r22, X+
    150c:	7d 91       	ld	r23, X+
    150e:	8d 91       	ld	r24, X+
    1510:	9c 91       	ld	r25, X
    1512:	0e 94 a6 15 	call	0x2b4c	; 0x2b4c <__cmpsf2>
    1516:	88 23       	and	r24, r24
    1518:	4c f4       	brge	.+18     	; 0x152c <.L186>

0000151a <.Loc.227>:
		__ticks = 1;
    151a:	ce 01       	movw	r24, r28
    151c:	81 5a       	subi	r24, 0xA1	; 161
    151e:	9f 4f       	sbci	r25, 0xFF	; 255
    1520:	21 e0       	ldi	r18, 0x01	; 1
    1522:	30 e0       	ldi	r19, 0x00	; 0
    1524:	fc 01       	movw	r30, r24
    1526:	31 83       	std	Z+1, r19	; 0x01
    1528:	20 83       	st	Z, r18
    152a:	a5 c0       	rjmp	.+330    	; 0x1676 <.L87>

0000152c <.L186>:
	else if (__tmp > 65535)
    152c:	ce 01       	movw	r24, r28
    152e:	85 5a       	subi	r24, 0xA5	; 165
    1530:	9f 4f       	sbci	r25, 0xFF	; 255
    1532:	20 e0       	ldi	r18, 0x00	; 0
    1534:	3f ef       	ldi	r19, 0xFF	; 255
    1536:	4f e7       	ldi	r20, 0x7F	; 127
    1538:	57 e4       	ldi	r21, 0x47	; 71
    153a:	dc 01       	movw	r26, r24
    153c:	6d 91       	ld	r22, X+
    153e:	7d 91       	ld	r23, X+
    1540:	8d 91       	ld	r24, X+
    1542:	9c 91       	ld	r25, X
    1544:	0e 94 8c 16 	call	0x2d18	; 0x2d18 <__gesf2>
    1548:	88 23       	and	r24, r24
    154a:	09 f0       	breq	.+2      	; 0x154e <L0^A>

0000154c <L0^A>:
    154c:	0c f4       	brge	.+2      	; 0x1550 <.Loc.229>

0000154e <L0^A>:
    154e:	75 c0       	rjmp	.+234    	; 0x163a <.L187>

00001550 <.Loc.229>:
		__ticks = (uint16_t) (__ms * 10.0);
    1550:	ce 01       	movw	r24, r28
    1552:	89 5a       	subi	r24, 0xA9	; 169
    1554:	9f 4f       	sbci	r25, 0xFF	; 255
    1556:	20 e0       	ldi	r18, 0x00	; 0
    1558:	30 e0       	ldi	r19, 0x00	; 0
    155a:	40 e2       	ldi	r20, 0x20	; 32
    155c:	51 e4       	ldi	r21, 0x41	; 65
    155e:	fc 01       	movw	r30, r24
    1560:	60 81       	ld	r22, Z
    1562:	71 81       	ldd	r23, Z+1	; 0x01
    1564:	82 81       	ldd	r24, Z+2	; 0x02
    1566:	93 81       	ldd	r25, Z+3	; 0x03
    1568:	0e 94 91 16 	call	0x2d22	; 0x2d22 <__mulsf3>
    156c:	cf 5a       	subi	r28, 0xAF	; 175
    156e:	de 4f       	sbci	r29, 0xFE	; 254
    1570:	68 83       	st	Y, r22
    1572:	79 83       	std	Y+1, r23	; 0x01
    1574:	8a 83       	std	Y+2, r24	; 0x02
    1576:	9b 83       	std	Y+3, r25	; 0x03
    1578:	c1 55       	subi	r28, 0x51	; 81
    157a:	d1 40       	sbci	r29, 0x01	; 1
    157c:	cf 5a       	subi	r28, 0xAF	; 175
    157e:	de 4f       	sbci	r29, 0xFE	; 254
    1580:	88 81       	ld	r24, Y
    1582:	99 81       	ldd	r25, Y+1	; 0x01
    1584:	aa 81       	ldd	r26, Y+2	; 0x02
    1586:	bb 81       	ldd	r27, Y+3	; 0x03
    1588:	c1 55       	subi	r28, 0x51	; 81
    158a:	d1 40       	sbci	r29, 0x01	; 1
    158c:	cf 52       	subi	r28, 0x2F	; 47
    158e:	df 4f       	sbci	r29, 0xFF	; 255
    1590:	88 83       	st	Y, r24
    1592:	99 83       	std	Y+1, r25	; 0x01
    1594:	aa 83       	std	Y+2, r26	; 0x02
    1596:	bb 83       	std	Y+3, r27	; 0x03
    1598:	c1 5d       	subi	r28, 0xD1	; 209
    159a:	d0 40       	sbci	r29, 0x00	; 0

0000159c <.Loc.230>:
    159c:	8e 01       	movw	r16, r28
    159e:	01 5a       	subi	r16, 0xA1	; 161
    15a0:	1f 4f       	sbci	r17, 0xFF	; 255
    15a2:	cf 52       	subi	r28, 0x2F	; 47
    15a4:	df 4f       	sbci	r29, 0xFF	; 255
    15a6:	68 81       	ld	r22, Y
    15a8:	79 81       	ldd	r23, Y+1	; 0x01
    15aa:	8a 81       	ldd	r24, Y+2	; 0x02
    15ac:	9b 81       	ldd	r25, Y+3	; 0x03
    15ae:	c1 5d       	subi	r28, 0xD1	; 209
    15b0:	d0 40       	sbci	r29, 0x00	; 0
    15b2:	0e 94 ab 15 	call	0x2b56	; 0x2b56 <__fixunssfsi>
    15b6:	cb 5a       	subi	r28, 0xAB	; 171
    15b8:	de 4f       	sbci	r29, 0xFE	; 254
    15ba:	68 83       	st	Y, r22
    15bc:	79 83       	std	Y+1, r23	; 0x01
    15be:	8a 83       	std	Y+2, r24	; 0x02
    15c0:	9b 83       	std	Y+3, r25	; 0x03
    15c2:	c5 55       	subi	r28, 0x55	; 85
    15c4:	d1 40       	sbci	r29, 0x01	; 1
    15c6:	cb 5a       	subi	r28, 0xAB	; 171
    15c8:	de 4f       	sbci	r29, 0xFE	; 254
    15ca:	e8 81       	ld	r30, Y
    15cc:	f9 81       	ldd	r31, Y+1	; 0x01
    15ce:	c5 55       	subi	r28, 0x55	; 85
    15d0:	d1 40       	sbci	r29, 0x01	; 1
    15d2:	d8 01       	movw	r26, r16
    15d4:	11 96       	adiw	r26, 0x01	; 1
    15d6:	fc 93       	st	X, r31
    15d8:	ee 93       	st	-X, r30

000015da <.Loc.231>:
		while(__ticks)
    15da:	26 c0       	rjmp	.+76     	; 0x1628 <.L90>

000015dc <.L91>:
    15dc:	ce 01       	movw	r24, r28
    15de:	8f 59       	subi	r24, 0x9F	; 159
    15e0:	9f 4f       	sbci	r25, 0xFF	; 255
    15e2:	20 e9       	ldi	r18, 0x90	; 144
    15e4:	31 e0       	ldi	r19, 0x01	; 1
    15e6:	dc 01       	movw	r26, r24
    15e8:	2d 93       	st	X+, r18
    15ea:	3c 93       	st	X, r19

000015ec <.LBB122>:
    15ec:	ce 01       	movw	r24, r28
    15ee:	8f 59       	subi	r24, 0x9F	; 159
    15f0:	9f 4f       	sbci	r25, 0xFF	; 255
    15f2:	fc 01       	movw	r30, r24
    15f4:	80 81       	ld	r24, Z
    15f6:	91 81       	ldd	r25, Z+1	; 0x01

000015f8 <.L1^B13>:
    15f8:	01 97       	sbiw	r24, 0x01	; 1
    15fa:	f1 f7       	brne	.-4      	; 0x15f8 <.L1^B13>
    15fc:	9e 01       	movw	r18, r28
    15fe:	2f 59       	subi	r18, 0x9F	; 159
    1600:	3f 4f       	sbci	r19, 0xFF	; 255
    1602:	d9 01       	movw	r26, r18
    1604:	8d 93       	st	X+, r24
    1606:	9c 93       	st	X, r25

00001608 <.Loc.233>:
	...

0000160a <.LBE122>:
			__ticks --;
    160a:	ce 01       	movw	r24, r28
    160c:	81 5a       	subi	r24, 0xA1	; 161
    160e:	9f 4f       	sbci	r25, 0xFF	; 255
    1610:	9e 01       	movw	r18, r28
    1612:	21 5a       	subi	r18, 0xA1	; 161
    1614:	3f 4f       	sbci	r19, 0xFF	; 255
    1616:	f9 01       	movw	r30, r18
    1618:	20 81       	ld	r18, Z
    161a:	31 81       	ldd	r19, Z+1	; 0x01
    161c:	21 50       	subi	r18, 0x01	; 1
    161e:	31 09       	sbc	r19, r1
    1620:	dc 01       	movw	r26, r24
    1622:	11 96       	adiw	r26, 0x01	; 1
    1624:	3c 93       	st	X, r19
    1626:	2e 93       	st	-X, r18

00001628 <.L90>:
		while(__ticks)
    1628:	ce 01       	movw	r24, r28
    162a:	81 5a       	subi	r24, 0xA1	; 161
    162c:	9f 4f       	sbci	r25, 0xFF	; 255
    162e:	fc 01       	movw	r30, r24
    1630:	80 81       	ld	r24, Z
    1632:	91 81       	ldd	r25, Z+1	; 0x01
    1634:	00 97       	sbiw	r24, 0x00	; 0
    1636:	91 f6       	brne	.-92     	; 0x15dc <.L91>

00001638 <.Loc.236>:
		return;
    1638:	39 c0       	rjmp	.+114    	; 0x16ac <.L92>

0000163a <.L187>:
		__ticks = (uint16_t)__tmp;
    163a:	8e 01       	movw	r16, r28
    163c:	01 5a       	subi	r16, 0xA1	; 161
    163e:	1f 4f       	sbci	r17, 0xFF	; 255
    1640:	ce 01       	movw	r24, r28
    1642:	85 5a       	subi	r24, 0xA5	; 165
    1644:	9f 4f       	sbci	r25, 0xFF	; 255
    1646:	dc 01       	movw	r26, r24
    1648:	6d 91       	ld	r22, X+
    164a:	7d 91       	ld	r23, X+
    164c:	8d 91       	ld	r24, X+
    164e:	9c 91       	ld	r25, X
    1650:	0e 94 ab 15 	call	0x2b56	; 0x2b56 <__fixunssfsi>
    1654:	c7 5a       	subi	r28, 0xA7	; 167
    1656:	de 4f       	sbci	r29, 0xFE	; 254
    1658:	68 83       	st	Y, r22
    165a:	79 83       	std	Y+1, r23	; 0x01
    165c:	8a 83       	std	Y+2, r24	; 0x02
    165e:	9b 83       	std	Y+3, r25	; 0x03
    1660:	c9 55       	subi	r28, 0x59	; 89
    1662:	d1 40       	sbci	r29, 0x01	; 1
    1664:	c7 5a       	subi	r28, 0xA7	; 167
    1666:	de 4f       	sbci	r29, 0xFE	; 254
    1668:	88 81       	ld	r24, Y
    166a:	99 81       	ldd	r25, Y+1	; 0x01
    166c:	c9 55       	subi	r28, 0x59	; 89
    166e:	d1 40       	sbci	r29, 0x01	; 1
    1670:	f8 01       	movw	r30, r16
    1672:	91 83       	std	Z+1, r25	; 0x01
    1674:	80 83       	st	Z, r24

00001676 <.L87>:
    1676:	ce 01       	movw	r24, r28
    1678:	8d 59       	subi	r24, 0x9D	; 157
    167a:	9f 4f       	sbci	r25, 0xFF	; 255
    167c:	9e 01       	movw	r18, r28
    167e:	21 5a       	subi	r18, 0xA1	; 161
    1680:	3f 4f       	sbci	r19, 0xFF	; 255
    1682:	d9 01       	movw	r26, r18
    1684:	2d 91       	ld	r18, X+
    1686:	3c 91       	ld	r19, X
    1688:	fc 01       	movw	r30, r24
    168a:	31 83       	std	Z+1, r19	; 0x01
    168c:	20 83       	st	Z, r18

0000168e <.LBB124>:
    168e:	ce 01       	movw	r24, r28
    1690:	8d 59       	subi	r24, 0x9D	; 157
    1692:	9f 4f       	sbci	r25, 0xFF	; 255
    1694:	dc 01       	movw	r26, r24
    1696:	8d 91       	ld	r24, X+
    1698:	9c 91       	ld	r25, X

0000169a <.L1^B14>:
    169a:	01 97       	sbiw	r24, 0x01	; 1
    169c:	f1 f7       	brne	.-4      	; 0x169a <.L1^B14>
    169e:	9e 01       	movw	r18, r28
    16a0:	2d 59       	subi	r18, 0x9D	; 157
    16a2:	3f 4f       	sbci	r19, 0xFF	; 255
    16a4:	f9 01       	movw	r30, r18
    16a6:	91 83       	std	Z+1, r25	; 0x01
    16a8:	80 83       	st	Z, r24

000016aa <.Loc.239>:
	...

000016ac <.L92>:
            {
                DEBOUNCE;
                h_bridge_set_percentage(0);
    16ac:	80 e0       	ldi	r24, 0x00	; 0
    16ae:	0e 94 c3 02 	call	0x586	; 0x586 <h_bridge_set_percentage>

000016b2 <.Loc.241>:
                status = 7;
    16b2:	87 e0       	ldi	r24, 0x07	; 7
    16b4:	90 e0       	ldi	r25, 0x00	; 0
    16b6:	9a 83       	std	Y+2, r25	; 0x02
    16b8:	89 83       	std	Y+1, r24	; 0x01

000016ba <.Loc.242>:
                break;
    16ba:	f8 c6       	rjmp	.+3568   	; 0x24ac <.L31>

000016bc <.L84>:
            }
            h_bridge_set_percentage(70);
    16bc:	86 e4       	ldi	r24, 0x46	; 70
    16be:	0e 94 c3 02 	call	0x586	; 0x586 <h_bridge_set_percentage>

000016c2 <.Loc.244>:
            h_bridge_set_percentage2(70);
    16c2:	86 e4       	ldi	r24, 0x46	; 70
    16c4:	0e 94 0d 03 	call	0x61a	; 0x61a <h_bridge_set_percentage2>

000016c8 <.Loc.245>:
            break;
    16c8:	f1 c6       	rjmp	.+3554   	; 0x24ac <.L31>

000016ca <.L40>:
        case 7:
            if(!(PINF & (1<<volgende_steiger)))
    16ca:	8f e2       	ldi	r24, 0x2F	; 47
    16cc:	90 e0       	ldi	r25, 0x00	; 0
    16ce:	dc 01       	movw	r26, r24
    16d0:	8c 91       	ld	r24, X

000016d2 <.Loc.247>:
    16d2:	88 2f       	mov	r24, r24
    16d4:	90 e0       	ldi	r25, 0x00	; 0
    16d6:	84 70       	andi	r24, 0x04	; 4
    16d8:	99 27       	eor	r25, r25

000016da <.Loc.248>:
    16da:	00 97       	sbiw	r24, 0x00	; 0
    16dc:	09 f0       	breq	.+2      	; 0x16e0 <L0^A+0x2>

000016de <L0^A>:
    16de:	e5 c6       	rjmp	.+3530   	; 0x24aa <.L203>
    16e0:	9e 01       	movw	r18, r28
    16e2:	2b 59       	subi	r18, 0x9B	; 155
    16e4:	3f 4f       	sbci	r19, 0xFF	; 255
    16e6:	80 e0       	ldi	r24, 0x00	; 0
    16e8:	90 e0       	ldi	r25, 0x00	; 0
    16ea:	a0 ea       	ldi	r26, 0xA0	; 160
    16ec:	b1 e4       	ldi	r27, 0x41	; 65
    16ee:	f9 01       	movw	r30, r18
    16f0:	80 83       	st	Z, r24
    16f2:	91 83       	std	Z+1, r25	; 0x01
    16f4:	a2 83       	std	Z+2, r26	; 0x02
    16f6:	b3 83       	std	Z+3, r27	; 0x03

000016f8 <.LBB126>:
	__tmp = ((F_CPU) / 4e3) * __ms;
    16f8:	8e 01       	movw	r16, r28
    16fa:	07 59       	subi	r16, 0x97	; 151
    16fc:	1f 4f       	sbci	r17, 0xFF	; 255
    16fe:	ce 01       	movw	r24, r28
    1700:	8b 59       	subi	r24, 0x9B	; 155
    1702:	9f 4f       	sbci	r25, 0xFF	; 255
    1704:	20 e0       	ldi	r18, 0x00	; 0
    1706:	30 e0       	ldi	r19, 0x00	; 0
    1708:	4a e7       	ldi	r20, 0x7A	; 122
    170a:	55 e4       	ldi	r21, 0x45	; 69
    170c:	dc 01       	movw	r26, r24
    170e:	6d 91       	ld	r22, X+
    1710:	7d 91       	ld	r23, X+
    1712:	8d 91       	ld	r24, X+
    1714:	9c 91       	ld	r25, X
    1716:	0e 94 91 16 	call	0x2d22	; 0x2d22 <__mulsf3>
    171a:	c3 5a       	subi	r28, 0xA3	; 163
    171c:	de 4f       	sbci	r29, 0xFE	; 254
    171e:	68 83       	st	Y, r22
    1720:	79 83       	std	Y+1, r23	; 0x01
    1722:	8a 83       	std	Y+2, r24	; 0x02
    1724:	9b 83       	std	Y+3, r25	; 0x03
    1726:	cd 55       	subi	r28, 0x5D	; 93
    1728:	d1 40       	sbci	r29, 0x01	; 1
    172a:	c3 5a       	subi	r28, 0xA3	; 163
    172c:	de 4f       	sbci	r29, 0xFE	; 254
    172e:	88 81       	ld	r24, Y
    1730:	99 81       	ldd	r25, Y+1	; 0x01
    1732:	aa 81       	ldd	r26, Y+2	; 0x02
    1734:	bb 81       	ldd	r27, Y+3	; 0x03
    1736:	cd 55       	subi	r28, 0x5D	; 93
    1738:	d1 40       	sbci	r29, 0x01	; 1
    173a:	f8 01       	movw	r30, r16
    173c:	80 83       	st	Z, r24
    173e:	91 83       	std	Z+1, r25	; 0x01
    1740:	a2 83       	std	Z+2, r26	; 0x02
    1742:	b3 83       	std	Z+3, r27	; 0x03

00001744 <.Loc.250>:
	if (__tmp < 1.0)
    1744:	ce 01       	movw	r24, r28
    1746:	87 59       	subi	r24, 0x97	; 151
    1748:	9f 4f       	sbci	r25, 0xFF	; 255
    174a:	20 e0       	ldi	r18, 0x00	; 0
    174c:	30 e0       	ldi	r19, 0x00	; 0
    174e:	40 e8       	ldi	r20, 0x80	; 128
    1750:	5f e3       	ldi	r21, 0x3F	; 63
    1752:	dc 01       	movw	r26, r24
    1754:	6d 91       	ld	r22, X+
    1756:	7d 91       	ld	r23, X+
    1758:	8d 91       	ld	r24, X+
    175a:	9c 91       	ld	r25, X
    175c:	0e 94 a6 15 	call	0x2b4c	; 0x2b4c <__cmpsf2>
    1760:	88 23       	and	r24, r24
    1762:	4c f4       	brge	.+18     	; 0x1776 <.L188>

00001764 <.Loc.251>:
		__ticks = 1;
    1764:	ce 01       	movw	r24, r28
    1766:	83 59       	subi	r24, 0x93	; 147
    1768:	9f 4f       	sbci	r25, 0xFF	; 255
    176a:	21 e0       	ldi	r18, 0x01	; 1
    176c:	30 e0       	ldi	r19, 0x00	; 0
    176e:	fc 01       	movw	r30, r24
    1770:	31 83       	std	Z+1, r19	; 0x01
    1772:	20 83       	st	Z, r18
    1774:	a5 c0       	rjmp	.+330    	; 0x18c0 <.L96>

00001776 <.L188>:
	else if (__tmp > 65535)
    1776:	ce 01       	movw	r24, r28
    1778:	87 59       	subi	r24, 0x97	; 151
    177a:	9f 4f       	sbci	r25, 0xFF	; 255
    177c:	20 e0       	ldi	r18, 0x00	; 0
    177e:	3f ef       	ldi	r19, 0xFF	; 255
    1780:	4f e7       	ldi	r20, 0x7F	; 127
    1782:	57 e4       	ldi	r21, 0x47	; 71
    1784:	dc 01       	movw	r26, r24
    1786:	6d 91       	ld	r22, X+
    1788:	7d 91       	ld	r23, X+
    178a:	8d 91       	ld	r24, X+
    178c:	9c 91       	ld	r25, X
    178e:	0e 94 8c 16 	call	0x2d18	; 0x2d18 <__gesf2>
    1792:	88 23       	and	r24, r24
    1794:	09 f0       	breq	.+2      	; 0x1798 <L0^A>

00001796 <L0^A>:
    1796:	0c f4       	brge	.+2      	; 0x179a <.Loc.253>

00001798 <L0^A>:
    1798:	75 c0       	rjmp	.+234    	; 0x1884 <.L189>

0000179a <.Loc.253>:
		__ticks = (uint16_t) (__ms * 10.0);
    179a:	ce 01       	movw	r24, r28
    179c:	8b 59       	subi	r24, 0x9B	; 155
    179e:	9f 4f       	sbci	r25, 0xFF	; 255
    17a0:	20 e0       	ldi	r18, 0x00	; 0
    17a2:	30 e0       	ldi	r19, 0x00	; 0
    17a4:	40 e2       	ldi	r20, 0x20	; 32
    17a6:	51 e4       	ldi	r21, 0x41	; 65
    17a8:	fc 01       	movw	r30, r24
    17aa:	60 81       	ld	r22, Z
    17ac:	71 81       	ldd	r23, Z+1	; 0x01
    17ae:	82 81       	ldd	r24, Z+2	; 0x02
    17b0:	93 81       	ldd	r25, Z+3	; 0x03
    17b2:	0e 94 91 16 	call	0x2d22	; 0x2d22 <__mulsf3>
    17b6:	cf 59       	subi	r28, 0x9F	; 159
    17b8:	de 4f       	sbci	r29, 0xFE	; 254
    17ba:	68 83       	st	Y, r22
    17bc:	79 83       	std	Y+1, r23	; 0x01
    17be:	8a 83       	std	Y+2, r24	; 0x02
    17c0:	9b 83       	std	Y+3, r25	; 0x03
    17c2:	c1 56       	subi	r28, 0x61	; 97
    17c4:	d1 40       	sbci	r29, 0x01	; 1
    17c6:	cf 59       	subi	r28, 0x9F	; 159
    17c8:	de 4f       	sbci	r29, 0xFE	; 254
    17ca:	88 81       	ld	r24, Y
    17cc:	99 81       	ldd	r25, Y+1	; 0x01
    17ce:	aa 81       	ldd	r26, Y+2	; 0x02
    17d0:	bb 81       	ldd	r27, Y+3	; 0x03
    17d2:	c1 56       	subi	r28, 0x61	; 97
    17d4:	d1 40       	sbci	r29, 0x01	; 1
    17d6:	cb 52       	subi	r28, 0x2B	; 43
    17d8:	df 4f       	sbci	r29, 0xFF	; 255
    17da:	88 83       	st	Y, r24
    17dc:	99 83       	std	Y+1, r25	; 0x01
    17de:	aa 83       	std	Y+2, r26	; 0x02
    17e0:	bb 83       	std	Y+3, r27	; 0x03
    17e2:	c5 5d       	subi	r28, 0xD5	; 213
    17e4:	d0 40       	sbci	r29, 0x00	; 0

000017e6 <.Loc.254>:
    17e6:	8e 01       	movw	r16, r28
    17e8:	03 59       	subi	r16, 0x93	; 147
    17ea:	1f 4f       	sbci	r17, 0xFF	; 255
    17ec:	cb 52       	subi	r28, 0x2B	; 43
    17ee:	df 4f       	sbci	r29, 0xFF	; 255
    17f0:	68 81       	ld	r22, Y
    17f2:	79 81       	ldd	r23, Y+1	; 0x01
    17f4:	8a 81       	ldd	r24, Y+2	; 0x02
    17f6:	9b 81       	ldd	r25, Y+3	; 0x03
    17f8:	c5 5d       	subi	r28, 0xD5	; 213
    17fa:	d0 40       	sbci	r29, 0x00	; 0
    17fc:	0e 94 ab 15 	call	0x2b56	; 0x2b56 <__fixunssfsi>
    1800:	cb 59       	subi	r28, 0x9B	; 155
    1802:	de 4f       	sbci	r29, 0xFE	; 254
    1804:	68 83       	st	Y, r22
    1806:	79 83       	std	Y+1, r23	; 0x01
    1808:	8a 83       	std	Y+2, r24	; 0x02
    180a:	9b 83       	std	Y+3, r25	; 0x03
    180c:	c5 56       	subi	r28, 0x65	; 101
    180e:	d1 40       	sbci	r29, 0x01	; 1
    1810:	cb 59       	subi	r28, 0x9B	; 155
    1812:	de 4f       	sbci	r29, 0xFE	; 254
    1814:	e8 81       	ld	r30, Y
    1816:	f9 81       	ldd	r31, Y+1	; 0x01
    1818:	c5 56       	subi	r28, 0x65	; 101
    181a:	d1 40       	sbci	r29, 0x01	; 1
    181c:	d8 01       	movw	r26, r16
    181e:	11 96       	adiw	r26, 0x01	; 1
    1820:	fc 93       	st	X, r31
    1822:	ee 93       	st	-X, r30

00001824 <.Loc.255>:
		while(__ticks)
    1824:	26 c0       	rjmp	.+76     	; 0x1872 <.L99>

00001826 <.L100>:
    1826:	ce 01       	movw	r24, r28
    1828:	81 59       	subi	r24, 0x91	; 145
    182a:	9f 4f       	sbci	r25, 0xFF	; 255
    182c:	20 e9       	ldi	r18, 0x90	; 144
    182e:	31 e0       	ldi	r19, 0x01	; 1
    1830:	dc 01       	movw	r26, r24
    1832:	2d 93       	st	X+, r18
    1834:	3c 93       	st	X, r19

00001836 <.LBB128>:
    1836:	ce 01       	movw	r24, r28
    1838:	81 59       	subi	r24, 0x91	; 145
    183a:	9f 4f       	sbci	r25, 0xFF	; 255
    183c:	fc 01       	movw	r30, r24
    183e:	80 81       	ld	r24, Z
    1840:	91 81       	ldd	r25, Z+1	; 0x01

00001842 <.L1^B15>:
    1842:	01 97       	sbiw	r24, 0x01	; 1
    1844:	f1 f7       	brne	.-4      	; 0x1842 <.L1^B15>
    1846:	9e 01       	movw	r18, r28
    1848:	21 59       	subi	r18, 0x91	; 145
    184a:	3f 4f       	sbci	r19, 0xFF	; 255
    184c:	d9 01       	movw	r26, r18
    184e:	8d 93       	st	X+, r24
    1850:	9c 93       	st	X, r25

00001852 <.Loc.257>:
	...

00001854 <.LBE128>:
			__ticks --;
    1854:	ce 01       	movw	r24, r28
    1856:	83 59       	subi	r24, 0x93	; 147
    1858:	9f 4f       	sbci	r25, 0xFF	; 255
    185a:	9e 01       	movw	r18, r28
    185c:	23 59       	subi	r18, 0x93	; 147
    185e:	3f 4f       	sbci	r19, 0xFF	; 255
    1860:	f9 01       	movw	r30, r18
    1862:	20 81       	ld	r18, Z
    1864:	31 81       	ldd	r19, Z+1	; 0x01
    1866:	21 50       	subi	r18, 0x01	; 1
    1868:	31 09       	sbc	r19, r1
    186a:	dc 01       	movw	r26, r24
    186c:	11 96       	adiw	r26, 0x01	; 1
    186e:	3c 93       	st	X, r19
    1870:	2e 93       	st	-X, r18

00001872 <.L99>:
		while(__ticks)
    1872:	ce 01       	movw	r24, r28
    1874:	83 59       	subi	r24, 0x93	; 147
    1876:	9f 4f       	sbci	r25, 0xFF	; 255
    1878:	fc 01       	movw	r30, r24
    187a:	80 81       	ld	r24, Z
    187c:	91 81       	ldd	r25, Z+1	; 0x01
    187e:	00 97       	sbiw	r24, 0x00	; 0
    1880:	91 f6       	brne	.-92     	; 0x1826 <.L100>

00001882 <.Loc.260>:
		return;
    1882:	3a c0       	rjmp	.+116    	; 0x18f8 <.L101>

00001884 <.L189>:
		__ticks = (uint16_t)__tmp;
    1884:	8e 01       	movw	r16, r28
    1886:	03 59       	subi	r16, 0x93	; 147
    1888:	1f 4f       	sbci	r17, 0xFF	; 255
    188a:	ce 01       	movw	r24, r28
    188c:	87 59       	subi	r24, 0x97	; 151
    188e:	9f 4f       	sbci	r25, 0xFF	; 255
    1890:	dc 01       	movw	r26, r24
    1892:	6d 91       	ld	r22, X+
    1894:	7d 91       	ld	r23, X+
    1896:	8d 91       	ld	r24, X+
    1898:	9c 91       	ld	r25, X
    189a:	0e 94 ab 15 	call	0x2b56	; 0x2b56 <__fixunssfsi>
    189e:	c7 59       	subi	r28, 0x97	; 151
    18a0:	de 4f       	sbci	r29, 0xFE	; 254
    18a2:	68 83       	st	Y, r22
    18a4:	79 83       	std	Y+1, r23	; 0x01
    18a6:	8a 83       	std	Y+2, r24	; 0x02
    18a8:	9b 83       	std	Y+3, r25	; 0x03
    18aa:	c9 56       	subi	r28, 0x69	; 105
    18ac:	d1 40       	sbci	r29, 0x01	; 1
    18ae:	c7 59       	subi	r28, 0x97	; 151
    18b0:	de 4f       	sbci	r29, 0xFE	; 254
    18b2:	88 81       	ld	r24, Y
    18b4:	99 81       	ldd	r25, Y+1	; 0x01
    18b6:	c9 56       	subi	r28, 0x69	; 105
    18b8:	d1 40       	sbci	r29, 0x01	; 1
    18ba:	f8 01       	movw	r30, r16
    18bc:	91 83       	std	Z+1, r25	; 0x01
    18be:	80 83       	st	Z, r24

000018c0 <.L96>:
    18c0:	ce 01       	movw	r24, r28
    18c2:	8f 58       	subi	r24, 0x8F	; 143
    18c4:	9f 4f       	sbci	r25, 0xFF	; 255
    18c6:	9e 01       	movw	r18, r28
    18c8:	23 59       	subi	r18, 0x93	; 147
    18ca:	3f 4f       	sbci	r19, 0xFF	; 255
    18cc:	d9 01       	movw	r26, r18
    18ce:	2d 91       	ld	r18, X+
    18d0:	3c 91       	ld	r19, X
    18d2:	fc 01       	movw	r30, r24
    18d4:	31 83       	std	Z+1, r19	; 0x01
    18d6:	20 83       	st	Z, r18

000018d8 <.LBB130>:
    18d8:	ce 01       	movw	r24, r28
    18da:	8f 58       	subi	r24, 0x8F	; 143
    18dc:	9f 4f       	sbci	r25, 0xFF	; 255
    18de:	dc 01       	movw	r26, r24
    18e0:	8d 91       	ld	r24, X+
    18e2:	9c 91       	ld	r25, X
    18e4:	11 97       	sbiw	r26, 0x01	; 1

000018e6 <.L1^B16>:
    18e6:	01 97       	sbiw	r24, 0x01	; 1
    18e8:	f1 f7       	brne	.-4      	; 0x18e6 <.L1^B16>
    18ea:	9e 01       	movw	r18, r28
    18ec:	2f 58       	subi	r18, 0x8F	; 143
    18ee:	3f 4f       	sbci	r19, 0xFF	; 255
    18f0:	f9 01       	movw	r30, r18
    18f2:	91 83       	std	Z+1, r25	; 0x01
    18f4:	80 83       	st	Z, r24

000018f6 <.Loc.263>:
	...

000018f8 <.L101>:
            {
                DEBOUNCE;
                status = 9;
    18f8:	89 e0       	ldi	r24, 0x09	; 9
    18fa:	90 e0       	ldi	r25, 0x00	; 0
    18fc:	9a 83       	std	Y+2, r25	; 0x02
    18fe:	89 83       	std	Y+1, r24	; 0x01

00001900 <.Loc.265>:
            }
            break;
    1900:	d4 c5       	rjmp	.+2984   	; 0x24aa <.L203>

00001902 <.L38>:
        case 9:
            if(!(PINA & (1<<middel_switch)))
    1902:	80 e2       	ldi	r24, 0x20	; 32
    1904:	90 e0       	ldi	r25, 0x00	; 0
    1906:	dc 01       	movw	r26, r24
    1908:	8c 91       	ld	r24, X

0000190a <.Loc.267>:
    190a:	88 2f       	mov	r24, r24
    190c:	90 e0       	ldi	r25, 0x00	; 0
    190e:	80 72       	andi	r24, 0x20	; 32
    1910:	99 27       	eor	r25, r25

00001912 <.Loc.268>:
    1912:	00 97       	sbiw	r24, 0x00	; 0
    1914:	09 f0       	breq	.+2      	; 0x1918 <L0^A+0x2>

00001916 <L0^A>:
    1916:	13 c1       	rjmp	.+550    	; 0x1b3e <.L102>
    1918:	9e 01       	movw	r18, r28
    191a:	2d 58       	subi	r18, 0x8D	; 141
    191c:	3f 4f       	sbci	r19, 0xFF	; 255
    191e:	80 e0       	ldi	r24, 0x00	; 0
    1920:	90 e0       	ldi	r25, 0x00	; 0
    1922:	a0 ea       	ldi	r26, 0xA0	; 160
    1924:	b1 e4       	ldi	r27, 0x41	; 65
    1926:	f9 01       	movw	r30, r18
    1928:	80 83       	st	Z, r24
    192a:	91 83       	std	Z+1, r25	; 0x01
    192c:	a2 83       	std	Z+2, r26	; 0x02
    192e:	b3 83       	std	Z+3, r27	; 0x03

00001930 <.LBB132>:
	__tmp = ((F_CPU) / 4e3) * __ms;
    1930:	8e 01       	movw	r16, r28
    1932:	09 58       	subi	r16, 0x89	; 137
    1934:	1f 4f       	sbci	r17, 0xFF	; 255
    1936:	ce 01       	movw	r24, r28
    1938:	8d 58       	subi	r24, 0x8D	; 141
    193a:	9f 4f       	sbci	r25, 0xFF	; 255
    193c:	20 e0       	ldi	r18, 0x00	; 0
    193e:	30 e0       	ldi	r19, 0x00	; 0
    1940:	4a e7       	ldi	r20, 0x7A	; 122
    1942:	55 e4       	ldi	r21, 0x45	; 69
    1944:	dc 01       	movw	r26, r24
    1946:	6d 91       	ld	r22, X+
    1948:	7d 91       	ld	r23, X+
    194a:	8d 91       	ld	r24, X+
    194c:	9c 91       	ld	r25, X
    194e:	0e 94 91 16 	call	0x2d22	; 0x2d22 <__mulsf3>
    1952:	c3 59       	subi	r28, 0x93	; 147
    1954:	de 4f       	sbci	r29, 0xFE	; 254
    1956:	68 83       	st	Y, r22
    1958:	79 83       	std	Y+1, r23	; 0x01
    195a:	8a 83       	std	Y+2, r24	; 0x02
    195c:	9b 83       	std	Y+3, r25	; 0x03
    195e:	cd 56       	subi	r28, 0x6D	; 109
    1960:	d1 40       	sbci	r29, 0x01	; 1
    1962:	c3 59       	subi	r28, 0x93	; 147
    1964:	de 4f       	sbci	r29, 0xFE	; 254
    1966:	88 81       	ld	r24, Y
    1968:	99 81       	ldd	r25, Y+1	; 0x01
    196a:	aa 81       	ldd	r26, Y+2	; 0x02
    196c:	bb 81       	ldd	r27, Y+3	; 0x03
    196e:	cd 56       	subi	r28, 0x6D	; 109
    1970:	d1 40       	sbci	r29, 0x01	; 1
    1972:	f8 01       	movw	r30, r16
    1974:	80 83       	st	Z, r24
    1976:	91 83       	std	Z+1, r25	; 0x01
    1978:	a2 83       	std	Z+2, r26	; 0x02
    197a:	b3 83       	std	Z+3, r27	; 0x03

0000197c <.Loc.270>:
	if (__tmp < 1.0)
    197c:	ce 01       	movw	r24, r28
    197e:	89 58       	subi	r24, 0x89	; 137
    1980:	9f 4f       	sbci	r25, 0xFF	; 255
    1982:	20 e0       	ldi	r18, 0x00	; 0
    1984:	30 e0       	ldi	r19, 0x00	; 0
    1986:	40 e8       	ldi	r20, 0x80	; 128
    1988:	5f e3       	ldi	r21, 0x3F	; 63
    198a:	dc 01       	movw	r26, r24
    198c:	6d 91       	ld	r22, X+
    198e:	7d 91       	ld	r23, X+
    1990:	8d 91       	ld	r24, X+
    1992:	9c 91       	ld	r25, X
    1994:	0e 94 a6 15 	call	0x2b4c	; 0x2b4c <__cmpsf2>
    1998:	88 23       	and	r24, r24
    199a:	4c f4       	brge	.+18     	; 0x19ae <.L190>

0000199c <.Loc.271>:
		__ticks = 1;
    199c:	ce 01       	movw	r24, r28
    199e:	85 58       	subi	r24, 0x85	; 133
    19a0:	9f 4f       	sbci	r25, 0xFF	; 255
    19a2:	21 e0       	ldi	r18, 0x01	; 1
    19a4:	30 e0       	ldi	r19, 0x00	; 0
    19a6:	fc 01       	movw	r30, r24
    19a8:	31 83       	std	Z+1, r19	; 0x01
    19aa:	20 83       	st	Z, r18
    19ac:	a5 c0       	rjmp	.+330    	; 0x1af8 <.L105>

000019ae <.L190>:
	else if (__tmp > 65535)
    19ae:	ce 01       	movw	r24, r28
    19b0:	89 58       	subi	r24, 0x89	; 137
    19b2:	9f 4f       	sbci	r25, 0xFF	; 255
    19b4:	20 e0       	ldi	r18, 0x00	; 0
    19b6:	3f ef       	ldi	r19, 0xFF	; 255
    19b8:	4f e7       	ldi	r20, 0x7F	; 127
    19ba:	57 e4       	ldi	r21, 0x47	; 71
    19bc:	dc 01       	movw	r26, r24
    19be:	6d 91       	ld	r22, X+
    19c0:	7d 91       	ld	r23, X+
    19c2:	8d 91       	ld	r24, X+
    19c4:	9c 91       	ld	r25, X
    19c6:	0e 94 8c 16 	call	0x2d18	; 0x2d18 <__gesf2>
    19ca:	88 23       	and	r24, r24
    19cc:	09 f0       	breq	.+2      	; 0x19d0 <L0^A>

000019ce <L0^A>:
    19ce:	0c f4       	brge	.+2      	; 0x19d2 <.Loc.273>

000019d0 <L0^A>:
    19d0:	75 c0       	rjmp	.+234    	; 0x1abc <.L191>

000019d2 <.Loc.273>:
		__ticks = (uint16_t) (__ms * 10.0);
    19d2:	ce 01       	movw	r24, r28
    19d4:	8d 58       	subi	r24, 0x8D	; 141
    19d6:	9f 4f       	sbci	r25, 0xFF	; 255
    19d8:	20 e0       	ldi	r18, 0x00	; 0
    19da:	30 e0       	ldi	r19, 0x00	; 0
    19dc:	40 e2       	ldi	r20, 0x20	; 32
    19de:	51 e4       	ldi	r21, 0x41	; 65
    19e0:	fc 01       	movw	r30, r24
    19e2:	60 81       	ld	r22, Z
    19e4:	71 81       	ldd	r23, Z+1	; 0x01
    19e6:	82 81       	ldd	r24, Z+2	; 0x02
    19e8:	93 81       	ldd	r25, Z+3	; 0x03
    19ea:	0e 94 91 16 	call	0x2d22	; 0x2d22 <__mulsf3>
    19ee:	cf 58       	subi	r28, 0x8F	; 143
    19f0:	de 4f       	sbci	r29, 0xFE	; 254
    19f2:	68 83       	st	Y, r22
    19f4:	79 83       	std	Y+1, r23	; 0x01
    19f6:	8a 83       	std	Y+2, r24	; 0x02
    19f8:	9b 83       	std	Y+3, r25	; 0x03
    19fa:	c1 57       	subi	r28, 0x71	; 113
    19fc:	d1 40       	sbci	r29, 0x01	; 1
    19fe:	cf 58       	subi	r28, 0x8F	; 143
    1a00:	de 4f       	sbci	r29, 0xFE	; 254
    1a02:	88 81       	ld	r24, Y
    1a04:	99 81       	ldd	r25, Y+1	; 0x01
    1a06:	aa 81       	ldd	r26, Y+2	; 0x02
    1a08:	bb 81       	ldd	r27, Y+3	; 0x03
    1a0a:	c1 57       	subi	r28, 0x71	; 113
    1a0c:	d1 40       	sbci	r29, 0x01	; 1
    1a0e:	c7 52       	subi	r28, 0x27	; 39
    1a10:	df 4f       	sbci	r29, 0xFF	; 255
    1a12:	88 83       	st	Y, r24
    1a14:	99 83       	std	Y+1, r25	; 0x01
    1a16:	aa 83       	std	Y+2, r26	; 0x02
    1a18:	bb 83       	std	Y+3, r27	; 0x03
    1a1a:	c9 5d       	subi	r28, 0xD9	; 217
    1a1c:	d0 40       	sbci	r29, 0x00	; 0

00001a1e <.Loc.274>:
    1a1e:	8e 01       	movw	r16, r28
    1a20:	05 58       	subi	r16, 0x85	; 133
    1a22:	1f 4f       	sbci	r17, 0xFF	; 255
    1a24:	c7 52       	subi	r28, 0x27	; 39
    1a26:	df 4f       	sbci	r29, 0xFF	; 255
    1a28:	68 81       	ld	r22, Y
    1a2a:	79 81       	ldd	r23, Y+1	; 0x01
    1a2c:	8a 81       	ldd	r24, Y+2	; 0x02
    1a2e:	9b 81       	ldd	r25, Y+3	; 0x03
    1a30:	c9 5d       	subi	r28, 0xD9	; 217
    1a32:	d0 40       	sbci	r29, 0x00	; 0
    1a34:	0e 94 ab 15 	call	0x2b56	; 0x2b56 <__fixunssfsi>
    1a38:	cb 58       	subi	r28, 0x8B	; 139
    1a3a:	de 4f       	sbci	r29, 0xFE	; 254
    1a3c:	68 83       	st	Y, r22
    1a3e:	79 83       	std	Y+1, r23	; 0x01
    1a40:	8a 83       	std	Y+2, r24	; 0x02
    1a42:	9b 83       	std	Y+3, r25	; 0x03
    1a44:	c5 57       	subi	r28, 0x75	; 117
    1a46:	d1 40       	sbci	r29, 0x01	; 1
    1a48:	cb 58       	subi	r28, 0x8B	; 139
    1a4a:	de 4f       	sbci	r29, 0xFE	; 254
    1a4c:	e8 81       	ld	r30, Y
    1a4e:	f9 81       	ldd	r31, Y+1	; 0x01
    1a50:	c5 57       	subi	r28, 0x75	; 117
    1a52:	d1 40       	sbci	r29, 0x01	; 1
    1a54:	d8 01       	movw	r26, r16
    1a56:	11 96       	adiw	r26, 0x01	; 1
    1a58:	fc 93       	st	X, r31
    1a5a:	ee 93       	st	-X, r30

00001a5c <.Loc.275>:
		while(__ticks)
    1a5c:	26 c0       	rjmp	.+76     	; 0x1aaa <.L108>

00001a5e <.L109>:
    1a5e:	ce 01       	movw	r24, r28
    1a60:	83 58       	subi	r24, 0x83	; 131
    1a62:	9f 4f       	sbci	r25, 0xFF	; 255
    1a64:	20 e9       	ldi	r18, 0x90	; 144
    1a66:	31 e0       	ldi	r19, 0x01	; 1
    1a68:	dc 01       	movw	r26, r24
    1a6a:	2d 93       	st	X+, r18
    1a6c:	3c 93       	st	X, r19

00001a6e <.LBB134>:
    1a6e:	ce 01       	movw	r24, r28
    1a70:	83 58       	subi	r24, 0x83	; 131
    1a72:	9f 4f       	sbci	r25, 0xFF	; 255
    1a74:	fc 01       	movw	r30, r24
    1a76:	80 81       	ld	r24, Z
    1a78:	91 81       	ldd	r25, Z+1	; 0x01

00001a7a <.L1^B17>:
    1a7a:	01 97       	sbiw	r24, 0x01	; 1
    1a7c:	f1 f7       	brne	.-4      	; 0x1a7a <.L1^B17>
    1a7e:	9e 01       	movw	r18, r28
    1a80:	23 58       	subi	r18, 0x83	; 131
    1a82:	3f 4f       	sbci	r19, 0xFF	; 255
    1a84:	d9 01       	movw	r26, r18
    1a86:	8d 93       	st	X+, r24
    1a88:	9c 93       	st	X, r25

00001a8a <.Loc.277>:
	...

00001a8c <.LBE134>:
			__ticks --;
    1a8c:	ce 01       	movw	r24, r28
    1a8e:	85 58       	subi	r24, 0x85	; 133
    1a90:	9f 4f       	sbci	r25, 0xFF	; 255
    1a92:	9e 01       	movw	r18, r28
    1a94:	25 58       	subi	r18, 0x85	; 133
    1a96:	3f 4f       	sbci	r19, 0xFF	; 255
    1a98:	f9 01       	movw	r30, r18
    1a9a:	20 81       	ld	r18, Z
    1a9c:	31 81       	ldd	r19, Z+1	; 0x01
    1a9e:	21 50       	subi	r18, 0x01	; 1
    1aa0:	31 09       	sbc	r19, r1
    1aa2:	dc 01       	movw	r26, r24
    1aa4:	11 96       	adiw	r26, 0x01	; 1
    1aa6:	3c 93       	st	X, r19
    1aa8:	2e 93       	st	-X, r18

00001aaa <.L108>:
		while(__ticks)
    1aaa:	ce 01       	movw	r24, r28
    1aac:	85 58       	subi	r24, 0x85	; 133
    1aae:	9f 4f       	sbci	r25, 0xFF	; 255
    1ab0:	fc 01       	movw	r30, r24
    1ab2:	80 81       	ld	r24, Z
    1ab4:	91 81       	ldd	r25, Z+1	; 0x01
    1ab6:	00 97       	sbiw	r24, 0x00	; 0
    1ab8:	91 f6       	brne	.-92     	; 0x1a5e <.L109>

00001aba <.Loc.280>:
		return;
    1aba:	39 c0       	rjmp	.+114    	; 0x1b2e <.L110>

00001abc <.L191>:
		__ticks = (uint16_t)__tmp;
    1abc:	8e 01       	movw	r16, r28
    1abe:	05 58       	subi	r16, 0x85	; 133
    1ac0:	1f 4f       	sbci	r17, 0xFF	; 255
    1ac2:	ce 01       	movw	r24, r28
    1ac4:	89 58       	subi	r24, 0x89	; 137
    1ac6:	9f 4f       	sbci	r25, 0xFF	; 255
    1ac8:	dc 01       	movw	r26, r24
    1aca:	6d 91       	ld	r22, X+
    1acc:	7d 91       	ld	r23, X+
    1ace:	8d 91       	ld	r24, X+
    1ad0:	9c 91       	ld	r25, X
    1ad2:	0e 94 ab 15 	call	0x2b56	; 0x2b56 <__fixunssfsi>
    1ad6:	c7 58       	subi	r28, 0x87	; 135
    1ad8:	de 4f       	sbci	r29, 0xFE	; 254
    1ada:	68 83       	st	Y, r22
    1adc:	79 83       	std	Y+1, r23	; 0x01
    1ade:	8a 83       	std	Y+2, r24	; 0x02
    1ae0:	9b 83       	std	Y+3, r25	; 0x03
    1ae2:	c9 57       	subi	r28, 0x79	; 121
    1ae4:	d1 40       	sbci	r29, 0x01	; 1
    1ae6:	c7 58       	subi	r28, 0x87	; 135
    1ae8:	de 4f       	sbci	r29, 0xFE	; 254
    1aea:	88 81       	ld	r24, Y
    1aec:	99 81       	ldd	r25, Y+1	; 0x01
    1aee:	c9 57       	subi	r28, 0x79	; 121
    1af0:	d1 40       	sbci	r29, 0x01	; 1
    1af2:	f8 01       	movw	r30, r16
    1af4:	91 83       	std	Z+1, r25	; 0x01
    1af6:	80 83       	st	Z, r24

00001af8 <.L105>:
    1af8:	ce 01       	movw	r24, r28
    1afa:	81 58       	subi	r24, 0x81	; 129
    1afc:	9f 4f       	sbci	r25, 0xFF	; 255
    1afe:	9e 01       	movw	r18, r28
    1b00:	25 58       	subi	r18, 0x85	; 133
    1b02:	3f 4f       	sbci	r19, 0xFF	; 255
    1b04:	d9 01       	movw	r26, r18
    1b06:	2d 91       	ld	r18, X+
    1b08:	3c 91       	ld	r19, X
    1b0a:	fc 01       	movw	r30, r24
    1b0c:	31 83       	std	Z+1, r19	; 0x01
    1b0e:	20 83       	st	Z, r18

00001b10 <.LBB136>:
    1b10:	ce 01       	movw	r24, r28
    1b12:	81 58       	subi	r24, 0x81	; 129
    1b14:	9f 4f       	sbci	r25, 0xFF	; 255
    1b16:	dc 01       	movw	r26, r24
    1b18:	8d 91       	ld	r24, X+
    1b1a:	9c 91       	ld	r25, X

00001b1c <.L1^B18>:
    1b1c:	01 97       	sbiw	r24, 0x01	; 1
    1b1e:	f1 f7       	brne	.-4      	; 0x1b1c <.L1^B18>
    1b20:	9e 01       	movw	r18, r28
    1b22:	21 58       	subi	r18, 0x81	; 129
    1b24:	3f 4f       	sbci	r19, 0xFF	; 255
    1b26:	f9 01       	movw	r30, r18
    1b28:	91 83       	std	Z+1, r25	; 0x01
    1b2a:	80 83       	st	Z, r24

00001b2c <.Loc.283>:
	...

00001b2e <.L110>:
            {
                DEBOUNCE;
                h_bridge_set_percentage(0);
    1b2e:	80 e0       	ldi	r24, 0x00	; 0
    1b30:	0e 94 c3 02 	call	0x586	; 0x586 <h_bridge_set_percentage>

00001b34 <.Loc.285>:
                status = 11;
    1b34:	8b e0       	ldi	r24, 0x0B	; 11
    1b36:	90 e0       	ldi	r25, 0x00	; 0
    1b38:	9a 83       	std	Y+2, r25	; 0x02
    1b3a:	89 83       	std	Y+1, r24	; 0x01

00001b3c <.Loc.286>:
                break;
    1b3c:	b7 c4       	rjmp	.+2414   	; 0x24ac <.L31>

00001b3e <.L102>:
            }
           h_bridge_set_percentage(-70);
    1b3e:	8a eb       	ldi	r24, 0xBA	; 186
    1b40:	0e 94 c3 02 	call	0x586	; 0x586 <h_bridge_set_percentage>

00001b44 <.Loc.288>:
           break;
    1b44:	b3 c4       	rjmp	.+2406   	; 0x24ac <.L31>

00001b46 <.L36>:
        case 11:
            servo1_set_percentage(-50);
    1b46:	8e ec       	ldi	r24, 0xCE	; 206
    1b48:	0e 94 c6 13 	call	0x278c	; 0x278c <servo1_set_percentage>

00001b4c <.Loc.290>:
            servo2_set_percentage(-50);
    1b4c:	8e ec       	ldi	r24, 0xCE	; 206
    1b4e:	0e 94 3a 14 	call	0x2874	; 0x2874 <servo2_set_percentage>

00001b52 <.Loc.291>:
            status = 13;
    1b52:	8d e0       	ldi	r24, 0x0D	; 13
    1b54:	90 e0       	ldi	r25, 0x00	; 0
    1b56:	9a 83       	std	Y+2, r25	; 0x02
    1b58:	89 83       	std	Y+1, r24	; 0x01

00001b5a <.Loc.292>:
            break;
    1b5a:	a8 c4       	rjmp	.+2384   	; 0x24ac <.L31>

00001b5c <.L34>:
        case 13:
            if (!(PINA & (1<<home_switch)))
    1b5c:	80 e2       	ldi	r24, 0x20	; 32
    1b5e:	90 e0       	ldi	r25, 0x00	; 0
    1b60:	dc 01       	movw	r26, r24
    1b62:	8c 91       	ld	r24, X

00001b64 <.Loc.294>:
    1b64:	88 2f       	mov	r24, r24
    1b66:	90 e0       	ldi	r25, 0x00	; 0
    1b68:	81 70       	andi	r24, 0x01	; 1
    1b6a:	99 27       	eor	r25, r25

00001b6c <.Loc.295>:
    1b6c:	00 97       	sbiw	r24, 0x00	; 0
    1b6e:	09 f0       	breq	.+2      	; 0x1b72 <L0^A+0x2>

00001b70 <L0^A>:
    1b70:	13 c1       	rjmp	.+550    	; 0x1d98 <.L111>
    1b72:	9e 01       	movw	r18, r28
    1b74:	2f 57       	subi	r18, 0x7F	; 127
    1b76:	3f 4f       	sbci	r19, 0xFF	; 255
    1b78:	80 e0       	ldi	r24, 0x00	; 0
    1b7a:	90 e0       	ldi	r25, 0x00	; 0
    1b7c:	a0 ea       	ldi	r26, 0xA0	; 160
    1b7e:	b1 e4       	ldi	r27, 0x41	; 65
    1b80:	f9 01       	movw	r30, r18
    1b82:	80 83       	st	Z, r24
    1b84:	91 83       	std	Z+1, r25	; 0x01
    1b86:	a2 83       	std	Z+2, r26	; 0x02
    1b88:	b3 83       	std	Z+3, r27	; 0x03

00001b8a <.LBB138>:
	__tmp = ((F_CPU) / 4e3) * __ms;
    1b8a:	8e 01       	movw	r16, r28
    1b8c:	0b 57       	subi	r16, 0x7B	; 123
    1b8e:	1f 4f       	sbci	r17, 0xFF	; 255
    1b90:	ce 01       	movw	r24, r28
    1b92:	8f 57       	subi	r24, 0x7F	; 127
    1b94:	9f 4f       	sbci	r25, 0xFF	; 255
    1b96:	20 e0       	ldi	r18, 0x00	; 0
    1b98:	30 e0       	ldi	r19, 0x00	; 0
    1b9a:	4a e7       	ldi	r20, 0x7A	; 122
    1b9c:	55 e4       	ldi	r21, 0x45	; 69
    1b9e:	dc 01       	movw	r26, r24
    1ba0:	6d 91       	ld	r22, X+
    1ba2:	7d 91       	ld	r23, X+
    1ba4:	8d 91       	ld	r24, X+
    1ba6:	9c 91       	ld	r25, X
    1ba8:	0e 94 91 16 	call	0x2d22	; 0x2d22 <__mulsf3>
    1bac:	c3 58       	subi	r28, 0x83	; 131
    1bae:	de 4f       	sbci	r29, 0xFE	; 254
    1bb0:	68 83       	st	Y, r22
    1bb2:	79 83       	std	Y+1, r23	; 0x01
    1bb4:	8a 83       	std	Y+2, r24	; 0x02
    1bb6:	9b 83       	std	Y+3, r25	; 0x03
    1bb8:	cd 57       	subi	r28, 0x7D	; 125
    1bba:	d1 40       	sbci	r29, 0x01	; 1
    1bbc:	c3 58       	subi	r28, 0x83	; 131
    1bbe:	de 4f       	sbci	r29, 0xFE	; 254
    1bc0:	88 81       	ld	r24, Y
    1bc2:	99 81       	ldd	r25, Y+1	; 0x01
    1bc4:	aa 81       	ldd	r26, Y+2	; 0x02
    1bc6:	bb 81       	ldd	r27, Y+3	; 0x03
    1bc8:	cd 57       	subi	r28, 0x7D	; 125
    1bca:	d1 40       	sbci	r29, 0x01	; 1
    1bcc:	f8 01       	movw	r30, r16
    1bce:	80 83       	st	Z, r24
    1bd0:	91 83       	std	Z+1, r25	; 0x01
    1bd2:	a2 83       	std	Z+2, r26	; 0x02
    1bd4:	b3 83       	std	Z+3, r27	; 0x03

00001bd6 <.Loc.297>:
	if (__tmp < 1.0)
    1bd6:	ce 01       	movw	r24, r28
    1bd8:	8b 57       	subi	r24, 0x7B	; 123
    1bda:	9f 4f       	sbci	r25, 0xFF	; 255
    1bdc:	20 e0       	ldi	r18, 0x00	; 0
    1bde:	30 e0       	ldi	r19, 0x00	; 0
    1be0:	40 e8       	ldi	r20, 0x80	; 128
    1be2:	5f e3       	ldi	r21, 0x3F	; 63
    1be4:	dc 01       	movw	r26, r24
    1be6:	6d 91       	ld	r22, X+
    1be8:	7d 91       	ld	r23, X+
    1bea:	8d 91       	ld	r24, X+
    1bec:	9c 91       	ld	r25, X
    1bee:	0e 94 a6 15 	call	0x2b4c	; 0x2b4c <__cmpsf2>
    1bf2:	88 23       	and	r24, r24
    1bf4:	4c f4       	brge	.+18     	; 0x1c08 <.L192>

00001bf6 <.Loc.298>:
		__ticks = 1;
    1bf6:	ce 01       	movw	r24, r28
    1bf8:	87 57       	subi	r24, 0x77	; 119
    1bfa:	9f 4f       	sbci	r25, 0xFF	; 255
    1bfc:	21 e0       	ldi	r18, 0x01	; 1
    1bfe:	30 e0       	ldi	r19, 0x00	; 0
    1c00:	fc 01       	movw	r30, r24
    1c02:	31 83       	std	Z+1, r19	; 0x01
    1c04:	20 83       	st	Z, r18
    1c06:	a5 c0       	rjmp	.+330    	; 0x1d52 <.L114>

00001c08 <.L192>:
	else if (__tmp > 65535)
    1c08:	ce 01       	movw	r24, r28
    1c0a:	8b 57       	subi	r24, 0x7B	; 123
    1c0c:	9f 4f       	sbci	r25, 0xFF	; 255
    1c0e:	20 e0       	ldi	r18, 0x00	; 0
    1c10:	3f ef       	ldi	r19, 0xFF	; 255
    1c12:	4f e7       	ldi	r20, 0x7F	; 127
    1c14:	57 e4       	ldi	r21, 0x47	; 71
    1c16:	dc 01       	movw	r26, r24
    1c18:	6d 91       	ld	r22, X+
    1c1a:	7d 91       	ld	r23, X+
    1c1c:	8d 91       	ld	r24, X+
    1c1e:	9c 91       	ld	r25, X
    1c20:	0e 94 8c 16 	call	0x2d18	; 0x2d18 <__gesf2>
    1c24:	88 23       	and	r24, r24
    1c26:	09 f0       	breq	.+2      	; 0x1c2a <L0^A>

00001c28 <L0^A>:
    1c28:	0c f4       	brge	.+2      	; 0x1c2c <.Loc.300>

00001c2a <L0^A>:
    1c2a:	75 c0       	rjmp	.+234    	; 0x1d16 <.L193>

00001c2c <.Loc.300>:
		__ticks = (uint16_t) (__ms * 10.0);
    1c2c:	ce 01       	movw	r24, r28
    1c2e:	8f 57       	subi	r24, 0x7F	; 127
    1c30:	9f 4f       	sbci	r25, 0xFF	; 255
    1c32:	20 e0       	ldi	r18, 0x00	; 0
    1c34:	30 e0       	ldi	r19, 0x00	; 0
    1c36:	40 e2       	ldi	r20, 0x20	; 32
    1c38:	51 e4       	ldi	r21, 0x41	; 65
    1c3a:	fc 01       	movw	r30, r24
    1c3c:	60 81       	ld	r22, Z
    1c3e:	71 81       	ldd	r23, Z+1	; 0x01
    1c40:	82 81       	ldd	r24, Z+2	; 0x02
    1c42:	93 81       	ldd	r25, Z+3	; 0x03
    1c44:	0e 94 91 16 	call	0x2d22	; 0x2d22 <__mulsf3>
    1c48:	cf 57       	subi	r28, 0x7F	; 127
    1c4a:	de 4f       	sbci	r29, 0xFE	; 254
    1c4c:	68 83       	st	Y, r22
    1c4e:	79 83       	std	Y+1, r23	; 0x01
    1c50:	8a 83       	std	Y+2, r24	; 0x02
    1c52:	9b 83       	std	Y+3, r25	; 0x03
    1c54:	c1 58       	subi	r28, 0x81	; 129
    1c56:	d1 40       	sbci	r29, 0x01	; 1
    1c58:	cf 57       	subi	r28, 0x7F	; 127
    1c5a:	de 4f       	sbci	r29, 0xFE	; 254
    1c5c:	88 81       	ld	r24, Y
    1c5e:	99 81       	ldd	r25, Y+1	; 0x01
    1c60:	aa 81       	ldd	r26, Y+2	; 0x02
    1c62:	bb 81       	ldd	r27, Y+3	; 0x03
    1c64:	c1 58       	subi	r28, 0x81	; 129
    1c66:	d1 40       	sbci	r29, 0x01	; 1
    1c68:	c3 52       	subi	r28, 0x23	; 35
    1c6a:	df 4f       	sbci	r29, 0xFF	; 255
    1c6c:	88 83       	st	Y, r24
    1c6e:	99 83       	std	Y+1, r25	; 0x01
    1c70:	aa 83       	std	Y+2, r26	; 0x02
    1c72:	bb 83       	std	Y+3, r27	; 0x03
    1c74:	cd 5d       	subi	r28, 0xDD	; 221
    1c76:	d0 40       	sbci	r29, 0x00	; 0

00001c78 <.Loc.301>:
    1c78:	8e 01       	movw	r16, r28
    1c7a:	07 57       	subi	r16, 0x77	; 119
    1c7c:	1f 4f       	sbci	r17, 0xFF	; 255
    1c7e:	c3 52       	subi	r28, 0x23	; 35
    1c80:	df 4f       	sbci	r29, 0xFF	; 255
    1c82:	68 81       	ld	r22, Y
    1c84:	79 81       	ldd	r23, Y+1	; 0x01
    1c86:	8a 81       	ldd	r24, Y+2	; 0x02
    1c88:	9b 81       	ldd	r25, Y+3	; 0x03
    1c8a:	cd 5d       	subi	r28, 0xDD	; 221
    1c8c:	d0 40       	sbci	r29, 0x00	; 0
    1c8e:	0e 94 ab 15 	call	0x2b56	; 0x2b56 <__fixunssfsi>
    1c92:	cb 57       	subi	r28, 0x7B	; 123
    1c94:	de 4f       	sbci	r29, 0xFE	; 254
    1c96:	68 83       	st	Y, r22
    1c98:	79 83       	std	Y+1, r23	; 0x01
    1c9a:	8a 83       	std	Y+2, r24	; 0x02
    1c9c:	9b 83       	std	Y+3, r25	; 0x03
    1c9e:	c5 58       	subi	r28, 0x85	; 133
    1ca0:	d1 40       	sbci	r29, 0x01	; 1
    1ca2:	cb 57       	subi	r28, 0x7B	; 123
    1ca4:	de 4f       	sbci	r29, 0xFE	; 254
    1ca6:	e8 81       	ld	r30, Y
    1ca8:	f9 81       	ldd	r31, Y+1	; 0x01
    1caa:	c5 58       	subi	r28, 0x85	; 133
    1cac:	d1 40       	sbci	r29, 0x01	; 1
    1cae:	d8 01       	movw	r26, r16
    1cb0:	11 96       	adiw	r26, 0x01	; 1
    1cb2:	fc 93       	st	X, r31
    1cb4:	ee 93       	st	-X, r30

00001cb6 <.Loc.302>:
		while(__ticks)
    1cb6:	26 c0       	rjmp	.+76     	; 0x1d04 <.L117>

00001cb8 <.L118>:
    1cb8:	ce 01       	movw	r24, r28
    1cba:	85 57       	subi	r24, 0x75	; 117
    1cbc:	9f 4f       	sbci	r25, 0xFF	; 255
    1cbe:	20 e9       	ldi	r18, 0x90	; 144
    1cc0:	31 e0       	ldi	r19, 0x01	; 1
    1cc2:	dc 01       	movw	r26, r24
    1cc4:	2d 93       	st	X+, r18
    1cc6:	3c 93       	st	X, r19

00001cc8 <.LBB140>:
    1cc8:	ce 01       	movw	r24, r28
    1cca:	85 57       	subi	r24, 0x75	; 117
    1ccc:	9f 4f       	sbci	r25, 0xFF	; 255
    1cce:	fc 01       	movw	r30, r24
    1cd0:	80 81       	ld	r24, Z
    1cd2:	91 81       	ldd	r25, Z+1	; 0x01

00001cd4 <.L1^B19>:
    1cd4:	01 97       	sbiw	r24, 0x01	; 1
    1cd6:	f1 f7       	brne	.-4      	; 0x1cd4 <.L1^B19>
    1cd8:	9e 01       	movw	r18, r28
    1cda:	25 57       	subi	r18, 0x75	; 117
    1cdc:	3f 4f       	sbci	r19, 0xFF	; 255
    1cde:	d9 01       	movw	r26, r18
    1ce0:	8d 93       	st	X+, r24
    1ce2:	9c 93       	st	X, r25

00001ce4 <.Loc.304>:
	...

00001ce6 <.LBE140>:
			__ticks --;
    1ce6:	ce 01       	movw	r24, r28
    1ce8:	87 57       	subi	r24, 0x77	; 119
    1cea:	9f 4f       	sbci	r25, 0xFF	; 255
    1cec:	9e 01       	movw	r18, r28
    1cee:	27 57       	subi	r18, 0x77	; 119
    1cf0:	3f 4f       	sbci	r19, 0xFF	; 255
    1cf2:	f9 01       	movw	r30, r18
    1cf4:	20 81       	ld	r18, Z
    1cf6:	31 81       	ldd	r19, Z+1	; 0x01
    1cf8:	21 50       	subi	r18, 0x01	; 1
    1cfa:	31 09       	sbc	r19, r1
    1cfc:	dc 01       	movw	r26, r24
    1cfe:	11 96       	adiw	r26, 0x01	; 1
    1d00:	3c 93       	st	X, r19
    1d02:	2e 93       	st	-X, r18

00001d04 <.L117>:
		while(__ticks)
    1d04:	ce 01       	movw	r24, r28
    1d06:	87 57       	subi	r24, 0x77	; 119
    1d08:	9f 4f       	sbci	r25, 0xFF	; 255
    1d0a:	fc 01       	movw	r30, r24
    1d0c:	80 81       	ld	r24, Z
    1d0e:	91 81       	ldd	r25, Z+1	; 0x01
    1d10:	00 97       	sbiw	r24, 0x00	; 0
    1d12:	91 f6       	brne	.-92     	; 0x1cb8 <.L118>

00001d14 <.Loc.307>:
		return;
    1d14:	39 c0       	rjmp	.+114    	; 0x1d88 <.L119>

00001d16 <.L193>:
		__ticks = (uint16_t)__tmp;
    1d16:	8e 01       	movw	r16, r28
    1d18:	07 57       	subi	r16, 0x77	; 119
    1d1a:	1f 4f       	sbci	r17, 0xFF	; 255
    1d1c:	ce 01       	movw	r24, r28
    1d1e:	8b 57       	subi	r24, 0x7B	; 123
    1d20:	9f 4f       	sbci	r25, 0xFF	; 255
    1d22:	dc 01       	movw	r26, r24
    1d24:	6d 91       	ld	r22, X+
    1d26:	7d 91       	ld	r23, X+
    1d28:	8d 91       	ld	r24, X+
    1d2a:	9c 91       	ld	r25, X
    1d2c:	0e 94 ab 15 	call	0x2b56	; 0x2b56 <__fixunssfsi>
    1d30:	c7 57       	subi	r28, 0x77	; 119
    1d32:	de 4f       	sbci	r29, 0xFE	; 254
    1d34:	68 83       	st	Y, r22
    1d36:	79 83       	std	Y+1, r23	; 0x01
    1d38:	8a 83       	std	Y+2, r24	; 0x02
    1d3a:	9b 83       	std	Y+3, r25	; 0x03
    1d3c:	c9 58       	subi	r28, 0x89	; 137
    1d3e:	d1 40       	sbci	r29, 0x01	; 1
    1d40:	c7 57       	subi	r28, 0x77	; 119
    1d42:	de 4f       	sbci	r29, 0xFE	; 254
    1d44:	88 81       	ld	r24, Y
    1d46:	99 81       	ldd	r25, Y+1	; 0x01
    1d48:	c9 58       	subi	r28, 0x89	; 137
    1d4a:	d1 40       	sbci	r29, 0x01	; 1
    1d4c:	f8 01       	movw	r30, r16
    1d4e:	91 83       	std	Z+1, r25	; 0x01
    1d50:	80 83       	st	Z, r24

00001d52 <.L114>:
    1d52:	ce 01       	movw	r24, r28
    1d54:	83 57       	subi	r24, 0x73	; 115
    1d56:	9f 4f       	sbci	r25, 0xFF	; 255
    1d58:	9e 01       	movw	r18, r28
    1d5a:	27 57       	subi	r18, 0x77	; 119
    1d5c:	3f 4f       	sbci	r19, 0xFF	; 255
    1d5e:	d9 01       	movw	r26, r18
    1d60:	2d 91       	ld	r18, X+
    1d62:	3c 91       	ld	r19, X
    1d64:	fc 01       	movw	r30, r24
    1d66:	31 83       	std	Z+1, r19	; 0x01
    1d68:	20 83       	st	Z, r18

00001d6a <.LBB142>:
    1d6a:	ce 01       	movw	r24, r28
    1d6c:	83 57       	subi	r24, 0x73	; 115
    1d6e:	9f 4f       	sbci	r25, 0xFF	; 255
    1d70:	dc 01       	movw	r26, r24
    1d72:	8d 91       	ld	r24, X+
    1d74:	9c 91       	ld	r25, X

00001d76 <.L1^B20>:
    1d76:	01 97       	sbiw	r24, 0x01	; 1
    1d78:	f1 f7       	brne	.-4      	; 0x1d76 <.L1^B20>
    1d7a:	9e 01       	movw	r18, r28
    1d7c:	23 57       	subi	r18, 0x73	; 115
    1d7e:	3f 4f       	sbci	r19, 0xFF	; 255
    1d80:	f9 01       	movw	r30, r18
    1d82:	91 83       	std	Z+1, r25	; 0x01
    1d84:	80 83       	st	Z, r24

00001d86 <.Loc.310>:
	...

00001d88 <.L119>:
            {
                DEBOUNCE;
                h_bridge_set_percentage(0);
    1d88:	80 e0       	ldi	r24, 0x00	; 0
    1d8a:	0e 94 c3 02 	call	0x586	; 0x586 <h_bridge_set_percentage>

00001d8e <.Loc.312>:
                status = 2;
    1d8e:	82 e0       	ldi	r24, 0x02	; 2
    1d90:	90 e0       	ldi	r25, 0x00	; 0
    1d92:	9a 83       	std	Y+2, r25	; 0x02
    1d94:	89 83       	std	Y+1, r24	; 0x01

00001d96 <.Loc.313>:
                break;
    1d96:	8a c3       	rjmp	.+1812   	; 0x24ac <.L31>

00001d98 <.L111>:
            }
            h_bridge_set_percentage(-70);
    1d98:	8a eb       	ldi	r24, 0xBA	; 186
    1d9a:	0e 94 c3 02 	call	0x586	; 0x586 <h_bridge_set_percentage>

00001d9e <.Loc.315>:
            break;
    1d9e:	86 c3       	rjmp	.+1804   	; 0x24ac <.L31>

00001da0 <.L43>:
        case 4:
            if (!(PINA &(1<<middel_switch)))
    1da0:	80 e2       	ldi	r24, 0x20	; 32
    1da2:	90 e0       	ldi	r25, 0x00	; 0
    1da4:	dc 01       	movw	r26, r24
    1da6:	8c 91       	ld	r24, X

00001da8 <.Loc.317>:
    1da8:	88 2f       	mov	r24, r24
    1daa:	90 e0       	ldi	r25, 0x00	; 0
    1dac:	80 72       	andi	r24, 0x20	; 32
    1dae:	99 27       	eor	r25, r25

00001db0 <.Loc.318>:
    1db0:	00 97       	sbiw	r24, 0x00	; 0
    1db2:	09 f0       	breq	.+2      	; 0x1db6 <L0^A+0x2>

00001db4 <L0^A>:
    1db4:	13 c1       	rjmp	.+550    	; 0x1fdc <.L120>
    1db6:	9e 01       	movw	r18, r28
    1db8:	21 57       	subi	r18, 0x71	; 113
    1dba:	3f 4f       	sbci	r19, 0xFF	; 255
    1dbc:	80 e0       	ldi	r24, 0x00	; 0
    1dbe:	90 e0       	ldi	r25, 0x00	; 0
    1dc0:	a0 ea       	ldi	r26, 0xA0	; 160
    1dc2:	b1 e4       	ldi	r27, 0x41	; 65
    1dc4:	f9 01       	movw	r30, r18
    1dc6:	80 83       	st	Z, r24
    1dc8:	91 83       	std	Z+1, r25	; 0x01
    1dca:	a2 83       	std	Z+2, r26	; 0x02
    1dcc:	b3 83       	std	Z+3, r27	; 0x03

00001dce <.LBB144>:
	__tmp = ((F_CPU) / 4e3) * __ms;
    1dce:	8e 01       	movw	r16, r28
    1dd0:	0d 56       	subi	r16, 0x6D	; 109
    1dd2:	1f 4f       	sbci	r17, 0xFF	; 255
    1dd4:	ce 01       	movw	r24, r28
    1dd6:	81 57       	subi	r24, 0x71	; 113
    1dd8:	9f 4f       	sbci	r25, 0xFF	; 255
    1dda:	20 e0       	ldi	r18, 0x00	; 0
    1ddc:	30 e0       	ldi	r19, 0x00	; 0
    1dde:	4a e7       	ldi	r20, 0x7A	; 122
    1de0:	55 e4       	ldi	r21, 0x45	; 69
    1de2:	dc 01       	movw	r26, r24
    1de4:	6d 91       	ld	r22, X+
    1de6:	7d 91       	ld	r23, X+
    1de8:	8d 91       	ld	r24, X+
    1dea:	9c 91       	ld	r25, X
    1dec:	0e 94 91 16 	call	0x2d22	; 0x2d22 <__mulsf3>
    1df0:	c3 57       	subi	r28, 0x73	; 115
    1df2:	de 4f       	sbci	r29, 0xFE	; 254
    1df4:	68 83       	st	Y, r22
    1df6:	79 83       	std	Y+1, r23	; 0x01
    1df8:	8a 83       	std	Y+2, r24	; 0x02
    1dfa:	9b 83       	std	Y+3, r25	; 0x03
    1dfc:	cd 58       	subi	r28, 0x8D	; 141
    1dfe:	d1 40       	sbci	r29, 0x01	; 1
    1e00:	c3 57       	subi	r28, 0x73	; 115
    1e02:	de 4f       	sbci	r29, 0xFE	; 254
    1e04:	88 81       	ld	r24, Y
    1e06:	99 81       	ldd	r25, Y+1	; 0x01
    1e08:	aa 81       	ldd	r26, Y+2	; 0x02
    1e0a:	bb 81       	ldd	r27, Y+3	; 0x03
    1e0c:	cd 58       	subi	r28, 0x8D	; 141
    1e0e:	d1 40       	sbci	r29, 0x01	; 1
    1e10:	f8 01       	movw	r30, r16
    1e12:	80 83       	st	Z, r24
    1e14:	91 83       	std	Z+1, r25	; 0x01
    1e16:	a2 83       	std	Z+2, r26	; 0x02
    1e18:	b3 83       	std	Z+3, r27	; 0x03

00001e1a <.Loc.320>:
	if (__tmp < 1.0)
    1e1a:	ce 01       	movw	r24, r28
    1e1c:	8d 56       	subi	r24, 0x6D	; 109
    1e1e:	9f 4f       	sbci	r25, 0xFF	; 255
    1e20:	20 e0       	ldi	r18, 0x00	; 0
    1e22:	30 e0       	ldi	r19, 0x00	; 0
    1e24:	40 e8       	ldi	r20, 0x80	; 128
    1e26:	5f e3       	ldi	r21, 0x3F	; 63
    1e28:	dc 01       	movw	r26, r24
    1e2a:	6d 91       	ld	r22, X+
    1e2c:	7d 91       	ld	r23, X+
    1e2e:	8d 91       	ld	r24, X+
    1e30:	9c 91       	ld	r25, X
    1e32:	0e 94 a6 15 	call	0x2b4c	; 0x2b4c <__cmpsf2>
    1e36:	88 23       	and	r24, r24
    1e38:	4c f4       	brge	.+18     	; 0x1e4c <.L194>

00001e3a <.Loc.321>:
		__ticks = 1;
    1e3a:	ce 01       	movw	r24, r28
    1e3c:	89 56       	subi	r24, 0x69	; 105
    1e3e:	9f 4f       	sbci	r25, 0xFF	; 255
    1e40:	21 e0       	ldi	r18, 0x01	; 1
    1e42:	30 e0       	ldi	r19, 0x00	; 0
    1e44:	fc 01       	movw	r30, r24
    1e46:	31 83       	std	Z+1, r19	; 0x01
    1e48:	20 83       	st	Z, r18
    1e4a:	a5 c0       	rjmp	.+330    	; 0x1f96 <.L123>

00001e4c <.L194>:
	else if (__tmp > 65535)
    1e4c:	ce 01       	movw	r24, r28
    1e4e:	8d 56       	subi	r24, 0x6D	; 109
    1e50:	9f 4f       	sbci	r25, 0xFF	; 255
    1e52:	20 e0       	ldi	r18, 0x00	; 0
    1e54:	3f ef       	ldi	r19, 0xFF	; 255
    1e56:	4f e7       	ldi	r20, 0x7F	; 127
    1e58:	57 e4       	ldi	r21, 0x47	; 71
    1e5a:	dc 01       	movw	r26, r24
    1e5c:	6d 91       	ld	r22, X+
    1e5e:	7d 91       	ld	r23, X+
    1e60:	8d 91       	ld	r24, X+
    1e62:	9c 91       	ld	r25, X
    1e64:	0e 94 8c 16 	call	0x2d18	; 0x2d18 <__gesf2>
    1e68:	88 23       	and	r24, r24
    1e6a:	09 f0       	breq	.+2      	; 0x1e6e <L0^A>

00001e6c <L0^A>:
    1e6c:	0c f4       	brge	.+2      	; 0x1e70 <.Loc.323>

00001e6e <L0^A>:
    1e6e:	75 c0       	rjmp	.+234    	; 0x1f5a <.L195>

00001e70 <.Loc.323>:
		__ticks = (uint16_t) (__ms * 10.0);
    1e70:	ce 01       	movw	r24, r28
    1e72:	81 57       	subi	r24, 0x71	; 113
    1e74:	9f 4f       	sbci	r25, 0xFF	; 255
    1e76:	20 e0       	ldi	r18, 0x00	; 0
    1e78:	30 e0       	ldi	r19, 0x00	; 0
    1e7a:	40 e2       	ldi	r20, 0x20	; 32
    1e7c:	51 e4       	ldi	r21, 0x41	; 65
    1e7e:	fc 01       	movw	r30, r24
    1e80:	60 81       	ld	r22, Z
    1e82:	71 81       	ldd	r23, Z+1	; 0x01
    1e84:	82 81       	ldd	r24, Z+2	; 0x02
    1e86:	93 81       	ldd	r25, Z+3	; 0x03
    1e88:	0e 94 91 16 	call	0x2d22	; 0x2d22 <__mulsf3>
    1e8c:	cf 56       	subi	r28, 0x6F	; 111
    1e8e:	de 4f       	sbci	r29, 0xFE	; 254
    1e90:	68 83       	st	Y, r22
    1e92:	79 83       	std	Y+1, r23	; 0x01
    1e94:	8a 83       	std	Y+2, r24	; 0x02
    1e96:	9b 83       	std	Y+3, r25	; 0x03
    1e98:	c1 59       	subi	r28, 0x91	; 145
    1e9a:	d1 40       	sbci	r29, 0x01	; 1
    1e9c:	cf 56       	subi	r28, 0x6F	; 111
    1e9e:	de 4f       	sbci	r29, 0xFE	; 254
    1ea0:	88 81       	ld	r24, Y
    1ea2:	99 81       	ldd	r25, Y+1	; 0x01
    1ea4:	aa 81       	ldd	r26, Y+2	; 0x02
    1ea6:	bb 81       	ldd	r27, Y+3	; 0x03
    1ea8:	c1 59       	subi	r28, 0x91	; 145
    1eaa:	d1 40       	sbci	r29, 0x01	; 1
    1eac:	cf 51       	subi	r28, 0x1F	; 31
    1eae:	df 4f       	sbci	r29, 0xFF	; 255
    1eb0:	88 83       	st	Y, r24
    1eb2:	99 83       	std	Y+1, r25	; 0x01
    1eb4:	aa 83       	std	Y+2, r26	; 0x02
    1eb6:	bb 83       	std	Y+3, r27	; 0x03
    1eb8:	c1 5e       	subi	r28, 0xE1	; 225
    1eba:	d0 40       	sbci	r29, 0x00	; 0

00001ebc <.Loc.324>:
    1ebc:	8e 01       	movw	r16, r28
    1ebe:	09 56       	subi	r16, 0x69	; 105
    1ec0:	1f 4f       	sbci	r17, 0xFF	; 255
    1ec2:	cf 51       	subi	r28, 0x1F	; 31
    1ec4:	df 4f       	sbci	r29, 0xFF	; 255
    1ec6:	68 81       	ld	r22, Y
    1ec8:	79 81       	ldd	r23, Y+1	; 0x01
    1eca:	8a 81       	ldd	r24, Y+2	; 0x02
    1ecc:	9b 81       	ldd	r25, Y+3	; 0x03
    1ece:	c1 5e       	subi	r28, 0xE1	; 225
    1ed0:	d0 40       	sbci	r29, 0x00	; 0
    1ed2:	0e 94 ab 15 	call	0x2b56	; 0x2b56 <__fixunssfsi>
    1ed6:	cb 56       	subi	r28, 0x6B	; 107
    1ed8:	de 4f       	sbci	r29, 0xFE	; 254
    1eda:	68 83       	st	Y, r22
    1edc:	79 83       	std	Y+1, r23	; 0x01
    1ede:	8a 83       	std	Y+2, r24	; 0x02
    1ee0:	9b 83       	std	Y+3, r25	; 0x03
    1ee2:	c5 59       	subi	r28, 0x95	; 149
    1ee4:	d1 40       	sbci	r29, 0x01	; 1
    1ee6:	cb 56       	subi	r28, 0x6B	; 107
    1ee8:	de 4f       	sbci	r29, 0xFE	; 254
    1eea:	e8 81       	ld	r30, Y
    1eec:	f9 81       	ldd	r31, Y+1	; 0x01
    1eee:	c5 59       	subi	r28, 0x95	; 149
    1ef0:	d1 40       	sbci	r29, 0x01	; 1
    1ef2:	d8 01       	movw	r26, r16
    1ef4:	11 96       	adiw	r26, 0x01	; 1
    1ef6:	fc 93       	st	X, r31
    1ef8:	ee 93       	st	-X, r30

00001efa <.Loc.325>:
		while(__ticks)
    1efa:	26 c0       	rjmp	.+76     	; 0x1f48 <.L126>

00001efc <.L127>:
    1efc:	ce 01       	movw	r24, r28
    1efe:	87 56       	subi	r24, 0x67	; 103
    1f00:	9f 4f       	sbci	r25, 0xFF	; 255
    1f02:	20 e9       	ldi	r18, 0x90	; 144
    1f04:	31 e0       	ldi	r19, 0x01	; 1
    1f06:	dc 01       	movw	r26, r24
    1f08:	2d 93       	st	X+, r18
    1f0a:	3c 93       	st	X, r19

00001f0c <.LBB146>:
    1f0c:	ce 01       	movw	r24, r28
    1f0e:	87 56       	subi	r24, 0x67	; 103
    1f10:	9f 4f       	sbci	r25, 0xFF	; 255
    1f12:	fc 01       	movw	r30, r24
    1f14:	80 81       	ld	r24, Z
    1f16:	91 81       	ldd	r25, Z+1	; 0x01

00001f18 <.L1^B21>:
    1f18:	01 97       	sbiw	r24, 0x01	; 1
    1f1a:	f1 f7       	brne	.-4      	; 0x1f18 <.L1^B21>
    1f1c:	9e 01       	movw	r18, r28
    1f1e:	27 56       	subi	r18, 0x67	; 103
    1f20:	3f 4f       	sbci	r19, 0xFF	; 255
    1f22:	d9 01       	movw	r26, r18
    1f24:	8d 93       	st	X+, r24
    1f26:	9c 93       	st	X, r25

00001f28 <.Loc.327>:
	...

00001f2a <.LBE146>:
			__ticks --;
    1f2a:	ce 01       	movw	r24, r28
    1f2c:	89 56       	subi	r24, 0x69	; 105
    1f2e:	9f 4f       	sbci	r25, 0xFF	; 255
    1f30:	9e 01       	movw	r18, r28
    1f32:	29 56       	subi	r18, 0x69	; 105
    1f34:	3f 4f       	sbci	r19, 0xFF	; 255
    1f36:	f9 01       	movw	r30, r18
    1f38:	20 81       	ld	r18, Z
    1f3a:	31 81       	ldd	r19, Z+1	; 0x01
    1f3c:	21 50       	subi	r18, 0x01	; 1
    1f3e:	31 09       	sbc	r19, r1
    1f40:	dc 01       	movw	r26, r24
    1f42:	11 96       	adiw	r26, 0x01	; 1
    1f44:	3c 93       	st	X, r19
    1f46:	2e 93       	st	-X, r18

00001f48 <.L126>:
		while(__ticks)
    1f48:	ce 01       	movw	r24, r28
    1f4a:	89 56       	subi	r24, 0x69	; 105
    1f4c:	9f 4f       	sbci	r25, 0xFF	; 255
    1f4e:	fc 01       	movw	r30, r24
    1f50:	80 81       	ld	r24, Z
    1f52:	91 81       	ldd	r25, Z+1	; 0x01
    1f54:	00 97       	sbiw	r24, 0x00	; 0
    1f56:	91 f6       	brne	.-92     	; 0x1efc <.L127>

00001f58 <.Loc.330>:
		return;
    1f58:	39 c0       	rjmp	.+114    	; 0x1fcc <.L128>

00001f5a <.L195>:
		__ticks = (uint16_t)__tmp;
    1f5a:	8e 01       	movw	r16, r28
    1f5c:	09 56       	subi	r16, 0x69	; 105
    1f5e:	1f 4f       	sbci	r17, 0xFF	; 255
    1f60:	ce 01       	movw	r24, r28
    1f62:	8d 56       	subi	r24, 0x6D	; 109
    1f64:	9f 4f       	sbci	r25, 0xFF	; 255
    1f66:	dc 01       	movw	r26, r24
    1f68:	6d 91       	ld	r22, X+
    1f6a:	7d 91       	ld	r23, X+
    1f6c:	8d 91       	ld	r24, X+
    1f6e:	9c 91       	ld	r25, X
    1f70:	0e 94 ab 15 	call	0x2b56	; 0x2b56 <__fixunssfsi>
    1f74:	c7 56       	subi	r28, 0x67	; 103
    1f76:	de 4f       	sbci	r29, 0xFE	; 254
    1f78:	68 83       	st	Y, r22
    1f7a:	79 83       	std	Y+1, r23	; 0x01
    1f7c:	8a 83       	std	Y+2, r24	; 0x02
    1f7e:	9b 83       	std	Y+3, r25	; 0x03
    1f80:	c9 59       	subi	r28, 0x99	; 153
    1f82:	d1 40       	sbci	r29, 0x01	; 1
    1f84:	c7 56       	subi	r28, 0x67	; 103
    1f86:	de 4f       	sbci	r29, 0xFE	; 254
    1f88:	88 81       	ld	r24, Y
    1f8a:	99 81       	ldd	r25, Y+1	; 0x01
    1f8c:	c9 59       	subi	r28, 0x99	; 153
    1f8e:	d1 40       	sbci	r29, 0x01	; 1
    1f90:	f8 01       	movw	r30, r16
    1f92:	91 83       	std	Z+1, r25	; 0x01
    1f94:	80 83       	st	Z, r24

00001f96 <.L123>:
    1f96:	ce 01       	movw	r24, r28
    1f98:	85 56       	subi	r24, 0x65	; 101
    1f9a:	9f 4f       	sbci	r25, 0xFF	; 255
    1f9c:	9e 01       	movw	r18, r28
    1f9e:	29 56       	subi	r18, 0x69	; 105
    1fa0:	3f 4f       	sbci	r19, 0xFF	; 255
    1fa2:	d9 01       	movw	r26, r18
    1fa4:	2d 91       	ld	r18, X+
    1fa6:	3c 91       	ld	r19, X
    1fa8:	fc 01       	movw	r30, r24
    1faa:	31 83       	std	Z+1, r19	; 0x01
    1fac:	20 83       	st	Z, r18

00001fae <.LBB148>:
    1fae:	ce 01       	movw	r24, r28
    1fb0:	85 56       	subi	r24, 0x65	; 101
    1fb2:	9f 4f       	sbci	r25, 0xFF	; 255
    1fb4:	dc 01       	movw	r26, r24
    1fb6:	8d 91       	ld	r24, X+
    1fb8:	9c 91       	ld	r25, X

00001fba <.L1^B22>:
    1fba:	01 97       	sbiw	r24, 0x01	; 1
    1fbc:	f1 f7       	brne	.-4      	; 0x1fba <.L1^B22>
    1fbe:	9e 01       	movw	r18, r28
    1fc0:	25 56       	subi	r18, 0x65	; 101
    1fc2:	3f 4f       	sbci	r19, 0xFF	; 255
    1fc4:	f9 01       	movw	r30, r18
    1fc6:	91 83       	std	Z+1, r25	; 0x01
    1fc8:	80 83       	st	Z, r24

00001fca <.Loc.333>:
	...

00001fcc <.L128>:
            {
                DEBOUNCE;
                h_bridge_set_percentage(0);
    1fcc:	80 e0       	ldi	r24, 0x00	; 0
    1fce:	0e 94 c3 02 	call	0x586	; 0x586 <h_bridge_set_percentage>

00001fd2 <.Loc.335>:
                status = 6;
    1fd2:	86 e0       	ldi	r24, 0x06	; 6
    1fd4:	90 e0       	ldi	r25, 0x00	; 0
    1fd6:	9a 83       	std	Y+2, r25	; 0x02
    1fd8:	89 83       	std	Y+1, r24	; 0x01

00001fda <.Loc.336>:
                break;
    1fda:	68 c2       	rjmp	.+1232   	; 0x24ac <.L31>

00001fdc <.L120>:
            }
            h_bridge_set_percentage(70);
    1fdc:	86 e4       	ldi	r24, 0x46	; 70
    1fde:	0e 94 c3 02 	call	0x586	; 0x586 <h_bridge_set_percentage>

00001fe2 <.Loc.338>:
            break;
    1fe2:	64 c2       	rjmp	.+1224   	; 0x24ac <.L31>

00001fe4 <.L41>:
        case 6:
            servo1_set_percentage(50);
    1fe4:	82 e3       	ldi	r24, 0x32	; 50
    1fe6:	0e 94 c6 13 	call	0x278c	; 0x278c <servo1_set_percentage>

00001fea <.Loc.340>:
            servo2_set_percentage(50);
    1fea:	82 e3       	ldi	r24, 0x32	; 50
    1fec:	0e 94 3a 14 	call	0x2874	; 0x2874 <servo2_set_percentage>

00001ff0 <.Loc.341>:
            status = 8;
    1ff0:	88 e0       	ldi	r24, 0x08	; 8
    1ff2:	90 e0       	ldi	r25, 0x00	; 0
    1ff4:	9a 83       	std	Y+2, r25	; 0x02
    1ff6:	89 83       	std	Y+1, r24	; 0x01

00001ff8 <.Loc.342>:
            break;
    1ff8:	59 c2       	rjmp	.+1202   	; 0x24ac <.L31>

00001ffa <.L39>:
        case 8:
            if(!(PINA & (1<<top_switch)))
    1ffa:	80 e2       	ldi	r24, 0x20	; 32
    1ffc:	90 e0       	ldi	r25, 0x00	; 0
    1ffe:	dc 01       	movw	r26, r24
    2000:	8c 91       	ld	r24, X

00002002 <.Loc.344>:
    2002:	88 2f       	mov	r24, r24
    2004:	90 e0       	ldi	r25, 0x00	; 0
    2006:	82 70       	andi	r24, 0x02	; 2
    2008:	99 27       	eor	r25, r25

0000200a <.Loc.345>:
    200a:	00 97       	sbiw	r24, 0x00	; 0
    200c:	09 f0       	breq	.+2      	; 0x2010 <L0^A+0x2>

0000200e <L0^A>:
    200e:	13 c1       	rjmp	.+550    	; 0x2236 <.L129>
    2010:	9e 01       	movw	r18, r28
    2012:	23 56       	subi	r18, 0x63	; 99
    2014:	3f 4f       	sbci	r19, 0xFF	; 255
    2016:	80 e0       	ldi	r24, 0x00	; 0
    2018:	90 e0       	ldi	r25, 0x00	; 0
    201a:	a0 ea       	ldi	r26, 0xA0	; 160
    201c:	b1 e4       	ldi	r27, 0x41	; 65
    201e:	f9 01       	movw	r30, r18
    2020:	80 83       	st	Z, r24
    2022:	91 83       	std	Z+1, r25	; 0x01
    2024:	a2 83       	std	Z+2, r26	; 0x02
    2026:	b3 83       	std	Z+3, r27	; 0x03

00002028 <.LBB150>:
	__tmp = ((F_CPU) / 4e3) * __ms;
    2028:	8e 01       	movw	r16, r28
    202a:	0f 55       	subi	r16, 0x5F	; 95
    202c:	1f 4f       	sbci	r17, 0xFF	; 255
    202e:	ce 01       	movw	r24, r28
    2030:	83 56       	subi	r24, 0x63	; 99
    2032:	9f 4f       	sbci	r25, 0xFF	; 255
    2034:	20 e0       	ldi	r18, 0x00	; 0
    2036:	30 e0       	ldi	r19, 0x00	; 0
    2038:	4a e7       	ldi	r20, 0x7A	; 122
    203a:	55 e4       	ldi	r21, 0x45	; 69
    203c:	dc 01       	movw	r26, r24
    203e:	6d 91       	ld	r22, X+
    2040:	7d 91       	ld	r23, X+
    2042:	8d 91       	ld	r24, X+
    2044:	9c 91       	ld	r25, X
    2046:	0e 94 91 16 	call	0x2d22	; 0x2d22 <__mulsf3>
    204a:	c3 56       	subi	r28, 0x63	; 99
    204c:	de 4f       	sbci	r29, 0xFE	; 254
    204e:	68 83       	st	Y, r22
    2050:	79 83       	std	Y+1, r23	; 0x01
    2052:	8a 83       	std	Y+2, r24	; 0x02
    2054:	9b 83       	std	Y+3, r25	; 0x03
    2056:	cd 59       	subi	r28, 0x9D	; 157
    2058:	d1 40       	sbci	r29, 0x01	; 1
    205a:	c3 56       	subi	r28, 0x63	; 99
    205c:	de 4f       	sbci	r29, 0xFE	; 254
    205e:	88 81       	ld	r24, Y
    2060:	99 81       	ldd	r25, Y+1	; 0x01
    2062:	aa 81       	ldd	r26, Y+2	; 0x02
    2064:	bb 81       	ldd	r27, Y+3	; 0x03
    2066:	cd 59       	subi	r28, 0x9D	; 157
    2068:	d1 40       	sbci	r29, 0x01	; 1
    206a:	f8 01       	movw	r30, r16
    206c:	80 83       	st	Z, r24
    206e:	91 83       	std	Z+1, r25	; 0x01
    2070:	a2 83       	std	Z+2, r26	; 0x02
    2072:	b3 83       	std	Z+3, r27	; 0x03

00002074 <.Loc.347>:
	if (__tmp < 1.0)
    2074:	ce 01       	movw	r24, r28
    2076:	8f 55       	subi	r24, 0x5F	; 95
    2078:	9f 4f       	sbci	r25, 0xFF	; 255
    207a:	20 e0       	ldi	r18, 0x00	; 0
    207c:	30 e0       	ldi	r19, 0x00	; 0
    207e:	40 e8       	ldi	r20, 0x80	; 128
    2080:	5f e3       	ldi	r21, 0x3F	; 63
    2082:	dc 01       	movw	r26, r24
    2084:	6d 91       	ld	r22, X+
    2086:	7d 91       	ld	r23, X+
    2088:	8d 91       	ld	r24, X+
    208a:	9c 91       	ld	r25, X
    208c:	0e 94 a6 15 	call	0x2b4c	; 0x2b4c <__cmpsf2>
    2090:	88 23       	and	r24, r24
    2092:	4c f4       	brge	.+18     	; 0x20a6 <.L196>

00002094 <.Loc.348>:
		__ticks = 1;
    2094:	ce 01       	movw	r24, r28
    2096:	8b 55       	subi	r24, 0x5B	; 91
    2098:	9f 4f       	sbci	r25, 0xFF	; 255
    209a:	21 e0       	ldi	r18, 0x01	; 1
    209c:	30 e0       	ldi	r19, 0x00	; 0
    209e:	fc 01       	movw	r30, r24
    20a0:	31 83       	std	Z+1, r19	; 0x01
    20a2:	20 83       	st	Z, r18
    20a4:	a5 c0       	rjmp	.+330    	; 0x21f0 <.L132>

000020a6 <.L196>:
	else if (__tmp > 65535)
    20a6:	ce 01       	movw	r24, r28
    20a8:	8f 55       	subi	r24, 0x5F	; 95
    20aa:	9f 4f       	sbci	r25, 0xFF	; 255
    20ac:	20 e0       	ldi	r18, 0x00	; 0
    20ae:	3f ef       	ldi	r19, 0xFF	; 255
    20b0:	4f e7       	ldi	r20, 0x7F	; 127
    20b2:	57 e4       	ldi	r21, 0x47	; 71
    20b4:	dc 01       	movw	r26, r24
    20b6:	6d 91       	ld	r22, X+
    20b8:	7d 91       	ld	r23, X+
    20ba:	8d 91       	ld	r24, X+
    20bc:	9c 91       	ld	r25, X
    20be:	0e 94 8c 16 	call	0x2d18	; 0x2d18 <__gesf2>
    20c2:	88 23       	and	r24, r24
    20c4:	09 f0       	breq	.+2      	; 0x20c8 <L0^A>

000020c6 <L0^A>:
    20c6:	0c f4       	brge	.+2      	; 0x20ca <.Loc.350>

000020c8 <L0^A>:
    20c8:	75 c0       	rjmp	.+234    	; 0x21b4 <.L197>

000020ca <.Loc.350>:
		__ticks = (uint16_t) (__ms * 10.0);
    20ca:	ce 01       	movw	r24, r28
    20cc:	83 56       	subi	r24, 0x63	; 99
    20ce:	9f 4f       	sbci	r25, 0xFF	; 255
    20d0:	20 e0       	ldi	r18, 0x00	; 0
    20d2:	30 e0       	ldi	r19, 0x00	; 0
    20d4:	40 e2       	ldi	r20, 0x20	; 32
    20d6:	51 e4       	ldi	r21, 0x41	; 65
    20d8:	fc 01       	movw	r30, r24
    20da:	60 81       	ld	r22, Z
    20dc:	71 81       	ldd	r23, Z+1	; 0x01
    20de:	82 81       	ldd	r24, Z+2	; 0x02
    20e0:	93 81       	ldd	r25, Z+3	; 0x03
    20e2:	0e 94 91 16 	call	0x2d22	; 0x2d22 <__mulsf3>
    20e6:	cf 55       	subi	r28, 0x5F	; 95
    20e8:	de 4f       	sbci	r29, 0xFE	; 254
    20ea:	68 83       	st	Y, r22
    20ec:	79 83       	std	Y+1, r23	; 0x01
    20ee:	8a 83       	std	Y+2, r24	; 0x02
    20f0:	9b 83       	std	Y+3, r25	; 0x03
    20f2:	c1 5a       	subi	r28, 0xA1	; 161
    20f4:	d1 40       	sbci	r29, 0x01	; 1
    20f6:	cf 55       	subi	r28, 0x5F	; 95
    20f8:	de 4f       	sbci	r29, 0xFE	; 254
    20fa:	88 81       	ld	r24, Y
    20fc:	99 81       	ldd	r25, Y+1	; 0x01
    20fe:	aa 81       	ldd	r26, Y+2	; 0x02
    2100:	bb 81       	ldd	r27, Y+3	; 0x03
    2102:	c1 5a       	subi	r28, 0xA1	; 161
    2104:	d1 40       	sbci	r29, 0x01	; 1
    2106:	cb 51       	subi	r28, 0x1B	; 27
    2108:	df 4f       	sbci	r29, 0xFF	; 255
    210a:	88 83       	st	Y, r24
    210c:	99 83       	std	Y+1, r25	; 0x01
    210e:	aa 83       	std	Y+2, r26	; 0x02
    2110:	bb 83       	std	Y+3, r27	; 0x03
    2112:	c5 5e       	subi	r28, 0xE5	; 229
    2114:	d0 40       	sbci	r29, 0x00	; 0

00002116 <.Loc.351>:
    2116:	8e 01       	movw	r16, r28
    2118:	0b 55       	subi	r16, 0x5B	; 91
    211a:	1f 4f       	sbci	r17, 0xFF	; 255
    211c:	cb 51       	subi	r28, 0x1B	; 27
    211e:	df 4f       	sbci	r29, 0xFF	; 255
    2120:	68 81       	ld	r22, Y
    2122:	79 81       	ldd	r23, Y+1	; 0x01
    2124:	8a 81       	ldd	r24, Y+2	; 0x02
    2126:	9b 81       	ldd	r25, Y+3	; 0x03
    2128:	c5 5e       	subi	r28, 0xE5	; 229
    212a:	d0 40       	sbci	r29, 0x00	; 0
    212c:	0e 94 ab 15 	call	0x2b56	; 0x2b56 <__fixunssfsi>
    2130:	cb 55       	subi	r28, 0x5B	; 91
    2132:	de 4f       	sbci	r29, 0xFE	; 254
    2134:	68 83       	st	Y, r22
    2136:	79 83       	std	Y+1, r23	; 0x01
    2138:	8a 83       	std	Y+2, r24	; 0x02
    213a:	9b 83       	std	Y+3, r25	; 0x03
    213c:	c5 5a       	subi	r28, 0xA5	; 165
    213e:	d1 40       	sbci	r29, 0x01	; 1
    2140:	cb 55       	subi	r28, 0x5B	; 91
    2142:	de 4f       	sbci	r29, 0xFE	; 254
    2144:	e8 81       	ld	r30, Y
    2146:	f9 81       	ldd	r31, Y+1	; 0x01
    2148:	c5 5a       	subi	r28, 0xA5	; 165
    214a:	d1 40       	sbci	r29, 0x01	; 1
    214c:	d8 01       	movw	r26, r16
    214e:	11 96       	adiw	r26, 0x01	; 1
    2150:	fc 93       	st	X, r31
    2152:	ee 93       	st	-X, r30

00002154 <.Loc.352>:
		while(__ticks)
    2154:	26 c0       	rjmp	.+76     	; 0x21a2 <.L135>

00002156 <.L136>:
    2156:	ce 01       	movw	r24, r28
    2158:	89 55       	subi	r24, 0x59	; 89
    215a:	9f 4f       	sbci	r25, 0xFF	; 255
    215c:	20 e9       	ldi	r18, 0x90	; 144
    215e:	31 e0       	ldi	r19, 0x01	; 1
    2160:	dc 01       	movw	r26, r24
    2162:	2d 93       	st	X+, r18
    2164:	3c 93       	st	X, r19

00002166 <.LBB152>:
    2166:	ce 01       	movw	r24, r28
    2168:	89 55       	subi	r24, 0x59	; 89
    216a:	9f 4f       	sbci	r25, 0xFF	; 255
    216c:	fc 01       	movw	r30, r24
    216e:	80 81       	ld	r24, Z
    2170:	91 81       	ldd	r25, Z+1	; 0x01

00002172 <.L1^B23>:
    2172:	01 97       	sbiw	r24, 0x01	; 1
    2174:	f1 f7       	brne	.-4      	; 0x2172 <.L1^B23>
    2176:	9e 01       	movw	r18, r28
    2178:	29 55       	subi	r18, 0x59	; 89
    217a:	3f 4f       	sbci	r19, 0xFF	; 255
    217c:	d9 01       	movw	r26, r18
    217e:	8d 93       	st	X+, r24
    2180:	9c 93       	st	X, r25

00002182 <.Loc.354>:
	...

00002184 <.LBE152>:
			__ticks --;
    2184:	ce 01       	movw	r24, r28
    2186:	8b 55       	subi	r24, 0x5B	; 91
    2188:	9f 4f       	sbci	r25, 0xFF	; 255
    218a:	9e 01       	movw	r18, r28
    218c:	2b 55       	subi	r18, 0x5B	; 91
    218e:	3f 4f       	sbci	r19, 0xFF	; 255
    2190:	f9 01       	movw	r30, r18
    2192:	20 81       	ld	r18, Z
    2194:	31 81       	ldd	r19, Z+1	; 0x01
    2196:	21 50       	subi	r18, 0x01	; 1
    2198:	31 09       	sbc	r19, r1
    219a:	dc 01       	movw	r26, r24
    219c:	11 96       	adiw	r26, 0x01	; 1
    219e:	3c 93       	st	X, r19
    21a0:	2e 93       	st	-X, r18

000021a2 <.L135>:
		while(__ticks)
    21a2:	ce 01       	movw	r24, r28
    21a4:	8b 55       	subi	r24, 0x5B	; 91
    21a6:	9f 4f       	sbci	r25, 0xFF	; 255
    21a8:	fc 01       	movw	r30, r24
    21aa:	80 81       	ld	r24, Z
    21ac:	91 81       	ldd	r25, Z+1	; 0x01
    21ae:	00 97       	sbiw	r24, 0x00	; 0
    21b0:	91 f6       	brne	.-92     	; 0x2156 <.L136>

000021b2 <.Loc.357>:
		return;
    21b2:	39 c0       	rjmp	.+114    	; 0x2226 <.L137>

000021b4 <.L197>:
		__ticks = (uint16_t)__tmp;
    21b4:	8e 01       	movw	r16, r28
    21b6:	0b 55       	subi	r16, 0x5B	; 91
    21b8:	1f 4f       	sbci	r17, 0xFF	; 255
    21ba:	ce 01       	movw	r24, r28
    21bc:	8f 55       	subi	r24, 0x5F	; 95
    21be:	9f 4f       	sbci	r25, 0xFF	; 255
    21c0:	dc 01       	movw	r26, r24
    21c2:	6d 91       	ld	r22, X+
    21c4:	7d 91       	ld	r23, X+
    21c6:	8d 91       	ld	r24, X+
    21c8:	9c 91       	ld	r25, X
    21ca:	0e 94 ab 15 	call	0x2b56	; 0x2b56 <__fixunssfsi>
    21ce:	c7 55       	subi	r28, 0x57	; 87
    21d0:	de 4f       	sbci	r29, 0xFE	; 254
    21d2:	68 83       	st	Y, r22
    21d4:	79 83       	std	Y+1, r23	; 0x01
    21d6:	8a 83       	std	Y+2, r24	; 0x02
    21d8:	9b 83       	std	Y+3, r25	; 0x03
    21da:	c9 5a       	subi	r28, 0xA9	; 169
    21dc:	d1 40       	sbci	r29, 0x01	; 1
    21de:	c7 55       	subi	r28, 0x57	; 87
    21e0:	de 4f       	sbci	r29, 0xFE	; 254
    21e2:	88 81       	ld	r24, Y
    21e4:	99 81       	ldd	r25, Y+1	; 0x01
    21e6:	c9 5a       	subi	r28, 0xA9	; 169
    21e8:	d1 40       	sbci	r29, 0x01	; 1
    21ea:	f8 01       	movw	r30, r16
    21ec:	91 83       	std	Z+1, r25	; 0x01
    21ee:	80 83       	st	Z, r24

000021f0 <.L132>:
    21f0:	ce 01       	movw	r24, r28
    21f2:	87 55       	subi	r24, 0x57	; 87
    21f4:	9f 4f       	sbci	r25, 0xFF	; 255
    21f6:	9e 01       	movw	r18, r28
    21f8:	2b 55       	subi	r18, 0x5B	; 91
    21fa:	3f 4f       	sbci	r19, 0xFF	; 255
    21fc:	d9 01       	movw	r26, r18
    21fe:	2d 91       	ld	r18, X+
    2200:	3c 91       	ld	r19, X
    2202:	fc 01       	movw	r30, r24
    2204:	31 83       	std	Z+1, r19	; 0x01
    2206:	20 83       	st	Z, r18

00002208 <.LBB154>:
    2208:	ce 01       	movw	r24, r28
    220a:	87 55       	subi	r24, 0x57	; 87
    220c:	9f 4f       	sbci	r25, 0xFF	; 255
    220e:	dc 01       	movw	r26, r24
    2210:	8d 91       	ld	r24, X+
    2212:	9c 91       	ld	r25, X

00002214 <.L1^B24>:
    2214:	01 97       	sbiw	r24, 0x01	; 1
    2216:	f1 f7       	brne	.-4      	; 0x2214 <.L1^B24>
    2218:	9e 01       	movw	r18, r28
    221a:	27 55       	subi	r18, 0x57	; 87
    221c:	3f 4f       	sbci	r19, 0xFF	; 255
    221e:	f9 01       	movw	r30, r18
    2220:	91 83       	std	Z+1, r25	; 0x01
    2222:	80 83       	st	Z, r24

00002224 <.Loc.360>:
	...

00002226 <.L137>:
            {
                DEBOUNCE;
                h_bridge_set_percentage(0);
    2226:	80 e0       	ldi	r24, 0x00	; 0
    2228:	0e 94 c3 02 	call	0x586	; 0x586 <h_bridge_set_percentage>

0000222c <.Loc.362>:
                status = 10;
    222c:	8a e0       	ldi	r24, 0x0A	; 10
    222e:	90 e0       	ldi	r25, 0x00	; 0
    2230:	9a 83       	std	Y+2, r25	; 0x02
    2232:	89 83       	std	Y+1, r24	; 0x01

00002234 <.Loc.363>:
                break;
    2234:	3b c1       	rjmp	.+630    	; 0x24ac <.L31>

00002236 <.L129>:
            }
            h_bridge_set_percentage(70);
    2236:	86 e4       	ldi	r24, 0x46	; 70
    2238:	0e 94 c3 02 	call	0x586	; 0x586 <h_bridge_set_percentage>

0000223c <.Loc.365>:
            break;
    223c:	37 c1       	rjmp	.+622    	; 0x24ac <.L31>

0000223e <.L35>:
        case 10:
            ;;
            break;
        case 12:
            if(!(PINA & (1<<home_switch)))
    223e:	80 e2       	ldi	r24, 0x20	; 32
    2240:	90 e0       	ldi	r25, 0x00	; 0
    2242:	dc 01       	movw	r26, r24
    2244:	8c 91       	ld	r24, X

00002246 <.Loc.367>:
    2246:	88 2f       	mov	r24, r24
    2248:	90 e0       	ldi	r25, 0x00	; 0
    224a:	81 70       	andi	r24, 0x01	; 1
    224c:	99 27       	eor	r25, r25

0000224e <.Loc.368>:
    224e:	00 97       	sbiw	r24, 0x00	; 0
    2250:	09 f0       	breq	.+2      	; 0x2254 <L0^A+0x2>

00002252 <L0^A>:
    2252:	13 c1       	rjmp	.+550    	; 0x247a <.L138>
    2254:	9e 01       	movw	r18, r28
    2256:	25 55       	subi	r18, 0x55	; 85
    2258:	3f 4f       	sbci	r19, 0xFF	; 255
    225a:	80 e0       	ldi	r24, 0x00	; 0
    225c:	90 e0       	ldi	r25, 0x00	; 0
    225e:	a0 ea       	ldi	r26, 0xA0	; 160
    2260:	b1 e4       	ldi	r27, 0x41	; 65
    2262:	f9 01       	movw	r30, r18
    2264:	80 83       	st	Z, r24
    2266:	91 83       	std	Z+1, r25	; 0x01
    2268:	a2 83       	std	Z+2, r26	; 0x02
    226a:	b3 83       	std	Z+3, r27	; 0x03

0000226c <.LBB156>:
	__tmp = ((F_CPU) / 4e3) * __ms;
    226c:	8e 01       	movw	r16, r28
    226e:	01 55       	subi	r16, 0x51	; 81
    2270:	1f 4f       	sbci	r17, 0xFF	; 255
    2272:	ce 01       	movw	r24, r28
    2274:	85 55       	subi	r24, 0x55	; 85
    2276:	9f 4f       	sbci	r25, 0xFF	; 255
    2278:	20 e0       	ldi	r18, 0x00	; 0
    227a:	30 e0       	ldi	r19, 0x00	; 0
    227c:	4a e7       	ldi	r20, 0x7A	; 122
    227e:	55 e4       	ldi	r21, 0x45	; 69
    2280:	dc 01       	movw	r26, r24
    2282:	6d 91       	ld	r22, X+
    2284:	7d 91       	ld	r23, X+
    2286:	8d 91       	ld	r24, X+
    2288:	9c 91       	ld	r25, X
    228a:	0e 94 91 16 	call	0x2d22	; 0x2d22 <__mulsf3>
    228e:	c3 55       	subi	r28, 0x53	; 83
    2290:	de 4f       	sbci	r29, 0xFE	; 254
    2292:	68 83       	st	Y, r22
    2294:	79 83       	std	Y+1, r23	; 0x01
    2296:	8a 83       	std	Y+2, r24	; 0x02
    2298:	9b 83       	std	Y+3, r25	; 0x03
    229a:	cd 5a       	subi	r28, 0xAD	; 173
    229c:	d1 40       	sbci	r29, 0x01	; 1
    229e:	c3 55       	subi	r28, 0x53	; 83
    22a0:	de 4f       	sbci	r29, 0xFE	; 254
    22a2:	88 81       	ld	r24, Y
    22a4:	99 81       	ldd	r25, Y+1	; 0x01
    22a6:	aa 81       	ldd	r26, Y+2	; 0x02
    22a8:	bb 81       	ldd	r27, Y+3	; 0x03
    22aa:	cd 5a       	subi	r28, 0xAD	; 173
    22ac:	d1 40       	sbci	r29, 0x01	; 1
    22ae:	f8 01       	movw	r30, r16
    22b0:	80 83       	st	Z, r24
    22b2:	91 83       	std	Z+1, r25	; 0x01
    22b4:	a2 83       	std	Z+2, r26	; 0x02
    22b6:	b3 83       	std	Z+3, r27	; 0x03

000022b8 <.Loc.370>:
	if (__tmp < 1.0)
    22b8:	ce 01       	movw	r24, r28
    22ba:	81 55       	subi	r24, 0x51	; 81
    22bc:	9f 4f       	sbci	r25, 0xFF	; 255
    22be:	20 e0       	ldi	r18, 0x00	; 0
    22c0:	30 e0       	ldi	r19, 0x00	; 0
    22c2:	40 e8       	ldi	r20, 0x80	; 128
    22c4:	5f e3       	ldi	r21, 0x3F	; 63
    22c6:	dc 01       	movw	r26, r24
    22c8:	6d 91       	ld	r22, X+
    22ca:	7d 91       	ld	r23, X+
    22cc:	8d 91       	ld	r24, X+
    22ce:	9c 91       	ld	r25, X
    22d0:	0e 94 a6 15 	call	0x2b4c	; 0x2b4c <__cmpsf2>
    22d4:	88 23       	and	r24, r24
    22d6:	4c f4       	brge	.+18     	; 0x22ea <.L198>

000022d8 <.Loc.371>:
		__ticks = 1;
    22d8:	ce 01       	movw	r24, r28
    22da:	8d 54       	subi	r24, 0x4D	; 77
    22dc:	9f 4f       	sbci	r25, 0xFF	; 255
    22de:	21 e0       	ldi	r18, 0x01	; 1
    22e0:	30 e0       	ldi	r19, 0x00	; 0
    22e2:	fc 01       	movw	r30, r24
    22e4:	31 83       	std	Z+1, r19	; 0x01
    22e6:	20 83       	st	Z, r18
    22e8:	a5 c0       	rjmp	.+330    	; 0x2434 <.L141>

000022ea <.L198>:
	else if (__tmp > 65535)
    22ea:	ce 01       	movw	r24, r28
    22ec:	81 55       	subi	r24, 0x51	; 81
    22ee:	9f 4f       	sbci	r25, 0xFF	; 255
    22f0:	20 e0       	ldi	r18, 0x00	; 0
    22f2:	3f ef       	ldi	r19, 0xFF	; 255
    22f4:	4f e7       	ldi	r20, 0x7F	; 127
    22f6:	57 e4       	ldi	r21, 0x47	; 71
    22f8:	dc 01       	movw	r26, r24
    22fa:	6d 91       	ld	r22, X+
    22fc:	7d 91       	ld	r23, X+
    22fe:	8d 91       	ld	r24, X+
    2300:	9c 91       	ld	r25, X
    2302:	0e 94 8c 16 	call	0x2d18	; 0x2d18 <__gesf2>
    2306:	88 23       	and	r24, r24
    2308:	09 f0       	breq	.+2      	; 0x230c <L0^A>

0000230a <L0^A>:
    230a:	0c f4       	brge	.+2      	; 0x230e <.Loc.373>

0000230c <L0^A>:
    230c:	75 c0       	rjmp	.+234    	; 0x23f8 <.L199>

0000230e <.Loc.373>:
		__ticks = (uint16_t) (__ms * 10.0);
    230e:	ce 01       	movw	r24, r28
    2310:	85 55       	subi	r24, 0x55	; 85
    2312:	9f 4f       	sbci	r25, 0xFF	; 255
    2314:	20 e0       	ldi	r18, 0x00	; 0
    2316:	30 e0       	ldi	r19, 0x00	; 0
    2318:	40 e2       	ldi	r20, 0x20	; 32
    231a:	51 e4       	ldi	r21, 0x41	; 65
    231c:	fc 01       	movw	r30, r24
    231e:	60 81       	ld	r22, Z
    2320:	71 81       	ldd	r23, Z+1	; 0x01
    2322:	82 81       	ldd	r24, Z+2	; 0x02
    2324:	93 81       	ldd	r25, Z+3	; 0x03
    2326:	0e 94 91 16 	call	0x2d22	; 0x2d22 <__mulsf3>
    232a:	cf 54       	subi	r28, 0x4F	; 79
    232c:	de 4f       	sbci	r29, 0xFE	; 254
    232e:	68 83       	st	Y, r22
    2330:	79 83       	std	Y+1, r23	; 0x01
    2332:	8a 83       	std	Y+2, r24	; 0x02
    2334:	9b 83       	std	Y+3, r25	; 0x03
    2336:	c1 5b       	subi	r28, 0xB1	; 177
    2338:	d1 40       	sbci	r29, 0x01	; 1
    233a:	cf 54       	subi	r28, 0x4F	; 79
    233c:	de 4f       	sbci	r29, 0xFE	; 254
    233e:	88 81       	ld	r24, Y
    2340:	99 81       	ldd	r25, Y+1	; 0x01
    2342:	aa 81       	ldd	r26, Y+2	; 0x02
    2344:	bb 81       	ldd	r27, Y+3	; 0x03
    2346:	c1 5b       	subi	r28, 0xB1	; 177
    2348:	d1 40       	sbci	r29, 0x01	; 1
    234a:	c7 51       	subi	r28, 0x17	; 23
    234c:	df 4f       	sbci	r29, 0xFF	; 255
    234e:	88 83       	st	Y, r24
    2350:	99 83       	std	Y+1, r25	; 0x01
    2352:	aa 83       	std	Y+2, r26	; 0x02
    2354:	bb 83       	std	Y+3, r27	; 0x03
    2356:	c9 5e       	subi	r28, 0xE9	; 233
    2358:	d0 40       	sbci	r29, 0x00	; 0

0000235a <.Loc.374>:
    235a:	8e 01       	movw	r16, r28
    235c:	0d 54       	subi	r16, 0x4D	; 77
    235e:	1f 4f       	sbci	r17, 0xFF	; 255
    2360:	c7 51       	subi	r28, 0x17	; 23
    2362:	df 4f       	sbci	r29, 0xFF	; 255
    2364:	68 81       	ld	r22, Y
    2366:	79 81       	ldd	r23, Y+1	; 0x01
    2368:	8a 81       	ldd	r24, Y+2	; 0x02
    236a:	9b 81       	ldd	r25, Y+3	; 0x03
    236c:	c9 5e       	subi	r28, 0xE9	; 233
    236e:	d0 40       	sbci	r29, 0x00	; 0
    2370:	0e 94 ab 15 	call	0x2b56	; 0x2b56 <__fixunssfsi>
    2374:	cb 54       	subi	r28, 0x4B	; 75
    2376:	de 4f       	sbci	r29, 0xFE	; 254
    2378:	68 83       	st	Y, r22
    237a:	79 83       	std	Y+1, r23	; 0x01
    237c:	8a 83       	std	Y+2, r24	; 0x02
    237e:	9b 83       	std	Y+3, r25	; 0x03
    2380:	c5 5b       	subi	r28, 0xB5	; 181
    2382:	d1 40       	sbci	r29, 0x01	; 1
    2384:	cb 54       	subi	r28, 0x4B	; 75
    2386:	de 4f       	sbci	r29, 0xFE	; 254
    2388:	e8 81       	ld	r30, Y
    238a:	f9 81       	ldd	r31, Y+1	; 0x01
    238c:	c5 5b       	subi	r28, 0xB5	; 181
    238e:	d1 40       	sbci	r29, 0x01	; 1
    2390:	d8 01       	movw	r26, r16
    2392:	11 96       	adiw	r26, 0x01	; 1
    2394:	fc 93       	st	X, r31
    2396:	ee 93       	st	-X, r30

00002398 <.Loc.375>:
		while(__ticks)
    2398:	26 c0       	rjmp	.+76     	; 0x23e6 <.L144>

0000239a <.L145>:
    239a:	ce 01       	movw	r24, r28
    239c:	8b 54       	subi	r24, 0x4B	; 75
    239e:	9f 4f       	sbci	r25, 0xFF	; 255
    23a0:	20 e9       	ldi	r18, 0x90	; 144
    23a2:	31 e0       	ldi	r19, 0x01	; 1
    23a4:	dc 01       	movw	r26, r24
    23a6:	2d 93       	st	X+, r18
    23a8:	3c 93       	st	X, r19

000023aa <.LBB158>:
    23aa:	ce 01       	movw	r24, r28
    23ac:	8b 54       	subi	r24, 0x4B	; 75
    23ae:	9f 4f       	sbci	r25, 0xFF	; 255
    23b0:	fc 01       	movw	r30, r24
    23b2:	80 81       	ld	r24, Z
    23b4:	91 81       	ldd	r25, Z+1	; 0x01

000023b6 <.L1^B25>:
    23b6:	01 97       	sbiw	r24, 0x01	; 1
    23b8:	f1 f7       	brne	.-4      	; 0x23b6 <.L1^B25>
    23ba:	9e 01       	movw	r18, r28
    23bc:	2b 54       	subi	r18, 0x4B	; 75
    23be:	3f 4f       	sbci	r19, 0xFF	; 255
    23c0:	d9 01       	movw	r26, r18
    23c2:	8d 93       	st	X+, r24
    23c4:	9c 93       	st	X, r25

000023c6 <.Loc.377>:
	...

000023c8 <.LBE158>:
			__ticks --;
    23c8:	ce 01       	movw	r24, r28
    23ca:	8d 54       	subi	r24, 0x4D	; 77
    23cc:	9f 4f       	sbci	r25, 0xFF	; 255
    23ce:	9e 01       	movw	r18, r28
    23d0:	2d 54       	subi	r18, 0x4D	; 77
    23d2:	3f 4f       	sbci	r19, 0xFF	; 255
    23d4:	f9 01       	movw	r30, r18
    23d6:	20 81       	ld	r18, Z
    23d8:	31 81       	ldd	r19, Z+1	; 0x01
    23da:	21 50       	subi	r18, 0x01	; 1
    23dc:	31 09       	sbc	r19, r1
    23de:	dc 01       	movw	r26, r24
    23e0:	11 96       	adiw	r26, 0x01	; 1
    23e2:	3c 93       	st	X, r19
    23e4:	2e 93       	st	-X, r18

000023e6 <.L144>:
		while(__ticks)
    23e6:	ce 01       	movw	r24, r28
    23e8:	8d 54       	subi	r24, 0x4D	; 77
    23ea:	9f 4f       	sbci	r25, 0xFF	; 255
    23ec:	fc 01       	movw	r30, r24
    23ee:	80 81       	ld	r24, Z
    23f0:	91 81       	ldd	r25, Z+1	; 0x01
    23f2:	00 97       	sbiw	r24, 0x00	; 0
    23f4:	91 f6       	brne	.-92     	; 0x239a <.L145>

000023f6 <.Loc.380>:
		return;
    23f6:	39 c0       	rjmp	.+114    	; 0x246a <.L146>

000023f8 <.L199>:
		__ticks = (uint16_t)__tmp;
    23f8:	8e 01       	movw	r16, r28
    23fa:	0d 54       	subi	r16, 0x4D	; 77
    23fc:	1f 4f       	sbci	r17, 0xFF	; 255
    23fe:	ce 01       	movw	r24, r28
    2400:	81 55       	subi	r24, 0x51	; 81
    2402:	9f 4f       	sbci	r25, 0xFF	; 255
    2404:	dc 01       	movw	r26, r24
    2406:	6d 91       	ld	r22, X+
    2408:	7d 91       	ld	r23, X+
    240a:	8d 91       	ld	r24, X+
    240c:	9c 91       	ld	r25, X
    240e:	0e 94 ab 15 	call	0x2b56	; 0x2b56 <__fixunssfsi>
    2412:	c7 54       	subi	r28, 0x47	; 71
    2414:	de 4f       	sbci	r29, 0xFE	; 254
    2416:	68 83       	st	Y, r22
    2418:	79 83       	std	Y+1, r23	; 0x01
    241a:	8a 83       	std	Y+2, r24	; 0x02
    241c:	9b 83       	std	Y+3, r25	; 0x03
    241e:	c9 5b       	subi	r28, 0xB9	; 185
    2420:	d1 40       	sbci	r29, 0x01	; 1
    2422:	c7 54       	subi	r28, 0x47	; 71
    2424:	de 4f       	sbci	r29, 0xFE	; 254
    2426:	88 81       	ld	r24, Y
    2428:	99 81       	ldd	r25, Y+1	; 0x01
    242a:	c9 5b       	subi	r28, 0xB9	; 185
    242c:	d1 40       	sbci	r29, 0x01	; 1
    242e:	f8 01       	movw	r30, r16
    2430:	91 83       	std	Z+1, r25	; 0x01
    2432:	80 83       	st	Z, r24

00002434 <.L141>:
    2434:	ce 01       	movw	r24, r28
    2436:	89 54       	subi	r24, 0x49	; 73
    2438:	9f 4f       	sbci	r25, 0xFF	; 255
    243a:	9e 01       	movw	r18, r28
    243c:	2d 54       	subi	r18, 0x4D	; 77
    243e:	3f 4f       	sbci	r19, 0xFF	; 255
    2440:	d9 01       	movw	r26, r18
    2442:	2d 91       	ld	r18, X+
    2444:	3c 91       	ld	r19, X
    2446:	fc 01       	movw	r30, r24
    2448:	31 83       	std	Z+1, r19	; 0x01
    244a:	20 83       	st	Z, r18

0000244c <.LBB160>:
    244c:	ce 01       	movw	r24, r28
    244e:	89 54       	subi	r24, 0x49	; 73
    2450:	9f 4f       	sbci	r25, 0xFF	; 255
    2452:	dc 01       	movw	r26, r24
    2454:	8d 91       	ld	r24, X+
    2456:	9c 91       	ld	r25, X

00002458 <.L1^B26>:
    2458:	01 97       	sbiw	r24, 0x01	; 1
    245a:	f1 f7       	brne	.-4      	; 0x2458 <.L1^B26>
    245c:	9e 01       	movw	r18, r28
    245e:	29 54       	subi	r18, 0x49	; 73
    2460:	3f 4f       	sbci	r19, 0xFF	; 255
    2462:	f9 01       	movw	r30, r18
    2464:	91 83       	std	Z+1, r25	; 0x01
    2466:	80 83       	st	Z, r24

00002468 <.Loc.383>:
	...

0000246a <.L146>:
            {
                DEBOUNCE;
                h_bridge_set_percentage(0);
    246a:	80 e0       	ldi	r24, 0x00	; 0
    246c:	0e 94 c3 02 	call	0x586	; 0x586 <h_bridge_set_percentage>

00002470 <.Loc.385>:
                status = 14;
    2470:	8e e0       	ldi	r24, 0x0E	; 14
    2472:	90 e0       	ldi	r25, 0x00	; 0
    2474:	9a 83       	std	Y+2, r25	; 0x02
    2476:	89 83       	std	Y+1, r24	; 0x01

00002478 <.Loc.386>:
                break;
    2478:	19 c0       	rjmp	.+50     	; 0x24ac <.L31>

0000247a <.L138>:
            }
            h_bridge_set_percentage(-70);
    247a:	8a eb       	ldi	r24, 0xBA	; 186
    247c:	0e 94 c3 02 	call	0x586	; 0x586 <h_bridge_set_percentage>

00002480 <.Loc.388>:
	    break;
    2480:	15 c0       	rjmp	.+42     	; 0x24ac <.L31>

00002482 <.L32>:
        case 14:
            servo1_set_percentage(-50);
    2482:	8e ec       	ldi	r24, 0xCE	; 206
    2484:	0e 94 c6 13 	call	0x278c	; 0x278c <servo1_set_percentage>

00002488 <.Loc.390>:
            servo2_set_percentage(-50);
    2488:	8e ec       	ldi	r24, 0xCE	; 206
    248a:	0e 94 3a 14 	call	0x2874	; 0x2874 <servo2_set_percentage>

0000248e <.Loc.391>:
            status = 2;
    248e:	82 e0       	ldi	r24, 0x02	; 2
    2490:	90 e0       	ldi	r25, 0x00	; 0
    2492:	9a 83       	std	Y+2, r25	; 0x02
    2494:	89 83       	std	Y+1, r24	; 0x01

00002496 <.Loc.392>:
            break;
    2496:	0a c0       	rjmp	.+20     	; 0x24ac <.L31>

00002498 <.L200>:
            break;
    2498:	00 00       	nop
    249a:	0c 94 8f 04 	jmp	0x91e	; 0x91e <.L147>

0000249e <.L201>:
            break;
    249e:	00 00       	nop
    24a0:	0c 94 8f 04 	jmp	0x91e	; 0x91e <.L147>

000024a4 <.L202>:
            break;
    24a4:	00 00       	nop
    24a6:	0c 94 8f 04 	jmp	0x91e	; 0x91e <.L147>

000024aa <.L203>:
	...

000024ac <.L31>:
        if (buzz >= 8)                              // buzzer gaat 8 keer aan en uit door timer 5
    24ac:	0c 94 8f 04 	jmp	0x91e	; 0x91e <.L147>

000024b0 <__vector_47>:
	return 0;
}

// ---- interrupts ---- //
ISR(TIMER5_COMPA_vect)          // timer 1 interrupt compare voor knipperlichten
{
    24b0:	1f 92       	push	r1
    24b2:	0f 92       	push	r0
    24b4:	0f b6       	in	r0, 0x3f	; 63
    24b6:	0f 92       	push	r0
    24b8:	11 24       	eor	r1, r1
    24ba:	0b b6       	in	r0, 0x3b	; 59
    24bc:	0f 92       	push	r0
    24be:	2f 93       	push	r18
    24c0:	8f 93       	push	r24
    24c2:	9f 93       	push	r25
    24c4:	ef 93       	push	r30
    24c6:	ff 93       	push	r31
    24c8:	cf 93       	push	r28
    24ca:	df 93       	push	r29
    24cc:	cd b7       	in	r28, 0x3d	; 61
    24ce:	de b7       	in	r29, 0x3e	; 62

000024d0 <.Loc.399>:
	PORTK |= (1<<PK7);          // ledjes knipperen
    24d0:	88 e0       	ldi	r24, 0x08	; 8
    24d2:	91 e0       	ldi	r25, 0x01	; 1
    24d4:	fc 01       	movw	r30, r24
    24d6:	20 81       	ld	r18, Z
    24d8:	88 e0       	ldi	r24, 0x08	; 8
    24da:	91 e0       	ldi	r25, 0x01	; 1

000024dc <.Loc.400>:
    24dc:	20 68       	ori	r18, 0x80	; 128
    24de:	fc 01       	movw	r30, r24
    24e0:	20 83       	st	Z, r18

000024e2 <.Loc.401>:
	PORTK &= ~(1<<PK6);
    24e2:	88 e0       	ldi	r24, 0x08	; 8
    24e4:	91 e0       	ldi	r25, 0x01	; 1
    24e6:	fc 01       	movw	r30, r24
    24e8:	20 81       	ld	r18, Z

000024ea <.Loc.402>:
    24ea:	88 e0       	ldi	r24, 0x08	; 8
    24ec:	91 e0       	ldi	r25, 0x01	; 1

000024ee <.Loc.403>:
    24ee:	2f 7b       	andi	r18, 0xBF	; 191
    24f0:	fc 01       	movw	r30, r24
    24f2:	20 83       	st	Z, r18

000024f4 <.Loc.404>:
	knipper++;
    24f4:	80 91 02 02 	lds	r24, 0x0202	; 0x800202 <knipper>
    24f8:	90 91 03 02 	lds	r25, 0x0203	; 0x800203 <knipper+0x1>
    24fc:	01 96       	adiw	r24, 0x01	; 1
    24fe:	90 93 03 02 	sts	0x0203, r25	; 0x800203 <knipper+0x1>
    2502:	80 93 02 02 	sts	0x0202, r24	; 0x800202 <knipper>

00002506 <.Loc.405>:
}
    2506:	00 00       	nop
    2508:	df 91       	pop	r29
    250a:	cf 91       	pop	r28
    250c:	ff 91       	pop	r31
    250e:	ef 91       	pop	r30
    2510:	9f 91       	pop	r25
    2512:	8f 91       	pop	r24
    2514:	2f 91       	pop	r18
    2516:	0f 90       	pop	r0
    2518:	0b be       	out	0x3b, r0	; 59
    251a:	0f 90       	pop	r0
    251c:	0f be       	out	0x3f, r0	; 63
    251e:	0f 90       	pop	r0
    2520:	1f 90       	pop	r1
    2522:	18 95       	reti

00002524 <__vector_48>:

ISR(TIMER5_COMPB_vect)          // timer 1 interrupt compare voor knipperlichten
{
    2524:	1f 92       	push	r1
    2526:	0f 92       	push	r0
    2528:	0f b6       	in	r0, 0x3f	; 63
    252a:	0f 92       	push	r0
    252c:	11 24       	eor	r1, r1
    252e:	0b b6       	in	r0, 0x3b	; 59
    2530:	0f 92       	push	r0
    2532:	2f 93       	push	r18
    2534:	8f 93       	push	r24
    2536:	9f 93       	push	r25
    2538:	ef 93       	push	r30
    253a:	ff 93       	push	r31
    253c:	cf 93       	push	r28
    253e:	df 93       	push	r29
    2540:	cd b7       	in	r28, 0x3d	; 61
    2542:	de b7       	in	r29, 0x3e	; 62

00002544 <.Loc.407>:
    PORTD |= (1<<PD0);                              // buzzer aan
    2544:	8b e2       	ldi	r24, 0x2B	; 43
    2546:	90 e0       	ldi	r25, 0x00	; 0
    2548:	fc 01       	movw	r30, r24
    254a:	20 81       	ld	r18, Z
    254c:	8b e2       	ldi	r24, 0x2B	; 43
    254e:	90 e0       	ldi	r25, 0x00	; 0

00002550 <.Loc.408>:
    2550:	21 60       	ori	r18, 0x01	; 1
    2552:	fc 01       	movw	r30, r24
    2554:	20 83       	st	Z, r18

00002556 <.Loc.409>:
    buzz++;
    2556:	80 91 00 02 	lds	r24, 0x0200	; 0x800200 <buzz>
    255a:	90 91 01 02 	lds	r25, 0x0201	; 0x800201 <buzz+0x1>
    255e:	01 96       	adiw	r24, 0x01	; 1
    2560:	90 93 01 02 	sts	0x0201, r25	; 0x800201 <buzz+0x1>
    2564:	80 93 00 02 	sts	0x0200, r24	; 0x800200 <buzz>

00002568 <.Loc.410>:
}
    2568:	00 00       	nop
    256a:	df 91       	pop	r29
    256c:	cf 91       	pop	r28
    256e:	ff 91       	pop	r31
    2570:	ef 91       	pop	r30
    2572:	9f 91       	pop	r25
    2574:	8f 91       	pop	r24
    2576:	2f 91       	pop	r18
    2578:	0f 90       	pop	r0
    257a:	0b be       	out	0x3b, r0	; 59
    257c:	0f 90       	pop	r0
    257e:	0f be       	out	0x3f, r0	; 63
    2580:	0f 90       	pop	r0
    2582:	1f 90       	pop	r1
    2584:	18 95       	reti

00002586 <__vector_50>:

ISR(TIMER5_OVF_vect)            // timer 1 interrupt overflow voor knipperlichten
{
    2586:	1f 92       	push	r1
    2588:	0f 92       	push	r0
    258a:	0f b6       	in	r0, 0x3f	; 63
    258c:	0f 92       	push	r0
    258e:	11 24       	eor	r1, r1
    2590:	0b b6       	in	r0, 0x3b	; 59
    2592:	0f 92       	push	r0
    2594:	2f 93       	push	r18
    2596:	3f 93       	push	r19
    2598:	8f 93       	push	r24
    259a:	9f 93       	push	r25
    259c:	ef 93       	push	r30
    259e:	ff 93       	push	r31
    25a0:	cf 93       	push	r28
    25a2:	df 93       	push	r29
    25a4:	cd b7       	in	r28, 0x3d	; 61
    25a6:	de b7       	in	r29, 0x3e	; 62

000025a8 <.Loc.412>:
	TCNT5 = TCNT_INIT5;          // re-init timer 1
    25a8:	84 e2       	ldi	r24, 0x24	; 36
    25aa:	91 e0       	ldi	r25, 0x01	; 1

000025ac <.Loc.413>:
    25ac:	20 e1       	ldi	r18, 0x10	; 16
    25ae:	37 e2       	ldi	r19, 0x27	; 39
    25b0:	fc 01       	movw	r30, r24
    25b2:	31 83       	std	Z+1, r19	; 0x01
    25b4:	20 83       	st	Z, r18

000025b6 <.Loc.414>:
    PORTK |= (1<<PK6);          // ledjes knipperen
    25b6:	88 e0       	ldi	r24, 0x08	; 8
    25b8:	91 e0       	ldi	r25, 0x01	; 1
    25ba:	fc 01       	movw	r30, r24
    25bc:	20 81       	ld	r18, Z
    25be:	88 e0       	ldi	r24, 0x08	; 8
    25c0:	91 e0       	ldi	r25, 0x01	; 1

000025c2 <.Loc.415>:
    25c2:	20 64       	ori	r18, 0x40	; 64
    25c4:	fc 01       	movw	r30, r24
    25c6:	20 83       	st	Z, r18

000025c8 <.Loc.416>:
	PORTK &= ~(1<<PK7);
    25c8:	88 e0       	ldi	r24, 0x08	; 8
    25ca:	91 e0       	ldi	r25, 0x01	; 1
    25cc:	fc 01       	movw	r30, r24
    25ce:	20 81       	ld	r18, Z

000025d0 <.Loc.417>:
    25d0:	88 e0       	ldi	r24, 0x08	; 8
    25d2:	91 e0       	ldi	r25, 0x01	; 1

000025d4 <.Loc.418>:
    25d4:	2f 77       	andi	r18, 0x7F	; 127
    25d6:	fc 01       	movw	r30, r24
    25d8:	20 83       	st	Z, r18

000025da <.Loc.419>:
    PORTD &= ~(1<<PD0);                             // buzzer uit
    25da:	8b e2       	ldi	r24, 0x2B	; 43
    25dc:	90 e0       	ldi	r25, 0x00	; 0
    25de:	fc 01       	movw	r30, r24
    25e0:	20 81       	ld	r18, Z

000025e2 <.Loc.420>:
    25e2:	8b e2       	ldi	r24, 0x2B	; 43
    25e4:	90 e0       	ldi	r25, 0x00	; 0

000025e6 <.Loc.421>:
    25e6:	2e 7f       	andi	r18, 0xFE	; 254
    25e8:	fc 01       	movw	r30, r24
    25ea:	20 83       	st	Z, r18

000025ec <.Loc.422>:
}
    25ec:	00 00       	nop
    25ee:	df 91       	pop	r29
    25f0:	cf 91       	pop	r28
    25f2:	ff 91       	pop	r31
    25f4:	ef 91       	pop	r30
    25f6:	9f 91       	pop	r25
    25f8:	8f 91       	pop	r24
    25fa:	3f 91       	pop	r19
    25fc:	2f 91       	pop	r18
    25fe:	0f 90       	pop	r0
    2600:	0b be       	out	0x3b, r0	; 59
    2602:	0f 90       	pop	r0
    2604:	0f be       	out	0x3f, r0	; 63
    2606:	0f 90       	pop	r0
    2608:	1f 90       	pop	r1
    260a:	18 95       	reti

0000260c <__vector_45>:
#define RESET_VALUE	(65636ul-TIME_VALUE)
#define STOP_VALUE	(TIME_VALUE*0.075)
#define RANGE		(TIME_VALUE*0.025)

ISR(TIMER4_OVF_vect)
{
    260c:	1f 92       	push	r1
    260e:	0f 92       	push	r0
    2610:	0f b6       	in	r0, 0x3f	; 63
    2612:	0f 92       	push	r0
    2614:	11 24       	eor	r1, r1
    2616:	0b b6       	in	r0, 0x3b	; 59
    2618:	0f 92       	push	r0
    261a:	2f 93       	push	r18
    261c:	3f 93       	push	r19
    261e:	8f 93       	push	r24
    2620:	9f 93       	push	r25
    2622:	ef 93       	push	r30
    2624:	ff 93       	push	r31
    2626:	cf 93       	push	r28
    2628:	df 93       	push	r29
    262a:	cd b7       	in	r28, 0x3d	; 61
    262c:	de b7       	in	r29, 0x3e	; 62

0000262e <.Loc.1>:
	TCNT4 = RESET_VALUE;
    262e:	84 ea       	ldi	r24, 0xA4	; 164
    2630:	90 e0       	ldi	r25, 0x00	; 0

00002632 <.Loc.2>:
    2632:	24 e2       	ldi	r18, 0x24	; 36
    2634:	34 e6       	ldi	r19, 0x64	; 100
    2636:	fc 01       	movw	r30, r24
    2638:	31 83       	std	Z+1, r19	; 0x01
    263a:	20 83       	st	Z, r18

0000263c <.Loc.3>:

	PORT_1 |= (1<<PIN_1);
    263c:	8e e2       	ldi	r24, 0x2E	; 46
    263e:	90 e0       	ldi	r25, 0x00	; 0
    2640:	fc 01       	movw	r30, r24
    2642:	20 81       	ld	r18, Z
    2644:	8e e2       	ldi	r24, 0x2E	; 46
    2646:	90 e0       	ldi	r25, 0x00	; 0

00002648 <.Loc.4>:
    2648:	28 60       	ori	r18, 0x08	; 8
    264a:	fc 01       	movw	r30, r24
    264c:	20 83       	st	Z, r18

0000264e <.Loc.5>:
	PORT_2 |= (1<<PIN_2);
    264e:	84 e3       	ldi	r24, 0x34	; 52
    2650:	90 e0       	ldi	r25, 0x00	; 0
    2652:	fc 01       	movw	r30, r24
    2654:	20 81       	ld	r18, Z
    2656:	84 e3       	ldi	r24, 0x34	; 52
    2658:	90 e0       	ldi	r25, 0x00	; 0

0000265a <.Loc.6>:
    265a:	20 62       	ori	r18, 0x20	; 32
    265c:	fc 01       	movw	r30, r24
    265e:	20 83       	st	Z, r18

00002660 <.Loc.7>:
}
    2660:	00 00       	nop
    2662:	df 91       	pop	r29
    2664:	cf 91       	pop	r28
    2666:	ff 91       	pop	r31
    2668:	ef 91       	pop	r30
    266a:	9f 91       	pop	r25
    266c:	8f 91       	pop	r24
    266e:	3f 91       	pop	r19
    2670:	2f 91       	pop	r18
    2672:	0f 90       	pop	r0
    2674:	0b be       	out	0x3b, r0	; 59
    2676:	0f 90       	pop	r0
    2678:	0f be       	out	0x3f, r0	; 63
    267a:	0f 90       	pop	r0
    267c:	1f 90       	pop	r1
    267e:	18 95       	reti

00002680 <__vector_42>:

ISR(TIMER4_COMPA_vect)
{
    2680:	1f 92       	push	r1
    2682:	0f 92       	push	r0
    2684:	0f b6       	in	r0, 0x3f	; 63
    2686:	0f 92       	push	r0
    2688:	11 24       	eor	r1, r1
    268a:	0b b6       	in	r0, 0x3b	; 59
    268c:	0f 92       	push	r0
    268e:	2f 93       	push	r18
    2690:	8f 93       	push	r24
    2692:	9f 93       	push	r25
    2694:	ef 93       	push	r30
    2696:	ff 93       	push	r31
    2698:	cf 93       	push	r28
    269a:	df 93       	push	r29
    269c:	cd b7       	in	r28, 0x3d	; 61
    269e:	de b7       	in	r29, 0x3e	; 62

000026a0 <.Loc.9>:
	PORT_1 &= ~(1<<PIN_1);
    26a0:	8e e2       	ldi	r24, 0x2E	; 46
    26a2:	90 e0       	ldi	r25, 0x00	; 0
    26a4:	fc 01       	movw	r30, r24
    26a6:	20 81       	ld	r18, Z

000026a8 <.Loc.10>:
    26a8:	8e e2       	ldi	r24, 0x2E	; 46
    26aa:	90 e0       	ldi	r25, 0x00	; 0

000026ac <.Loc.11>:
    26ac:	27 7f       	andi	r18, 0xF7	; 247
    26ae:	fc 01       	movw	r30, r24
    26b0:	20 83       	st	Z, r18

000026b2 <.Loc.12>:
}
    26b2:	00 00       	nop
    26b4:	df 91       	pop	r29
    26b6:	cf 91       	pop	r28
    26b8:	ff 91       	pop	r31
    26ba:	ef 91       	pop	r30
    26bc:	9f 91       	pop	r25
    26be:	8f 91       	pop	r24
    26c0:	2f 91       	pop	r18
    26c2:	0f 90       	pop	r0
    26c4:	0b be       	out	0x3b, r0	; 59
    26c6:	0f 90       	pop	r0
    26c8:	0f be       	out	0x3f, r0	; 63
    26ca:	0f 90       	pop	r0
    26cc:	1f 90       	pop	r1
    26ce:	18 95       	reti

000026d0 <__vector_43>:

ISR(TIMER4_COMPB_vect)
{
    26d0:	1f 92       	push	r1
    26d2:	0f 92       	push	r0
    26d4:	0f b6       	in	r0, 0x3f	; 63
    26d6:	0f 92       	push	r0
    26d8:	11 24       	eor	r1, r1
    26da:	0b b6       	in	r0, 0x3b	; 59
    26dc:	0f 92       	push	r0
    26de:	2f 93       	push	r18
    26e0:	8f 93       	push	r24
    26e2:	9f 93       	push	r25
    26e4:	ef 93       	push	r30
    26e6:	ff 93       	push	r31
    26e8:	cf 93       	push	r28
    26ea:	df 93       	push	r29
    26ec:	cd b7       	in	r28, 0x3d	; 61
    26ee:	de b7       	in	r29, 0x3e	; 62

000026f0 <.Loc.14>:
	PORT_2 &= ~(1<<PIN_2);
    26f0:	84 e3       	ldi	r24, 0x34	; 52
    26f2:	90 e0       	ldi	r25, 0x00	; 0
    26f4:	fc 01       	movw	r30, r24
    26f6:	20 81       	ld	r18, Z

000026f8 <.Loc.15>:
    26f8:	84 e3       	ldi	r24, 0x34	; 52
    26fa:	90 e0       	ldi	r25, 0x00	; 0

000026fc <.Loc.16>:
    26fc:	2f 7d       	andi	r18, 0xDF	; 223
    26fe:	fc 01       	movw	r30, r24
    2700:	20 83       	st	Z, r18

00002702 <.Loc.17>:
}
    2702:	00 00       	nop
    2704:	df 91       	pop	r29
    2706:	cf 91       	pop	r28
    2708:	ff 91       	pop	r31
    270a:	ef 91       	pop	r30
    270c:	9f 91       	pop	r25
    270e:	8f 91       	pop	r24
    2710:	2f 91       	pop	r18
    2712:	0f 90       	pop	r0
    2714:	0b be       	out	0x3b, r0	; 59
    2716:	0f 90       	pop	r0
    2718:	0f be       	out	0x3f, r0	; 63
    271a:	0f 90       	pop	r0
    271c:	1f 90       	pop	r1
    271e:	18 95       	reti

00002720 <init_servo>:

void init_servo(void)
{
    2720:	cf 93       	push	r28
    2722:	df 93       	push	r29
    2724:	cd b7       	in	r28, 0x3d	; 61
    2726:	de b7       	in	r29, 0x3e	; 62

00002728 <.Loc.19>:
	// Config pins as output
	DDR_1 |= (1<<PIN_1);
    2728:	8d e2       	ldi	r24, 0x2D	; 45
    272a:	90 e0       	ldi	r25, 0x00	; 0
    272c:	fc 01       	movw	r30, r24
    272e:	20 81       	ld	r18, Z
    2730:	8d e2       	ldi	r24, 0x2D	; 45
    2732:	90 e0       	ldi	r25, 0x00	; 0

00002734 <.Loc.20>:
    2734:	28 60       	ori	r18, 0x08	; 8
    2736:	fc 01       	movw	r30, r24
    2738:	20 83       	st	Z, r18

0000273a <.Loc.21>:
	DDR_2 |= (1<<PIN_2);
    273a:	83 e3       	ldi	r24, 0x33	; 51
    273c:	90 e0       	ldi	r25, 0x00	; 0
    273e:	fc 01       	movw	r30, r24
    2740:	20 81       	ld	r18, Z
    2742:	83 e3       	ldi	r24, 0x33	; 51
    2744:	90 e0       	ldi	r25, 0x00	; 0

00002746 <.Loc.22>:
    2746:	20 62       	ori	r18, 0x20	; 32
    2748:	fc 01       	movw	r30, r24
    274a:	20 83       	st	Z, r18

0000274c <.Loc.23>:

	// Use mode 0, clkdiv = 8
	TCCR4A = 0;
    274c:	80 ea       	ldi	r24, 0xA0	; 160
    274e:	90 e0       	ldi	r25, 0x00	; 0

00002750 <.Loc.24>:
    2750:	fc 01       	movw	r30, r24
    2752:	10 82       	st	Z, r1

00002754 <.Loc.25>:
	TCCR4B = (0<<CS42) | (1<<CS41) | (0<<CS40);
    2754:	81 ea       	ldi	r24, 0xA1	; 161
    2756:	90 e0       	ldi	r25, 0x00	; 0

00002758 <.Loc.26>:
    2758:	22 e0       	ldi	r18, 0x02	; 2
    275a:	fc 01       	movw	r30, r24
    275c:	20 83       	st	Z, r18

0000275e <.Loc.27>:
	// Interrupts on OCA, OCB and OVF
	TIMSK4 = (1<<OCIE4B) | (1<<OCIE4A) | (1<<TOIE4);
    275e:	82 e7       	ldi	r24, 0x72	; 114
    2760:	90 e0       	ldi	r25, 0x00	; 0

00002762 <.Loc.28>:
    2762:	27 e0       	ldi	r18, 0x07	; 7
    2764:	fc 01       	movw	r30, r24
    2766:	20 83       	st	Z, r18

00002768 <.Loc.29>:

	TCNT4 = RESET_VALUE;
    2768:	84 ea       	ldi	r24, 0xA4	; 164
    276a:	90 e0       	ldi	r25, 0x00	; 0

0000276c <.Loc.30>:
    276c:	24 e2       	ldi	r18, 0x24	; 36
    276e:	34 e6       	ldi	r19, 0x64	; 100
    2770:	fc 01       	movw	r30, r24
    2772:	31 83       	std	Z+1, r19	; 0x01
    2774:	20 83       	st	Z, r18

00002776 <.Loc.31>:

	servo1_set_percentage(0);
    2776:	80 e0       	ldi	r24, 0x00	; 0
    2778:	0e 94 c6 13 	call	0x278c	; 0x278c <servo1_set_percentage>

0000277c <.Loc.32>:
	servo2_set_percentage(0);
    277c:	80 e0       	ldi	r24, 0x00	; 0
    277e:	0e 94 3a 14 	call	0x2874	; 0x2874 <servo2_set_percentage>

00002782 <.Loc.33>:

	sei();
    2782:	78 94       	sei

00002784 <.Loc.34>:
}
    2784:	00 00       	nop
    2786:	df 91       	pop	r29
    2788:	cf 91       	pop	r28
    278a:	08 95       	ret

0000278c <servo1_set_percentage>:

void servo1_set_percentage(signed char percentage)
{
    278c:	0f 93       	push	r16
    278e:	1f 93       	push	r17
    2790:	cf 93       	push	r28
    2792:	df 93       	push	r29
    2794:	cd b7       	in	r28, 0x3d	; 61
    2796:	de b7       	in	r29, 0x3e	; 62
    2798:	6d 97       	sbiw	r28, 0x1d	; 29
    279a:	0f b6       	in	r0, 0x3f	; 63
    279c:	f8 94       	cli
    279e:	de bf       	out	0x3e, r29	; 62
    27a0:	0f be       	out	0x3f, r0	; 63
    27a2:	cd bf       	out	0x3d, r28	; 61
    27a4:	89 83       	std	Y+1, r24	; 0x01

000027a6 <.Loc.36>:
	if (percentage >= -100 && percentage <= 100)
    27a6:	89 81       	ldd	r24, Y+1	; 0x01
    27a8:	8c 39       	cpi	r24, 0x9C	; 156
    27aa:	0c f4       	brge	.+2      	; 0x27ae <.Loc.37>

000027ac <L0^A>:
    27ac:	57 c0       	rjmp	.+174    	; 0x285c <.L7>

000027ae <.Loc.37>:
    27ae:	89 81       	ldd	r24, Y+1	; 0x01
    27b0:	84 36       	cpi	r24, 0x64	; 100
    27b2:	11 f0       	breq	.+4      	; 0x27b8 <.Loc.38>

000027b4 <L0^A>:
    27b4:	0c f0       	brlt	.+2      	; 0x27b8 <.Loc.38>

000027b6 <L0^A>:
    27b6:	52 c0       	rjmp	.+164    	; 0x285c <.L7>

000027b8 <.Loc.38>:
	{
		OCR4A = RESET_VALUE+STOP_VALUE+(RANGE/100*percentage);
    27b8:	89 81       	ldd	r24, Y+1	; 0x01
    27ba:	28 2f       	mov	r18, r24
    27bc:	88 0f       	add	r24, r24
    27be:	33 0b       	sbc	r19, r19
    27c0:	44 0b       	sbc	r20, r20
    27c2:	55 0b       	sbc	r21, r21
    27c4:	2e 87       	std	Y+14, r18	; 0x0e
    27c6:	3f 87       	std	Y+15, r19	; 0x0f
    27c8:	48 8b       	std	Y+16, r20	; 0x10
    27ca:	59 8b       	std	Y+17, r21	; 0x11
    27cc:	6e 85       	ldd	r22, Y+14	; 0x0e
    27ce:	7f 85       	ldd	r23, Y+15	; 0x0f
    27d0:	88 89       	ldd	r24, Y+16	; 0x10
    27d2:	99 89       	ldd	r25, Y+17	; 0x11
    27d4:	0e 94 dc 15 	call	0x2bb8	; 0x2bb8 <__floatsisf>
    27d8:	6a 83       	std	Y+2, r22	; 0x02
    27da:	7b 83       	std	Y+3, r23	; 0x03
    27dc:	8c 83       	std	Y+4, r24	; 0x04
    27de:	9d 83       	std	Y+5, r25	; 0x05
    27e0:	20 e0       	ldi	r18, 0x00	; 0
    27e2:	30 e0       	ldi	r19, 0x00	; 0
    27e4:	40 e2       	ldi	r20, 0x20	; 32
    27e6:	51 e4       	ldi	r21, 0x41	; 65
    27e8:	6a 81       	ldd	r22, Y+2	; 0x02
    27ea:	7b 81       	ldd	r23, Y+3	; 0x03
    27ec:	8c 81       	ldd	r24, Y+4	; 0x04
    27ee:	9d 81       	ldd	r25, Y+5	; 0x05
    27f0:	0e 94 91 16 	call	0x2d22	; 0x2d22 <__mulsf3>
    27f4:	6a 8b       	std	Y+18, r22	; 0x12
    27f6:	7b 8b       	std	Y+19, r23	; 0x13
    27f8:	8c 8b       	std	Y+20, r24	; 0x14
    27fa:	9d 8b       	std	Y+21, r25	; 0x15
    27fc:	8a 89       	ldd	r24, Y+18	; 0x12
    27fe:	9b 89       	ldd	r25, Y+19	; 0x13
    2800:	ac 89       	ldd	r26, Y+20	; 0x14
    2802:	bd 89       	ldd	r27, Y+21	; 0x15
    2804:	8e 83       	std	Y+6, r24	; 0x06
    2806:	9f 83       	std	Y+7, r25	; 0x07
    2808:	a8 87       	std	Y+8, r26	; 0x08
    280a:	b9 87       	std	Y+9, r27	; 0x09

0000280c <.Loc.39>:
    280c:	20 e0       	ldi	r18, 0x00	; 0
    280e:	38 eb       	ldi	r19, 0xB8	; 184
    2810:	4f ed       	ldi	r20, 0xDF	; 223
    2812:	56 e4       	ldi	r21, 0x46	; 70
    2814:	6e 81       	ldd	r22, Y+6	; 0x06
    2816:	7f 81       	ldd	r23, Y+7	; 0x07
    2818:	88 85       	ldd	r24, Y+8	; 0x08
    281a:	99 85       	ldd	r25, Y+9	; 0x09
    281c:	0e 94 3a 15 	call	0x2a74	; 0x2a74 <__addsf3>
    2820:	6e 8b       	std	Y+22, r22	; 0x16
    2822:	7f 8b       	std	Y+23, r23	; 0x17
    2824:	88 8f       	std	Y+24, r24	; 0x18
    2826:	99 8f       	std	Y+25, r25	; 0x19
    2828:	2e 89       	ldd	r18, Y+22	; 0x16
    282a:	3f 89       	ldd	r19, Y+23	; 0x17
    282c:	48 8d       	ldd	r20, Y+24	; 0x18
    282e:	59 8d       	ldd	r21, Y+25	; 0x19
    2830:	2a 87       	std	Y+10, r18	; 0x0a
    2832:	3b 87       	std	Y+11, r19	; 0x0b
    2834:	4c 87       	std	Y+12, r20	; 0x0c
    2836:	5d 87       	std	Y+13, r21	; 0x0d

00002838 <.Loc.40>:
    2838:	08 ea       	ldi	r16, 0xA8	; 168
    283a:	10 e0       	ldi	r17, 0x00	; 0

0000283c <.Loc.41>:
    283c:	6a 85       	ldd	r22, Y+10	; 0x0a
    283e:	7b 85       	ldd	r23, Y+11	; 0x0b
    2840:	8c 85       	ldd	r24, Y+12	; 0x0c
    2842:	9d 85       	ldd	r25, Y+13	; 0x0d
    2844:	0e 94 ab 15 	call	0x2b56	; 0x2b56 <__fixunssfsi>
    2848:	6a 8f       	std	Y+26, r22	; 0x1a
    284a:	7b 8f       	std	Y+27, r23	; 0x1b
    284c:	8c 8f       	std	Y+28, r24	; 0x1c
    284e:	9d 8f       	std	Y+29, r25	; 0x1d
    2850:	8a 8d       	ldd	r24, Y+26	; 0x1a
    2852:	9b 8d       	ldd	r25, Y+27	; 0x1b
    2854:	d8 01       	movw	r26, r16
    2856:	11 96       	adiw	r26, 0x01	; 1
    2858:	9c 93       	st	X, r25
    285a:	8e 93       	st	-X, r24

0000285c <.L7>:
	}
}
    285c:	00 00       	nop
    285e:	6d 96       	adiw	r28, 0x1d	; 29
    2860:	0f b6       	in	r0, 0x3f	; 63
    2862:	f8 94       	cli
    2864:	de bf       	out	0x3e, r29	; 62
    2866:	0f be       	out	0x3f, r0	; 63
    2868:	cd bf       	out	0x3d, r28	; 61
    286a:	df 91       	pop	r29
    286c:	cf 91       	pop	r28
    286e:	1f 91       	pop	r17
    2870:	0f 91       	pop	r16
    2872:	08 95       	ret

00002874 <servo2_set_percentage>:

void servo2_set_percentage(signed char percentage)
{
    2874:	0f 93       	push	r16
    2876:	1f 93       	push	r17
    2878:	cf 93       	push	r28
    287a:	df 93       	push	r29
    287c:	cd b7       	in	r28, 0x3d	; 61
    287e:	de b7       	in	r29, 0x3e	; 62
    2880:	6d 97       	sbiw	r28, 0x1d	; 29
    2882:	0f b6       	in	r0, 0x3f	; 63
    2884:	f8 94       	cli
    2886:	de bf       	out	0x3e, r29	; 62
    2888:	0f be       	out	0x3f, r0	; 63
    288a:	cd bf       	out	0x3d, r28	; 61
    288c:	89 83       	std	Y+1, r24	; 0x01

0000288e <.Loc.44>:
	if (percentage >= -100 && percentage <= 100)
    288e:	89 81       	ldd	r24, Y+1	; 0x01
    2890:	8c 39       	cpi	r24, 0x9C	; 156
    2892:	0c f4       	brge	.+2      	; 0x2896 <.Loc.45>

00002894 <L0^A>:
    2894:	57 c0       	rjmp	.+174    	; 0x2944 <.L10>

00002896 <.Loc.45>:
    2896:	89 81       	ldd	r24, Y+1	; 0x01
    2898:	84 36       	cpi	r24, 0x64	; 100
    289a:	11 f0       	breq	.+4      	; 0x28a0 <.Loc.46>

0000289c <L0^A>:
    289c:	0c f0       	brlt	.+2      	; 0x28a0 <.Loc.46>

0000289e <L0^A>:
    289e:	52 c0       	rjmp	.+164    	; 0x2944 <.L10>

000028a0 <.Loc.46>:
	{
		OCR4B = RESET_VALUE+STOP_VALUE+(RANGE/100*percentage);
    28a0:	89 81       	ldd	r24, Y+1	; 0x01
    28a2:	28 2f       	mov	r18, r24
    28a4:	88 0f       	add	r24, r24
    28a6:	33 0b       	sbc	r19, r19
    28a8:	44 0b       	sbc	r20, r20
    28aa:	55 0b       	sbc	r21, r21
    28ac:	2e 87       	std	Y+14, r18	; 0x0e
    28ae:	3f 87       	std	Y+15, r19	; 0x0f
    28b0:	48 8b       	std	Y+16, r20	; 0x10
    28b2:	59 8b       	std	Y+17, r21	; 0x11
    28b4:	6e 85       	ldd	r22, Y+14	; 0x0e
    28b6:	7f 85       	ldd	r23, Y+15	; 0x0f
    28b8:	88 89       	ldd	r24, Y+16	; 0x10
    28ba:	99 89       	ldd	r25, Y+17	; 0x11
    28bc:	0e 94 dc 15 	call	0x2bb8	; 0x2bb8 <__floatsisf>
    28c0:	6a 83       	std	Y+2, r22	; 0x02
    28c2:	7b 83       	std	Y+3, r23	; 0x03
    28c4:	8c 83       	std	Y+4, r24	; 0x04
    28c6:	9d 83       	std	Y+5, r25	; 0x05
    28c8:	20 e0       	ldi	r18, 0x00	; 0
    28ca:	30 e0       	ldi	r19, 0x00	; 0
    28cc:	40 e2       	ldi	r20, 0x20	; 32
    28ce:	51 e4       	ldi	r21, 0x41	; 65
    28d0:	6a 81       	ldd	r22, Y+2	; 0x02
    28d2:	7b 81       	ldd	r23, Y+3	; 0x03
    28d4:	8c 81       	ldd	r24, Y+4	; 0x04
    28d6:	9d 81       	ldd	r25, Y+5	; 0x05
    28d8:	0e 94 91 16 	call	0x2d22	; 0x2d22 <__mulsf3>
    28dc:	6a 8b       	std	Y+18, r22	; 0x12
    28de:	7b 8b       	std	Y+19, r23	; 0x13
    28e0:	8c 8b       	std	Y+20, r24	; 0x14
    28e2:	9d 8b       	std	Y+21, r25	; 0x15
    28e4:	8a 89       	ldd	r24, Y+18	; 0x12
    28e6:	9b 89       	ldd	r25, Y+19	; 0x13
    28e8:	ac 89       	ldd	r26, Y+20	; 0x14
    28ea:	bd 89       	ldd	r27, Y+21	; 0x15
    28ec:	8e 83       	std	Y+6, r24	; 0x06
    28ee:	9f 83       	std	Y+7, r25	; 0x07
    28f0:	a8 87       	std	Y+8, r26	; 0x08
    28f2:	b9 87       	std	Y+9, r27	; 0x09

000028f4 <.Loc.47>:
    28f4:	20 e0       	ldi	r18, 0x00	; 0
    28f6:	38 eb       	ldi	r19, 0xB8	; 184
    28f8:	4f ed       	ldi	r20, 0xDF	; 223
    28fa:	56 e4       	ldi	r21, 0x46	; 70
    28fc:	6e 81       	ldd	r22, Y+6	; 0x06
    28fe:	7f 81       	ldd	r23, Y+7	; 0x07
    2900:	88 85       	ldd	r24, Y+8	; 0x08
    2902:	99 85       	ldd	r25, Y+9	; 0x09
    2904:	0e 94 3a 15 	call	0x2a74	; 0x2a74 <__addsf3>
    2908:	6e 8b       	std	Y+22, r22	; 0x16
    290a:	7f 8b       	std	Y+23, r23	; 0x17
    290c:	88 8f       	std	Y+24, r24	; 0x18
    290e:	99 8f       	std	Y+25, r25	; 0x19
    2910:	2e 89       	ldd	r18, Y+22	; 0x16
    2912:	3f 89       	ldd	r19, Y+23	; 0x17
    2914:	48 8d       	ldd	r20, Y+24	; 0x18
    2916:	59 8d       	ldd	r21, Y+25	; 0x19
    2918:	2a 87       	std	Y+10, r18	; 0x0a
    291a:	3b 87       	std	Y+11, r19	; 0x0b
    291c:	4c 87       	std	Y+12, r20	; 0x0c
    291e:	5d 87       	std	Y+13, r21	; 0x0d

00002920 <.Loc.48>:
    2920:	0a ea       	ldi	r16, 0xAA	; 170
    2922:	10 e0       	ldi	r17, 0x00	; 0

00002924 <.Loc.49>:
    2924:	6a 85       	ldd	r22, Y+10	; 0x0a
    2926:	7b 85       	ldd	r23, Y+11	; 0x0b
    2928:	8c 85       	ldd	r24, Y+12	; 0x0c
    292a:	9d 85       	ldd	r25, Y+13	; 0x0d
    292c:	0e 94 ab 15 	call	0x2b56	; 0x2b56 <__fixunssfsi>
    2930:	6a 8f       	std	Y+26, r22	; 0x1a
    2932:	7b 8f       	std	Y+27, r23	; 0x1b
    2934:	8c 8f       	std	Y+28, r24	; 0x1c
    2936:	9d 8f       	std	Y+29, r25	; 0x1d
    2938:	8a 8d       	ldd	r24, Y+26	; 0x1a
    293a:	9b 8d       	ldd	r25, Y+27	; 0x1b
    293c:	d8 01       	movw	r26, r16
    293e:	11 96       	adiw	r26, 0x01	; 1
    2940:	9c 93       	st	X, r25
    2942:	8e 93       	st	-X, r24

00002944 <.L10>:
	}
}
    2944:	00 00       	nop
    2946:	6d 96       	adiw	r28, 0x1d	; 29
    2948:	0f b6       	in	r0, 0x3f	; 63
    294a:	f8 94       	cli
    294c:	de bf       	out	0x3e, r29	; 62
    294e:	0f be       	out	0x3f, r0	; 63
    2950:	cd bf       	out	0x3d, r28	; 61
    2952:	df 91       	pop	r29
    2954:	cf 91       	pop	r28
    2956:	1f 91       	pop	r17
    2958:	0f 91       	pop	r16
    295a:	08 95       	ret

0000295c <__divmodhi4>:
    295c:	97 fb       	bst	r25, 7

0000295e <.Loc.1>:
    295e:	07 2e       	mov	r0, r23

00002960 <.Loc.2>:
    2960:	16 f4       	brtc	.+4      	; 0x2966 <.L^B1>

00002962 <.Loc.3>:
    2962:	00 94       	com	r0

00002964 <.Loc.4>:
    2964:	07 d0       	rcall	.+14     	; 0x2974 <__divmodhi4_neg1>

00002966 <.L^B1>:
    2966:	77 fd       	sbrc	r23, 7

00002968 <.Loc.6>:
    2968:	09 d0       	rcall	.+18     	; 0x297c <__divmodhi4_neg2>

0000296a <.Loc.7>:
    296a:	0e 94 f4 14 	call	0x29e8	; 0x29e8 <__udivmodhi4>

0000296e <.Loc.8>:
    296e:	07 fc       	sbrc	r0, 7

00002970 <.Loc.9>:
    2970:	05 d0       	rcall	.+10     	; 0x297c <__divmodhi4_neg2>

00002972 <.Loc.10>:
    2972:	3e f4       	brtc	.+14     	; 0x2982 <__divmodhi4_exit>

00002974 <__divmodhi4_neg1>:
    2974:	90 95       	com	r25

00002976 <.Loc.12>:
    2976:	81 95       	neg	r24

00002978 <.Loc.13>:
    2978:	9f 4f       	sbci	r25, 0xFF	; 255

0000297a <.Loc.14>:
    297a:	08 95       	ret

0000297c <__divmodhi4_neg2>:
    297c:	70 95       	com	r23

0000297e <.Loc.16>:
    297e:	61 95       	neg	r22

00002980 <.Loc.17>:
    2980:	7f 4f       	sbci	r23, 0xFF	; 255

00002982 <__divmodhi4_exit>:
    2982:	08 95       	ret

00002984 <__divmodsi4>:
    2984:	05 2e       	mov	r0, r21

00002986 <.Loc.1>:
    2986:	97 fb       	bst	r25, 7

00002988 <.Loc.2>:
    2988:	1e f4       	brtc	.+6      	; 0x2990 <.L^B1>

0000298a <.Loc.3>:
    298a:	00 94       	com	r0

0000298c <.Loc.4>:
    298c:	0e 94 d9 14 	call	0x29b2	; 0x29b2 <__negsi2>

00002990 <.L^B1>:
    2990:	57 fd       	sbrc	r21, 7

00002992 <.Loc.6>:
    2992:	07 d0       	rcall	.+14     	; 0x29a2 <__divmodsi4_neg2>

00002994 <.Loc.7>:
    2994:	0e 94 08 15 	call	0x2a10	; 0x2a10 <__udivmodsi4>

00002998 <.Loc.8>:
    2998:	07 fc       	sbrc	r0, 7

0000299a <.Loc.9>:
    299a:	03 d0       	rcall	.+6      	; 0x29a2 <__divmodsi4_neg2>

0000299c <.Loc.10>:
    299c:	4e f4       	brtc	.+18     	; 0x29b0 <__divmodsi4_exit>

0000299e <.Loc.11>:
    299e:	0c 94 d9 14 	jmp	0x29b2	; 0x29b2 <__negsi2>

000029a2 <__divmodsi4_neg2>:
    29a2:	50 95       	com	r21

000029a4 <.Loc.13>:
    29a4:	40 95       	com	r20

000029a6 <.Loc.14>:
    29a6:	30 95       	com	r19

000029a8 <.Loc.15>:
    29a8:	21 95       	neg	r18

000029aa <.Loc.16>:
    29aa:	3f 4f       	sbci	r19, 0xFF	; 255

000029ac <.Loc.17>:
    29ac:	4f 4f       	sbci	r20, 0xFF	; 255

000029ae <.Loc.18>:
    29ae:	5f 4f       	sbci	r21, 0xFF	; 255

000029b0 <__divmodsi4_exit>:
    29b0:	08 95       	ret

000029b2 <__negsi2>:
    29b2:	90 95       	com	r25
    29b4:	80 95       	com	r24
    29b6:	70 95       	com	r23
    29b8:	61 95       	neg	r22
    29ba:	7f 4f       	sbci	r23, 0xFF	; 255
    29bc:	8f 4f       	sbci	r24, 0xFF	; 255
    29be:	9f 4f       	sbci	r25, 0xFF	; 255

000029c0 <.Loc.1>:
    29c0:	08 95       	ret

000029c2 <__tablejump2__>:
    29c2:	ee 0f       	add	r30, r30

000029c4 <.Loc.1>:
    29c4:	ff 1f       	adc	r31, r31

000029c6 <.Loc.2>:
    29c6:	88 1f       	adc	r24, r24

000029c8 <.Loc.3>:
    29c8:	8b bf       	out	0x3b, r24	; 59

000029ca <.Loc.4>:
    29ca:	07 90       	elpm	r0, Z+

000029cc <.Loc.5>:
    29cc:	f6 91       	elpm	r31, Z

000029ce <.Loc.6>:
    29ce:	e0 2d       	mov	r30, r0

000029d0 <.Loc.7>:
    29d0:	19 94       	eijmp

000029d2 <__muluhisi3>:
    29d2:	0e 94 2a 15 	call	0x2a54	; 0x2a54 <__umulhisi3>

000029d6 <.Loc.1>:
    29d6:	a5 9f       	mul	r26, r21

000029d8 <.Loc.2>:
    29d8:	90 0d       	add	r25, r0

000029da <.Loc.3>:
    29da:	b4 9f       	mul	r27, r20

000029dc <.Loc.4>:
    29dc:	90 0d       	add	r25, r0

000029de <.Loc.5>:
    29de:	a4 9f       	mul	r26, r20

000029e0 <.Loc.6>:
    29e0:	80 0d       	add	r24, r0

000029e2 <.Loc.7>:
    29e2:	91 1d       	adc	r25, r1

000029e4 <.Loc.8>:
    29e4:	11 24       	eor	r1, r1

000029e6 <.Loc.9>:
    29e6:	08 95       	ret

000029e8 <__udivmodhi4>:
    29e8:	aa 1b       	sub	r26, r26

000029ea <.Loc.1>:
    29ea:	bb 1b       	sub	r27, r27

000029ec <.Loc.2>:
    29ec:	51 e1       	ldi	r21, 0x11	; 17

000029ee <.Loc.3>:
    29ee:	07 c0       	rjmp	.+14     	; 0x29fe <__udivmodhi4_ep>

000029f0 <__udivmodhi4_loop>:
    29f0:	aa 1f       	adc	r26, r26

000029f2 <.Loc.5>:
    29f2:	bb 1f       	adc	r27, r27

000029f4 <.Loc.6>:
    29f4:	a6 17       	cp	r26, r22

000029f6 <.Loc.7>:
    29f6:	b7 07       	cpc	r27, r23

000029f8 <.Loc.8>:
    29f8:	10 f0       	brcs	.+4      	; 0x29fe <__udivmodhi4_ep>

000029fa <.Loc.9>:
    29fa:	a6 1b       	sub	r26, r22

000029fc <.Loc.10>:
    29fc:	b7 0b       	sbc	r27, r23

000029fe <__udivmodhi4_ep>:
    29fe:	88 1f       	adc	r24, r24

00002a00 <.Loc.12>:
    2a00:	99 1f       	adc	r25, r25

00002a02 <.Loc.13>:
    2a02:	5a 95       	dec	r21

00002a04 <.Loc.14>:
    2a04:	a9 f7       	brne	.-22     	; 0x29f0 <__udivmodhi4_loop>

00002a06 <.Loc.15>:
    2a06:	80 95       	com	r24

00002a08 <.Loc.16>:
    2a08:	90 95       	com	r25

00002a0a <.Loc.17>:
    2a0a:	bc 01       	movw	r22, r24

00002a0c <.Loc.18>:
    2a0c:	cd 01       	movw	r24, r26

00002a0e <.Loc.19>:
    2a0e:	08 95       	ret

00002a10 <__udivmodsi4>:
    2a10:	a1 e2       	ldi	r26, 0x21	; 33

00002a12 <.Loc.1>:
    2a12:	1a 2e       	mov	r1, r26

00002a14 <.Loc.2>:
    2a14:	aa 1b       	sub	r26, r26

00002a16 <.Loc.3>:
    2a16:	bb 1b       	sub	r27, r27

00002a18 <.Loc.4>:
    2a18:	fd 01       	movw	r30, r26

00002a1a <.Loc.5>:
    2a1a:	0d c0       	rjmp	.+26     	; 0x2a36 <__udivmodsi4_ep>

00002a1c <__udivmodsi4_loop>:
    2a1c:	aa 1f       	adc	r26, r26

00002a1e <.Loc.7>:
    2a1e:	bb 1f       	adc	r27, r27

00002a20 <.Loc.8>:
    2a20:	ee 1f       	adc	r30, r30

00002a22 <.Loc.9>:
    2a22:	ff 1f       	adc	r31, r31

00002a24 <.Loc.10>:
    2a24:	a2 17       	cp	r26, r18

00002a26 <.Loc.11>:
    2a26:	b3 07       	cpc	r27, r19

00002a28 <.Loc.12>:
    2a28:	e4 07       	cpc	r30, r20

00002a2a <.Loc.13>:
    2a2a:	f5 07       	cpc	r31, r21

00002a2c <.Loc.14>:
    2a2c:	20 f0       	brcs	.+8      	; 0x2a36 <__udivmodsi4_ep>

00002a2e <.Loc.15>:
    2a2e:	a2 1b       	sub	r26, r18

00002a30 <.Loc.16>:
    2a30:	b3 0b       	sbc	r27, r19

00002a32 <.Loc.17>:
    2a32:	e4 0b       	sbc	r30, r20

00002a34 <.Loc.18>:
    2a34:	f5 0b       	sbc	r31, r21

00002a36 <__udivmodsi4_ep>:
    2a36:	66 1f       	adc	r22, r22

00002a38 <.Loc.20>:
    2a38:	77 1f       	adc	r23, r23

00002a3a <.Loc.21>:
    2a3a:	88 1f       	adc	r24, r24

00002a3c <.Loc.22>:
    2a3c:	99 1f       	adc	r25, r25

00002a3e <.Loc.23>:
    2a3e:	1a 94       	dec	r1

00002a40 <.Loc.24>:
    2a40:	69 f7       	brne	.-38     	; 0x2a1c <__udivmodsi4_loop>

00002a42 <.Loc.25>:
    2a42:	60 95       	com	r22

00002a44 <.Loc.26>:
    2a44:	70 95       	com	r23

00002a46 <.Loc.27>:
    2a46:	80 95       	com	r24

00002a48 <.Loc.28>:
    2a48:	90 95       	com	r25

00002a4a <.Loc.29>:
    2a4a:	9b 01       	movw	r18, r22

00002a4c <.Loc.30>:
    2a4c:	ac 01       	movw	r20, r24

00002a4e <.Loc.31>:
    2a4e:	bd 01       	movw	r22, r26

00002a50 <.Loc.32>:
    2a50:	cf 01       	movw	r24, r30

00002a52 <.Loc.33>:
    2a52:	08 95       	ret

00002a54 <__umulhisi3>:
    2a54:	a2 9f       	mul	r26, r18

00002a56 <.Loc.1>:
    2a56:	b0 01       	movw	r22, r0

00002a58 <.Loc.2>:
    2a58:	b3 9f       	mul	r27, r19

00002a5a <.Loc.3>:
    2a5a:	c0 01       	movw	r24, r0

00002a5c <.Loc.4>:
    2a5c:	a3 9f       	mul	r26, r19

00002a5e <.Loc.5>:
    2a5e:	70 0d       	add	r23, r0

00002a60 <.Loc.6>:
    2a60:	81 1d       	adc	r24, r1

00002a62 <.Loc.7>:
    2a62:	11 24       	eor	r1, r1

00002a64 <.Loc.8>:
    2a64:	91 1d       	adc	r25, r1

00002a66 <.Loc.9>:
    2a66:	b2 9f       	mul	r27, r18

00002a68 <.Loc.10>:
    2a68:	70 0d       	add	r23, r0

00002a6a <.Loc.11>:
    2a6a:	81 1d       	adc	r24, r1

00002a6c <.Loc.12>:
    2a6c:	11 24       	eor	r1, r1

00002a6e <.Loc.13>:
    2a6e:	91 1d       	adc	r25, r1

00002a70 <.Loc.14>:
    2a70:	08 95       	ret

00002a72 <__subsf3>:
    2a72:	50 58       	subi	r21, 0x80	; 128

00002a74 <__addsf3>:
    2a74:	bb 27       	eor	r27, r27
    2a76:	aa 27       	eor	r26, r26
    2a78:	0e 94 51 15 	call	0x2aa2	; 0x2aa2 <__addsf3x>
    2a7c:	0c 94 52 16 	jmp	0x2ca4	; 0x2ca4 <__fp_round>

00002a80 <.L^B1>:
    2a80:	0e 94 44 16 	call	0x2c88	; 0x2c88 <__fp_pscA>
    2a84:	38 f0       	brcs	.+14     	; 0x2a94 <.L_nan>
    2a86:	0e 94 4b 16 	call	0x2c96	; 0x2c96 <__fp_pscB>
    2a8a:	20 f0       	brcs	.+8      	; 0x2a94 <.L_nan>
    2a8c:	39 f4       	brne	.+14     	; 0x2a9c <.L_inf>
    2a8e:	9f 3f       	cpi	r25, 0xFF	; 255
    2a90:	19 f4       	brne	.+6      	; 0x2a98 <.L_infB>
    2a92:	26 f4       	brtc	.+8      	; 0x2a9c <.L_inf>

00002a94 <.L_nan>:
    2a94:	0c 94 41 16 	jmp	0x2c82	; 0x2c82 <__fp_nan>

00002a98 <.L_infB>:
    2a98:	0e f4       	brtc	.+2      	; 0x2a9c <.L_inf>
    2a9a:	e0 95       	com	r30

00002a9c <.L_inf>:
    2a9c:	e7 fb       	bst	r30, 7
    2a9e:	0c 94 3b 16 	jmp	0x2c76	; 0x2c76 <__fp_inf>

00002aa2 <__addsf3x>:
    2aa2:	e9 2f       	mov	r30, r25
    2aa4:	0e 94 63 16 	call	0x2cc6	; 0x2cc6 <__fp_split3>
    2aa8:	58 f3       	brcs	.-42     	; 0x2a80 <.L^B1>
    2aaa:	ba 17       	cp	r27, r26
    2aac:	62 07       	cpc	r22, r18
    2aae:	73 07       	cpc	r23, r19
    2ab0:	84 07       	cpc	r24, r20
    2ab2:	95 07       	cpc	r25, r21
    2ab4:	20 f0       	brcs	.+8      	; 0x2abe <.L2^B1>
    2ab6:	79 f4       	brne	.+30     	; 0x2ad6 <.L4^B1>
    2ab8:	a6 f5       	brtc	.+104    	; 0x2b22 <.L_add>
    2aba:	0c 94 85 16 	jmp	0x2d0a	; 0x2d0a <__fp_zero>

00002abe <.L2^B1>:
    2abe:	0e f4       	brtc	.+2      	; 0x2ac2 <.L3^B1>
    2ac0:	e0 95       	com	r30

00002ac2 <.L3^B1>:
    2ac2:	0b 2e       	mov	r0, r27
    2ac4:	ba 2f       	mov	r27, r26
    2ac6:	a0 2d       	mov	r26, r0
    2ac8:	0b 01       	movw	r0, r22
    2aca:	b9 01       	movw	r22, r18
    2acc:	90 01       	movw	r18, r0
    2ace:	0c 01       	movw	r0, r24
    2ad0:	ca 01       	movw	r24, r20
    2ad2:	a0 01       	movw	r20, r0
    2ad4:	11 24       	eor	r1, r1

00002ad6 <.L4^B1>:
    2ad6:	ff 27       	eor	r31, r31
    2ad8:	59 1b       	sub	r21, r25

00002ada <.L5^B1>:
    2ada:	99 f0       	breq	.+38     	; 0x2b02 <.L7^B1>
    2adc:	59 3f       	cpi	r21, 0xF9	; 249
    2ade:	50 f4       	brcc	.+20     	; 0x2af4 <.L6^B1>
    2ae0:	50 3e       	cpi	r21, 0xE0	; 224
    2ae2:	68 f1       	brcs	.+90     	; 0x2b3e <.L_ret>
    2ae4:	1a 16       	cp	r1, r26
    2ae6:	f0 40       	sbci	r31, 0x00	; 0
    2ae8:	a2 2f       	mov	r26, r18
    2aea:	23 2f       	mov	r18, r19
    2aec:	34 2f       	mov	r19, r20
    2aee:	44 27       	eor	r20, r20
    2af0:	58 5f       	subi	r21, 0xF8	; 248
    2af2:	f3 cf       	rjmp	.-26     	; 0x2ada <.L5^B1>

00002af4 <.L6^B1>:
    2af4:	46 95       	lsr	r20
    2af6:	37 95       	ror	r19
    2af8:	27 95       	ror	r18
    2afa:	a7 95       	ror	r26
    2afc:	f0 40       	sbci	r31, 0x00	; 0
    2afe:	53 95       	inc	r21
    2b00:	c9 f7       	brne	.-14     	; 0x2af4 <.L6^B1>

00002b02 <.L7^B1>:
    2b02:	7e f4       	brtc	.+30     	; 0x2b22 <.L_add>
    2b04:	1f 16       	cp	r1, r31
    2b06:	ba 0b       	sbc	r27, r26
    2b08:	62 0b       	sbc	r22, r18
    2b0a:	73 0b       	sbc	r23, r19
    2b0c:	84 0b       	sbc	r24, r20
    2b0e:	ba f0       	brmi	.+46     	; 0x2b3e <.L_ret>

00002b10 <.L8^B1>:
    2b10:	91 50       	subi	r25, 0x01	; 1
    2b12:	a1 f0       	breq	.+40     	; 0x2b3c <.L9^B1>
    2b14:	ff 0f       	add	r31, r31
    2b16:	bb 1f       	adc	r27, r27
    2b18:	66 1f       	adc	r22, r22
    2b1a:	77 1f       	adc	r23, r23
    2b1c:	88 1f       	adc	r24, r24
    2b1e:	c2 f7       	brpl	.-16     	; 0x2b10 <.L8^B1>
    2b20:	0e c0       	rjmp	.+28     	; 0x2b3e <.L_ret>

00002b22 <.L_add>:
    2b22:	ba 0f       	add	r27, r26
    2b24:	62 1f       	adc	r22, r18
    2b26:	73 1f       	adc	r23, r19
    2b28:	84 1f       	adc	r24, r20
    2b2a:	48 f4       	brcc	.+18     	; 0x2b3e <.L_ret>
    2b2c:	87 95       	ror	r24
    2b2e:	77 95       	ror	r23
    2b30:	67 95       	ror	r22
    2b32:	b7 95       	ror	r27
    2b34:	f7 95       	ror	r31
    2b36:	9e 3f       	cpi	r25, 0xFE	; 254
    2b38:	08 f0       	brcs	.+2      	; 0x2b3c <.L9^B1>
    2b3a:	b0 cf       	rjmp	.-160    	; 0x2a9c <.L_inf>

00002b3c <.L9^B1>:
    2b3c:	93 95       	inc	r25

00002b3e <.L_ret>:
    2b3e:	88 0f       	add	r24, r24
    2b40:	08 f0       	brcs	.+2      	; 0x2b44 <.L1^B1>
    2b42:	99 27       	eor	r25, r25

00002b44 <.L1^B1>:
    2b44:	ee 0f       	add	r30, r30
    2b46:	97 95       	ror	r25
    2b48:	87 95       	ror	r24
    2b4a:	08 95       	ret

00002b4c <__cmpsf2>:
    2b4c:	0e 94 17 16 	call	0x2c2e	; 0x2c2e <__fp_cmp>
    2b50:	08 f4       	brcc	.+2      	; 0x2b54 <.L1^B1>
    2b52:	81 e0       	ldi	r24, 0x01	; 1

00002b54 <.L1^B1>:
    2b54:	08 95       	ret

00002b56 <__fixunssfsi>:
    2b56:	0e 94 6b 16 	call	0x2cd6	; 0x2cd6 <__fp_splitA>
    2b5a:	88 f0       	brcs	.+34     	; 0x2b7e <.L_err>
    2b5c:	9f 57       	subi	r25, 0x7F	; 127
    2b5e:	98 f0       	brcs	.+38     	; 0x2b86 <.L_zr>
    2b60:	b9 2f       	mov	r27, r25
    2b62:	99 27       	eor	r25, r25
    2b64:	b7 51       	subi	r27, 0x17	; 23
    2b66:	b0 f0       	brcs	.+44     	; 0x2b94 <.L4^B1>
    2b68:	e1 f0       	breq	.+56     	; 0x2ba2 <.L_sign>

00002b6a <.L1^B1>:
    2b6a:	66 0f       	add	r22, r22
    2b6c:	77 1f       	adc	r23, r23
    2b6e:	88 1f       	adc	r24, r24
    2b70:	99 1f       	adc	r25, r25
    2b72:	1a f0       	brmi	.+6      	; 0x2b7a <.L2^B1>
    2b74:	ba 95       	dec	r27
    2b76:	c9 f7       	brne	.-14     	; 0x2b6a <.L1^B1>
    2b78:	14 c0       	rjmp	.+40     	; 0x2ba2 <.L_sign>

00002b7a <.L2^B1>:
    2b7a:	b1 30       	cpi	r27, 0x01	; 1
    2b7c:	91 f0       	breq	.+36     	; 0x2ba2 <.L_sign>

00002b7e <.L_err>:
    2b7e:	0e 94 85 16 	call	0x2d0a	; 0x2d0a <__fp_zero>
    2b82:	b1 e0       	ldi	r27, 0x01	; 1
    2b84:	08 95       	ret

00002b86 <.L_zr>:
    2b86:	0c 94 85 16 	jmp	0x2d0a	; 0x2d0a <__fp_zero>

00002b8a <.L3^B1>:
    2b8a:	67 2f       	mov	r22, r23
    2b8c:	78 2f       	mov	r23, r24
    2b8e:	88 27       	eor	r24, r24
    2b90:	b8 5f       	subi	r27, 0xF8	; 248
    2b92:	39 f0       	breq	.+14     	; 0x2ba2 <.L_sign>

00002b94 <.L4^B1>:
    2b94:	b9 3f       	cpi	r27, 0xF9	; 249
    2b96:	cc f3       	brlt	.-14     	; 0x2b8a <.L3^B1>

00002b98 <.L5^B1>:
    2b98:	86 95       	lsr	r24
    2b9a:	77 95       	ror	r23
    2b9c:	67 95       	ror	r22
    2b9e:	b3 95       	inc	r27
    2ba0:	d9 f7       	brne	.-10     	; 0x2b98 <.L5^B1>

00002ba2 <.L_sign>:
    2ba2:	3e f4       	brtc	.+14     	; 0x2bb2 <.L6^B1>
    2ba4:	90 95       	com	r25
    2ba6:	80 95       	com	r24
    2ba8:	70 95       	com	r23
    2baa:	61 95       	neg	r22
    2bac:	7f 4f       	sbci	r23, 0xFF	; 255
    2bae:	8f 4f       	sbci	r24, 0xFF	; 255
    2bb0:	9f 4f       	sbci	r25, 0xFF	; 255

00002bb2 <.L6^B1>:
    2bb2:	08 95       	ret

00002bb4 <__floatunsisf>:
    2bb4:	e8 94       	clt
    2bb6:	09 c0       	rjmp	.+18     	; 0x2bca <.L1^B1>

00002bb8 <__floatsisf>:
    2bb8:	97 fb       	bst	r25, 7
    2bba:	3e f4       	brtc	.+14     	; 0x2bca <.L1^B1>
    2bbc:	90 95       	com	r25
    2bbe:	80 95       	com	r24
    2bc0:	70 95       	com	r23
    2bc2:	61 95       	neg	r22
    2bc4:	7f 4f       	sbci	r23, 0xFF	; 255
    2bc6:	8f 4f       	sbci	r24, 0xFF	; 255
    2bc8:	9f 4f       	sbci	r25, 0xFF	; 255

00002bca <.L1^B1>:
    2bca:	99 23       	and	r25, r25
    2bcc:	a9 f0       	breq	.+42     	; 0x2bf8 <.L4^B1>
    2bce:	f9 2f       	mov	r31, r25
    2bd0:	96 e9       	ldi	r25, 0x96	; 150
    2bd2:	bb 27       	eor	r27, r27

00002bd4 <.L2^B1>:
    2bd4:	93 95       	inc	r25
    2bd6:	f6 95       	lsr	r31
    2bd8:	87 95       	ror	r24
    2bda:	77 95       	ror	r23
    2bdc:	67 95       	ror	r22
    2bde:	b7 95       	ror	r27
    2be0:	f1 11       	cpse	r31, r1
    2be2:	f8 cf       	rjmp	.-16     	; 0x2bd4 <.L2^B1>
    2be4:	fa f4       	brpl	.+62     	; 0x2c24 <.L_pack>
    2be6:	bb 0f       	add	r27, r27
    2be8:	11 f4       	brne	.+4      	; 0x2bee <.L3^B1>
    2bea:	60 ff       	sbrs	r22, 0
    2bec:	1b c0       	rjmp	.+54     	; 0x2c24 <.L_pack>

00002bee <.L3^B1>:
    2bee:	6f 5f       	subi	r22, 0xFF	; 255
    2bf0:	7f 4f       	sbci	r23, 0xFF	; 255
    2bf2:	8f 4f       	sbci	r24, 0xFF	; 255
    2bf4:	9f 4f       	sbci	r25, 0xFF	; 255
    2bf6:	16 c0       	rjmp	.+44     	; 0x2c24 <.L_pack>

00002bf8 <.L4^B1>:
    2bf8:	88 23       	and	r24, r24
    2bfa:	11 f0       	breq	.+4      	; 0x2c00 <.L5^B1>
    2bfc:	96 e9       	ldi	r25, 0x96	; 150
    2bfe:	11 c0       	rjmp	.+34     	; 0x2c22 <.L8^B1>

00002c00 <.L5^B1>:
    2c00:	77 23       	and	r23, r23
    2c02:	21 f0       	breq	.+8      	; 0x2c0c <.L6^B1>
    2c04:	9e e8       	ldi	r25, 0x8E	; 142
    2c06:	87 2f       	mov	r24, r23
    2c08:	76 2f       	mov	r23, r22
    2c0a:	05 c0       	rjmp	.+10     	; 0x2c16 <.L7^B1>

00002c0c <.L6^B1>:
    2c0c:	66 23       	and	r22, r22
    2c0e:	71 f0       	breq	.+28     	; 0x2c2c <.L9^B1>
    2c10:	96 e8       	ldi	r25, 0x86	; 134
    2c12:	86 2f       	mov	r24, r22
    2c14:	70 e0       	ldi	r23, 0x00	; 0

00002c16 <.L7^B1>:
    2c16:	60 e0       	ldi	r22, 0x00	; 0
    2c18:	2a f0       	brmi	.+10     	; 0x2c24 <.L_pack>

00002c1a <.L10^B1>:
    2c1a:	9a 95       	dec	r25
    2c1c:	66 0f       	add	r22, r22
    2c1e:	77 1f       	adc	r23, r23
    2c20:	88 1f       	adc	r24, r24

00002c22 <.L8^B1>:
    2c22:	da f7       	brpl	.-10     	; 0x2c1a <.L10^B1>

00002c24 <.L_pack>:
    2c24:	88 0f       	add	r24, r24
    2c26:	96 95       	lsr	r25
    2c28:	87 95       	ror	r24
    2c2a:	97 f9       	bld	r25, 7

00002c2c <.L9^B1>:
    2c2c:	08 95       	ret

00002c2e <__fp_cmp>:
    2c2e:	99 0f       	add	r25, r25
    2c30:	00 08       	sbc	r0, r0
    2c32:	55 0f       	add	r21, r21
    2c34:	aa 0b       	sbc	r26, r26
    2c36:	e0 e8       	ldi	r30, 0x80	; 128
    2c38:	fe ef       	ldi	r31, 0xFE	; 254
    2c3a:	16 16       	cp	r1, r22
    2c3c:	17 06       	cpc	r1, r23
    2c3e:	e8 07       	cpc	r30, r24
    2c40:	f9 07       	cpc	r31, r25
    2c42:	c0 f0       	brcs	.+48     	; 0x2c74 <.L9^B1>
    2c44:	12 16       	cp	r1, r18
    2c46:	13 06       	cpc	r1, r19
    2c48:	e4 07       	cpc	r30, r20
    2c4a:	f5 07       	cpc	r31, r21
    2c4c:	98 f0       	brcs	.+38     	; 0x2c74 <.L9^B1>
    2c4e:	62 1b       	sub	r22, r18
    2c50:	73 0b       	sbc	r23, r19
    2c52:	84 0b       	sbc	r24, r20
    2c54:	95 0b       	sbc	r25, r21
    2c56:	39 f4       	brne	.+14     	; 0x2c66 <.L1^B1>
    2c58:	0a 26       	eor	r0, r26
    2c5a:	61 f0       	breq	.+24     	; 0x2c74 <.L9^B1>
    2c5c:	23 2b       	or	r18, r19
    2c5e:	24 2b       	or	r18, r20
    2c60:	25 2b       	or	r18, r21
    2c62:	21 f4       	brne	.+8      	; 0x2c6c <.L2^B1>
    2c64:	08 95       	ret

00002c66 <.L1^B1>:
    2c66:	0a 26       	eor	r0, r26
    2c68:	09 f4       	brne	.+2      	; 0x2c6c <.L2^B1>
    2c6a:	a1 40       	sbci	r26, 0x01	; 1

00002c6c <.L2^B1>:
    2c6c:	a6 95       	lsr	r26
    2c6e:	8f ef       	ldi	r24, 0xFF	; 255
    2c70:	81 1d       	adc	r24, r1
    2c72:	81 1d       	adc	r24, r1

00002c74 <.L9^B1>:
    2c74:	08 95       	ret

00002c76 <__fp_inf>:
    2c76:	97 f9       	bld	r25, 7
    2c78:	9f 67       	ori	r25, 0x7F	; 127
    2c7a:	80 e8       	ldi	r24, 0x80	; 128
    2c7c:	70 e0       	ldi	r23, 0x00	; 0
    2c7e:	60 e0       	ldi	r22, 0x00	; 0
    2c80:	08 95       	ret

00002c82 <__fp_nan>:
    2c82:	9f ef       	ldi	r25, 0xFF	; 255
    2c84:	80 ec       	ldi	r24, 0xC0	; 192
    2c86:	08 95       	ret

00002c88 <__fp_pscA>:
    2c88:	00 24       	eor	r0, r0
    2c8a:	0a 94       	dec	r0
    2c8c:	16 16       	cp	r1, r22
    2c8e:	17 06       	cpc	r1, r23
    2c90:	18 06       	cpc	r1, r24
    2c92:	09 06       	cpc	r0, r25
    2c94:	08 95       	ret

00002c96 <__fp_pscB>:
    2c96:	00 24       	eor	r0, r0
    2c98:	0a 94       	dec	r0
    2c9a:	12 16       	cp	r1, r18
    2c9c:	13 06       	cpc	r1, r19
    2c9e:	14 06       	cpc	r1, r20
    2ca0:	05 06       	cpc	r0, r21
    2ca2:	08 95       	ret

00002ca4 <__fp_round>:
    2ca4:	09 2e       	mov	r0, r25
    2ca6:	03 94       	inc	r0
    2ca8:	00 0c       	add	r0, r0
    2caa:	11 f4       	brne	.+4      	; 0x2cb0 <.L1^B1>
    2cac:	88 23       	and	r24, r24
    2cae:	52 f0       	brmi	.+20     	; 0x2cc4 <.L3^B1>

00002cb0 <.L1^B1>:
    2cb0:	bb 0f       	add	r27, r27
    2cb2:	40 f4       	brcc	.+16     	; 0x2cc4 <.L3^B1>
    2cb4:	bf 2b       	or	r27, r31
    2cb6:	11 f4       	brne	.+4      	; 0x2cbc <.L2^B1>
    2cb8:	60 ff       	sbrs	r22, 0
    2cba:	04 c0       	rjmp	.+8      	; 0x2cc4 <.L3^B1>

00002cbc <.L2^B1>:
    2cbc:	6f 5f       	subi	r22, 0xFF	; 255
    2cbe:	7f 4f       	sbci	r23, 0xFF	; 255
    2cc0:	8f 4f       	sbci	r24, 0xFF	; 255
    2cc2:	9f 4f       	sbci	r25, 0xFF	; 255

00002cc4 <.L3^B1>:
    2cc4:	08 95       	ret

00002cc6 <__fp_split3>:
    2cc6:	57 fd       	sbrc	r21, 7
    2cc8:	90 58       	subi	r25, 0x80	; 128
    2cca:	44 0f       	add	r20, r20
    2ccc:	55 1f       	adc	r21, r21
    2cce:	59 f0       	breq	.+22     	; 0x2ce6 <.L4^B1>
    2cd0:	5f 3f       	cpi	r21, 0xFF	; 255
    2cd2:	71 f0       	breq	.+28     	; 0x2cf0 <.L5^B1>

00002cd4 <.L1^B1>:
    2cd4:	47 95       	ror	r20

00002cd6 <__fp_splitA>:
    2cd6:	88 0f       	add	r24, r24
    2cd8:	97 fb       	bst	r25, 7
    2cda:	99 1f       	adc	r25, r25
    2cdc:	61 f0       	breq	.+24     	; 0x2cf6 <.L6^B1>
    2cde:	9f 3f       	cpi	r25, 0xFF	; 255
    2ce0:	79 f0       	breq	.+30     	; 0x2d00 <.L7^B1>

00002ce2 <.L3^B1>:
    2ce2:	87 95       	ror	r24
    2ce4:	08 95       	ret

00002ce6 <.L4^B1>:
    2ce6:	12 16       	cp	r1, r18
    2ce8:	13 06       	cpc	r1, r19
    2cea:	14 06       	cpc	r1, r20
    2cec:	55 1f       	adc	r21, r21
    2cee:	f2 cf       	rjmp	.-28     	; 0x2cd4 <.L1^B1>

00002cf0 <.L5^B1>:
    2cf0:	46 95       	lsr	r20
    2cf2:	f1 df       	rcall	.-30     	; 0x2cd6 <__fp_splitA>
    2cf4:	08 c0       	rjmp	.+16     	; 0x2d06 <.L8^B1>

00002cf6 <.L6^B1>:
    2cf6:	16 16       	cp	r1, r22
    2cf8:	17 06       	cpc	r1, r23
    2cfa:	18 06       	cpc	r1, r24
    2cfc:	99 1f       	adc	r25, r25
    2cfe:	f1 cf       	rjmp	.-30     	; 0x2ce2 <.L3^B1>

00002d00 <.L7^B1>:
    2d00:	86 95       	lsr	r24
    2d02:	71 05       	cpc	r23, r1
    2d04:	61 05       	cpc	r22, r1

00002d06 <.L8^B1>:
    2d06:	08 94       	sec
    2d08:	08 95       	ret

00002d0a <__fp_zero>:
    2d0a:	e8 94       	clt

00002d0c <__fp_szero>:
    2d0c:	bb 27       	eor	r27, r27
    2d0e:	66 27       	eor	r22, r22
    2d10:	77 27       	eor	r23, r23
    2d12:	cb 01       	movw	r24, r22
    2d14:	97 f9       	bld	r25, 7
    2d16:	08 95       	ret

00002d18 <__gesf2>:
    2d18:	0e 94 17 16 	call	0x2c2e	; 0x2c2e <__fp_cmp>
    2d1c:	08 f4       	brcc	.+2      	; 0x2d20 <.L1^B1>
    2d1e:	8f ef       	ldi	r24, 0xFF	; 255

00002d20 <.L1^B1>:
    2d20:	08 95       	ret

00002d22 <__mulsf3>:
    2d22:	0e 94 a4 16 	call	0x2d48	; 0x2d48 <__mulsf3x>
    2d26:	0c 94 52 16 	jmp	0x2ca4	; 0x2ca4 <__fp_round>

00002d2a <.L^B1>:
    2d2a:	0e 94 44 16 	call	0x2c88	; 0x2c88 <__fp_pscA>
    2d2e:	38 f0       	brcs	.+14     	; 0x2d3e <.L1^B1>
    2d30:	0e 94 4b 16 	call	0x2c96	; 0x2c96 <__fp_pscB>
    2d34:	20 f0       	brcs	.+8      	; 0x2d3e <.L1^B1>
    2d36:	95 23       	and	r25, r21
    2d38:	11 f0       	breq	.+4      	; 0x2d3e <.L1^B1>
    2d3a:	0c 94 3b 16 	jmp	0x2c76	; 0x2c76 <__fp_inf>

00002d3e <.L1^B1>:
    2d3e:	0c 94 41 16 	jmp	0x2c82	; 0x2c82 <__fp_nan>

00002d42 <.L2^B1>:
    2d42:	11 24       	eor	r1, r1
    2d44:	0c 94 86 16 	jmp	0x2d0c	; 0x2d0c <__fp_szero>

00002d48 <__mulsf3x>:
    2d48:	0e 94 63 16 	call	0x2cc6	; 0x2cc6 <__fp_split3>
    2d4c:	70 f3       	brcs	.-36     	; 0x2d2a <.L^B1>

00002d4e <__mulsf3_pse>:
    2d4e:	95 9f       	mul	r25, r21
    2d50:	c1 f3       	breq	.-16     	; 0x2d42 <.L2^B1>
    2d52:	95 0f       	add	r25, r21
    2d54:	50 e0       	ldi	r21, 0x00	; 0
    2d56:	55 1f       	adc	r21, r21
    2d58:	62 9f       	mul	r22, r18
    2d5a:	f0 01       	movw	r30, r0
    2d5c:	72 9f       	mul	r23, r18
    2d5e:	bb 27       	eor	r27, r27
    2d60:	f0 0d       	add	r31, r0
    2d62:	b1 1d       	adc	r27, r1
    2d64:	63 9f       	mul	r22, r19
    2d66:	aa 27       	eor	r26, r26
    2d68:	f0 0d       	add	r31, r0
    2d6a:	b1 1d       	adc	r27, r1
    2d6c:	aa 1f       	adc	r26, r26
    2d6e:	64 9f       	mul	r22, r20
    2d70:	66 27       	eor	r22, r22
    2d72:	b0 0d       	add	r27, r0
    2d74:	a1 1d       	adc	r26, r1
    2d76:	66 1f       	adc	r22, r22
    2d78:	82 9f       	mul	r24, r18
    2d7a:	22 27       	eor	r18, r18
    2d7c:	b0 0d       	add	r27, r0
    2d7e:	a1 1d       	adc	r26, r1
    2d80:	62 1f       	adc	r22, r18
    2d82:	73 9f       	mul	r23, r19
    2d84:	b0 0d       	add	r27, r0
    2d86:	a1 1d       	adc	r26, r1
    2d88:	62 1f       	adc	r22, r18
    2d8a:	83 9f       	mul	r24, r19
    2d8c:	a0 0d       	add	r26, r0
    2d8e:	61 1d       	adc	r22, r1
    2d90:	22 1f       	adc	r18, r18
    2d92:	74 9f       	mul	r23, r20
    2d94:	33 27       	eor	r19, r19
    2d96:	a0 0d       	add	r26, r0
    2d98:	61 1d       	adc	r22, r1
    2d9a:	23 1f       	adc	r18, r19
    2d9c:	84 9f       	mul	r24, r20
    2d9e:	60 0d       	add	r22, r0
    2da0:	21 1d       	adc	r18, r1
    2da2:	82 2f       	mov	r24, r18
    2da4:	76 2f       	mov	r23, r22
    2da6:	6a 2f       	mov	r22, r26
    2da8:	11 24       	eor	r1, r1
    2daa:	9f 57       	subi	r25, 0x7F	; 127
    2dac:	50 40       	sbci	r21, 0x00	; 0
    2dae:	9a f0       	brmi	.+38     	; 0x2dd6 <.L13^B1>
    2db0:	f1 f0       	breq	.+60     	; 0x2dee <.L15^B1>

00002db2 <.L10^B1>:
    2db2:	88 23       	and	r24, r24
    2db4:	4a f0       	brmi	.+18     	; 0x2dc8 <.L11^B1>
    2db6:	ee 0f       	add	r30, r30
    2db8:	ff 1f       	adc	r31, r31
    2dba:	bb 1f       	adc	r27, r27
    2dbc:	66 1f       	adc	r22, r22
    2dbe:	77 1f       	adc	r23, r23
    2dc0:	88 1f       	adc	r24, r24
    2dc2:	91 50       	subi	r25, 0x01	; 1
    2dc4:	50 40       	sbci	r21, 0x00	; 0
    2dc6:	a9 f7       	brne	.-22     	; 0x2db2 <.L10^B1>

00002dc8 <.L11^B1>:
    2dc8:	9e 3f       	cpi	r25, 0xFE	; 254
    2dca:	51 05       	cpc	r21, r1
    2dcc:	80 f0       	brcs	.+32     	; 0x2dee <.L15^B1>
    2dce:	0c 94 3b 16 	jmp	0x2c76	; 0x2c76 <__fp_inf>

00002dd2 <.L12^B1>:
    2dd2:	0c 94 86 16 	jmp	0x2d0c	; 0x2d0c <__fp_szero>

00002dd6 <.L13^B1>:
    2dd6:	5f 3f       	cpi	r21, 0xFF	; 255
    2dd8:	e4 f3       	brlt	.-8      	; 0x2dd2 <.L12^B1>
    2dda:	98 3e       	cpi	r25, 0xE8	; 232
    2ddc:	d4 f3       	brlt	.-12     	; 0x2dd2 <.L12^B1>

00002dde <.L14^B1>:
    2dde:	86 95       	lsr	r24
    2de0:	77 95       	ror	r23
    2de2:	67 95       	ror	r22
    2de4:	b7 95       	ror	r27
    2de6:	f7 95       	ror	r31
    2de8:	e7 95       	ror	r30
    2dea:	9f 5f       	subi	r25, 0xFF	; 255
    2dec:	c1 f7       	brne	.-16     	; 0x2dde <.L14^B1>

00002dee <.L15^B1>:
    2dee:	fe 2b       	or	r31, r30
    2df0:	88 0f       	add	r24, r24
    2df2:	91 1d       	adc	r25, r1
    2df4:	96 95       	lsr	r25
    2df6:	87 95       	ror	r24
    2df8:	97 f9       	bld	r25, 7
    2dfa:	08 95       	ret

00002dfc <_exit>:
    2dfc:	f8 94       	cli

00002dfe <__stop_program>:
    2dfe:	ff cf       	rjmp	.-2      	; 0x2dfe <__stop_program>

00002e00 <L0^A>:
    2e00:	6d 06       	cpc	r6, r29
    2e02:	37 07       	cpc	r19, r23
    2e04:	06 08       	sbc	r0, r6
    2e06:	34 0a       	sbc	r3, r20
    2e08:	d0 0e       	add	r13, r16
    2e0a:	40 0a       	sbc	r4, r16
    2e0c:	f2 0f       	add	r31, r18
    2e0e:	65 0b       	sbc	r22, r21
    2e10:	fd 0f       	add	r31, r29
    2e12:	81 0c       	add	r8, r1
    2e14:	4c 12       	cpse	r4, r28
    2e16:	a3 0d       	add	r26, r3
    2e18:	1f 11       	cpse	r17, r15
    2e1a:	ae 0d       	add	r26, r14
    2e1c:	41 12       	cpse	r4, r17
