
bin\Debug\Allescode.elf:     file format elf32-avr

Sections:
Idx Name          Size      VMA       LMA       File off  Algn
  0 .data         00000090  00800200  00004922  000049d6  2**0
                  CONTENTS, ALLOC, LOAD, DATA
  1 .text         00004922  00000000  00000000  000000b4  2**1
                  CONTENTS, ALLOC, LOAD, READONLY, CODE
  2 .bss          00000004  00800290  00800290  00004a66  2**0
                  ALLOC
  3 .fuse         00000003  00820000  00820000  00004a66  2**0
                  CONTENTS, ALLOC, LOAD, DATA
  4 .comment      00000012  00000000  00000000  00004a69  2**0
                  CONTENTS, READONLY
  5 .note.gnu.avr.deviceinfo 00000040  00000000  00000000  00004a7c  2**2
                  CONTENTS, READONLY, OCTETS
  6 .debug_aranges 000001f8  00000000  00000000  00004ac0  2**3
                  CONTENTS, READONLY, DEBUGGING, OCTETS
  7 .debug_info   00001fcc  00000000  00000000  00004cb8  2**0
                  CONTENTS, READONLY, DEBUGGING, OCTETS
  8 .debug_abbrev 0000115a  00000000  00000000  00006c84  2**0
                  CONTENTS, READONLY, DEBUGGING, OCTETS
  9 .debug_line   0000283e  00000000  00000000  00007dde  2**0
                  CONTENTS, READONLY, DEBUGGING, OCTETS
 10 .debug_frame  00000678  00000000  00000000  0000a61c  2**2
                  CONTENTS, READONLY, DEBUGGING, OCTETS
 11 .debug_str    000007ab  00000000  00000000  0000ac94  2**0
                  CONTENTS, READONLY, DEBUGGING, OCTETS
 12 .debug_line_str 00000195  00000000  00000000  0000b43f  2**0
                  CONTENTS, READONLY, DEBUGGING, OCTETS

Disassembly of section .text:

00000000 <__vectors>:
       0:	0c 94 8c 00 	jmp	0x118	; 0x118 <__ctors_end>
       4:	0c 94 ad 00 	jmp	0x15a	; 0x15a <__bad_interrupt>
       8:	0c 94 ad 00 	jmp	0x15a	; 0x15a <__bad_interrupt>
       c:	0c 94 ad 00 	jmp	0x15a	; 0x15a <__bad_interrupt>
      10:	0c 94 ad 00 	jmp	0x15a	; 0x15a <__bad_interrupt>
      14:	0c 94 ad 00 	jmp	0x15a	; 0x15a <__bad_interrupt>
      18:	0c 94 ad 00 	jmp	0x15a	; 0x15a <__bad_interrupt>
      1c:	0c 94 ad 00 	jmp	0x15a	; 0x15a <__bad_interrupt>
      20:	0c 94 ad 00 	jmp	0x15a	; 0x15a <__bad_interrupt>
      24:	0c 94 ad 00 	jmp	0x15a	; 0x15a <__bad_interrupt>
      28:	0c 94 ad 00 	jmp	0x15a	; 0x15a <__bad_interrupt>
      2c:	0c 94 ad 00 	jmp	0x15a	; 0x15a <__bad_interrupt>
      30:	0c 94 ad 00 	jmp	0x15a	; 0x15a <__bad_interrupt>
      34:	0c 94 ad 00 	jmp	0x15a	; 0x15a <__bad_interrupt>
      38:	0c 94 ad 00 	jmp	0x15a	; 0x15a <__bad_interrupt>
      3c:	0c 94 ad 00 	jmp	0x15a	; 0x15a <__bad_interrupt>
      40:	0c 94 ad 00 	jmp	0x15a	; 0x15a <__bad_interrupt>
      44:	0c 94 ad 00 	jmp	0x15a	; 0x15a <__bad_interrupt>
      48:	0c 94 ad 00 	jmp	0x15a	; 0x15a <__bad_interrupt>
      4c:	0c 94 ad 00 	jmp	0x15a	; 0x15a <__bad_interrupt>
      50:	0c 94 ad 00 	jmp	0x15a	; 0x15a <__bad_interrupt>
      54:	0c 94 91 01 	jmp	0x322	; 0x322 <__vector_21>
      58:	0c 94 ef 01 	jmp	0x3de	; 0x3de <__vector_22>
      5c:	0c 94 af 00 	jmp	0x15e	; 0x15e <__vector_23>
      60:	0c 94 ad 00 	jmp	0x15a	; 0x15a <__bad_interrupt>
      64:	0c 94 91 03 	jmp	0x722	; 0x722 <__vector_25>
      68:	0c 94 ad 00 	jmp	0x15a	; 0x15a <__bad_interrupt>
      6c:	0c 94 ad 00 	jmp	0x15a	; 0x15a <__bad_interrupt>
      70:	0c 94 ad 00 	jmp	0x15a	; 0x15a <__bad_interrupt>
      74:	0c 94 ad 00 	jmp	0x15a	; 0x15a <__bad_interrupt>
      78:	0c 94 ad 00 	jmp	0x15a	; 0x15a <__bad_interrupt>
      7c:	0c 94 ad 00 	jmp	0x15a	; 0x15a <__bad_interrupt>
      80:	0c 94 bf 01 	jmp	0x37e	; 0x37e <__vector_32>
      84:	0c 94 1d 02 	jmp	0x43a	; 0x43a <__vector_33>
      88:	0c 94 ad 00 	jmp	0x15a	; 0x15a <__bad_interrupt>
      8c:	0c 94 1e 01 	jmp	0x23c	; 0x23c <__vector_35>
      90:	0c 94 ad 00 	jmp	0x15a	; 0x15a <__bad_interrupt>
      94:	0c 94 ad 00 	jmp	0x15a	; 0x15a <__bad_interrupt>
      98:	0c 94 ad 00 	jmp	0x15a	; 0x15a <__bad_interrupt>
      9c:	0c 94 ad 00 	jmp	0x15a	; 0x15a <__bad_interrupt>
      a0:	0c 94 ad 00 	jmp	0x15a	; 0x15a <__bad_interrupt>
      a4:	0c 94 ad 00 	jmp	0x15a	; 0x15a <__bad_interrupt>
      a8:	0c 94 52 20 	jmp	0x40a4	; 0x40a4 <__vector_42>
      ac:	0c 94 7a 20 	jmp	0x40f4	; 0x40f4 <__vector_43>
      b0:	0c 94 ad 00 	jmp	0x15a	; 0x15a <__bad_interrupt>
      b4:	0c 94 18 20 	jmp	0x4030	; 0x4030 <__vector_45>
      b8:	0c 94 ad 00 	jmp	0x15a	; 0x15a <__bad_interrupt>
      bc:	0c 94 73 1f 	jmp	0x3ee6	; 0x3ee6 <__vector_47>
      c0:	0c 94 a4 1f 	jmp	0x3f48	; 0x3f48 <__vector_48>
      c4:	0c 94 ad 00 	jmp	0x15a	; 0x15a <__bad_interrupt>
      c8:	0c 94 d5 1f 	jmp	0x3faa	; 0x3faa <__vector_50>
      cc:	0c 94 ad 00 	jmp	0x15a	; 0x15a <__bad_interrupt>
      d0:	0c 94 ad 00 	jmp	0x15a	; 0x15a <__bad_interrupt>
      d4:	0c 94 ad 00 	jmp	0x15a	; 0x15a <__bad_interrupt>
      d8:	0c 94 ad 00 	jmp	0x15a	; 0x15a <__bad_interrupt>
      dc:	0c 94 ad 00 	jmp	0x15a	; 0x15a <__bad_interrupt>
      e0:	0c 94 ad 00 	jmp	0x15a	; 0x15a <__bad_interrupt>

000000e4 <__trampolines_start>:
      e4:	0c 94 d8 15 	jmp	0x2bb0	; 0x2bb0 <.L22>
      e8:	0c 94 60 19 	jmp	0x32c0	; 0x32c0 <.L20>
      ec:	0c 94 8f 1a 	jmp	0x351e	; 0x351e <.L19>
      f0:	0c 94 5c 12 	jmp	0x24b8	; 0x24b8 <.L24>
      f4:	0c 94 c1 1b 	jmp	0x3782	; 0x3782 <.L18>
      f8:	0c 94 f1 1c 	jmp	0x39e2	; 0x39e2 <.L17>
      fc:	0c 94 09 17 	jmp	0x2e12	; 0x2e12 <.L21>
     100:	0c 94 15 10 	jmp	0x202a	; 0x202a <.L25>
     104:	0c 94 9b 14 	jmp	0x2936	; 0x2936 <.L23>
     108:	0c 94 4f 0e 	jmp	0x1c9e	; 0x1c9e <.L27>
     10c:	0c 94 3c 0f 	jmp	0x1e78	; 0x1e78 <.L26>
     110:	0c 94 1d 1e 	jmp	0x3c3a	; 0x3c3a <.L15>
     114:	0c 94 5a 0d 	jmp	0x1ab4	; 0x1ab4 <.L28>

00000118 <__ctors_end>:
     118:	11 24       	eor	r1, r1
     11a:	1f be       	out	0x3f, r1	; 63
     11c:	cf ef       	ldi	r28, 0xFF	; 255
     11e:	d1 e2       	ldi	r29, 0x21	; 33
     120:	de bf       	out	0x3e, r29	; 62
     122:	cd bf       	out	0x3d, r28	; 61
     124:	00 e0       	ldi	r16, 0x00	; 0
     126:	0c bf       	out	0x3c, r16	; 60

00000128 <__do_copy_data>:
     128:	12 e0       	ldi	r17, 0x02	; 2

0000012a <.Loc.1>:
     12a:	a0 e0       	ldi	r26, 0x00	; 0

0000012c <.Loc.2>:
     12c:	b2 e0       	ldi	r27, 0x02	; 2

0000012e <.Loc.3>:
     12e:	e2 e2       	ldi	r30, 0x22	; 34

00000130 <.Loc.4>:
     130:	f9 e4       	ldi	r31, 0x49	; 73

00000132 <.Loc.5>:
     132:	00 e0       	ldi	r16, 0x00	; 0

00000134 <.Loc.6>:
     134:	0b bf       	out	0x3b, r16	; 59

00000136 <.Loc.7>:
     136:	02 c0       	rjmp	.+4      	; 0x13c <.L__do_copy_data_start>

00000138 <.L__do_copy_data_loop>:
     138:	07 90       	elpm	r0, Z+

0000013a <.Loc.9>:
     13a:	0d 92       	st	X+, r0

0000013c <.L__do_copy_data_start>:
     13c:	a0 39       	cpi	r26, 0x90	; 144

0000013e <.Loc.11>:
     13e:	b1 07       	cpc	r27, r17

00000140 <.Loc.12>:
     140:	d9 f7       	brne	.-10     	; 0x138 <.L__do_copy_data_loop>

00000142 <__do_clear_bss>:
     142:	22 e0       	ldi	r18, 0x02	; 2

00000144 <.Loc.1>:
     144:	a0 e9       	ldi	r26, 0x90	; 144

00000146 <.Loc.2>:
     146:	b2 e0       	ldi	r27, 0x02	; 2

00000148 <.Loc.3>:
     148:	01 c0       	rjmp	.+2      	; 0x14c <.Loc.5>

0000014a <.Loc.4>:
     14a:	1d 92       	st	X+, r1

0000014c <.Loc.5>:
     14c:	a4 39       	cpi	r26, 0x94	; 148

0000014e <.Loc.6>:
     14e:	b2 07       	cpc	r27, r18

00000150 <.Loc.7>:
     150:	e1 f7       	brne	.-8      	; 0x14a <.Loc.4>

00000152 <L0^A>:
     152:	0e 94 39 0c 	call	0x1872	; 0x1872 <main>
     156:	0c 94 82 24 	jmp	0x4904	; 0x4904 <_exit>

0000015a <__bad_interrupt>:
     15a:	0c 94 00 00 	jmp	0	; 0x0 <__vectors>

0000015e <__vector_23>:
#include <avr/io.h>
#include <avr/interrupt.h>
#include "h_bridge.h"

ISR(TIMER0_OVF_vect)
{
     15e:	1f 92       	push	r1
     160:	0f 92       	push	r0
     162:	0f b6       	in	r0, 0x3f	; 63
     164:	0f 92       	push	r0
     166:	11 24       	eor	r1, r1
     168:	0b b6       	in	r0, 0x3b	; 59
     16a:	0f 92       	push	r0
     16c:	2f 93       	push	r18
     16e:	8f 93       	push	r24
     170:	9f 93       	push	r25
     172:	ef 93       	push	r30
     174:	ff 93       	push	r31
     176:	cf 93       	push	r28
     178:	df 93       	push	r29
     17a:	cd b7       	in	r28, 0x3d	; 61
     17c:	de b7       	in	r29, 0x3e	; 62

0000017e <.Loc.1>:
	if (OCR0A == 0 && OCR0B == 0)
     17e:	87 e4       	ldi	r24, 0x47	; 71
     180:	90 e0       	ldi	r25, 0x00	; 0
     182:	fc 01       	movw	r30, r24
     184:	80 81       	ld	r24, Z

00000186 <.Loc.2>:
     186:	88 23       	and	r24, r24
     188:	c9 f4       	brne	.+50     	; 0x1bc <.L2>

0000018a <.Loc.3>:
     18a:	88 e4       	ldi	r24, 0x48	; 72
     18c:	90 e0       	ldi	r25, 0x00	; 0
     18e:	fc 01       	movw	r30, r24
     190:	80 81       	ld	r24, Z

00000192 <.Loc.4>:
     192:	88 23       	and	r24, r24
     194:	99 f4       	brne	.+38     	; 0x1bc <.L2>

00000196 <.Loc.5>:
	{
		PORT_RPWM &= ~(1<<PIN_RPWM);
     196:	8e e2       	ldi	r24, 0x2E	; 46
     198:	90 e0       	ldi	r25, 0x00	; 0
     19a:	fc 01       	movw	r30, r24
     19c:	20 81       	ld	r18, Z

0000019e <.Loc.6>:
     19e:	8e e2       	ldi	r24, 0x2E	; 46
     1a0:	90 e0       	ldi	r25, 0x00	; 0

000001a2 <.Loc.7>:
     1a2:	2f 7e       	andi	r18, 0xEF	; 239
     1a4:	fc 01       	movw	r30, r24
     1a6:	20 83       	st	Z, r18

000001a8 <.Loc.8>:
		PORT_LPWM &= ~(1<<PIN_LPWM);
     1a8:	8e e2       	ldi	r24, 0x2E	; 46
     1aa:	90 e0       	ldi	r25, 0x00	; 0
     1ac:	fc 01       	movw	r30, r24
     1ae:	20 81       	ld	r18, Z

000001b0 <.Loc.9>:
     1b0:	8e e2       	ldi	r24, 0x2E	; 46
     1b2:	90 e0       	ldi	r25, 0x00	; 0

000001b4 <.Loc.10>:
     1b4:	2f 7d       	andi	r18, 0xDF	; 223
     1b6:	fc 01       	movw	r30, r24
     1b8:	20 83       	st	Z, r18

000001ba <.Loc.11>:
	else if (OCR0B != 0)
	{
		PORT_RPWM &= ~(1<<PIN_RPWM);
		PORT_LPWM |= (1<<PIN_LPWM);
	}
}
     1ba:	31 c0       	rjmp	.+98     	; 0x21e <.L5>

000001bc <.L2>:
	else if (OCR0A != 0)
     1bc:	87 e4       	ldi	r24, 0x47	; 71
     1be:	90 e0       	ldi	r25, 0x00	; 0
     1c0:	fc 01       	movw	r30, r24
     1c2:	80 81       	ld	r24, Z

000001c4 <.Loc.13>:
     1c4:	88 23       	and	r24, r24
     1c6:	99 f0       	breq	.+38     	; 0x1ee <.L4>

000001c8 <.Loc.14>:
		PORT_LPWM &= ~(1<<PIN_LPWM);
     1c8:	8e e2       	ldi	r24, 0x2E	; 46
     1ca:	90 e0       	ldi	r25, 0x00	; 0
     1cc:	fc 01       	movw	r30, r24
     1ce:	20 81       	ld	r18, Z

000001d0 <.Loc.15>:
     1d0:	8e e2       	ldi	r24, 0x2E	; 46
     1d2:	90 e0       	ldi	r25, 0x00	; 0

000001d4 <.Loc.16>:
     1d4:	2f 7d       	andi	r18, 0xDF	; 223
     1d6:	fc 01       	movw	r30, r24
     1d8:	20 83       	st	Z, r18

000001da <.Loc.17>:
		PORT_RPWM |= (1<<PIN_RPWM);
     1da:	8e e2       	ldi	r24, 0x2E	; 46
     1dc:	90 e0       	ldi	r25, 0x00	; 0
     1de:	fc 01       	movw	r30, r24
     1e0:	20 81       	ld	r18, Z
     1e2:	8e e2       	ldi	r24, 0x2E	; 46
     1e4:	90 e0       	ldi	r25, 0x00	; 0

000001e6 <.Loc.18>:
     1e6:	20 61       	ori	r18, 0x10	; 16
     1e8:	fc 01       	movw	r30, r24
     1ea:	20 83       	st	Z, r18

000001ec <.Loc.19>:
}
     1ec:	18 c0       	rjmp	.+48     	; 0x21e <.L5>

000001ee <.L4>:
	else if (OCR0B != 0)
     1ee:	88 e4       	ldi	r24, 0x48	; 72
     1f0:	90 e0       	ldi	r25, 0x00	; 0
     1f2:	fc 01       	movw	r30, r24
     1f4:	80 81       	ld	r24, Z

000001f6 <.Loc.21>:
     1f6:	88 23       	and	r24, r24
     1f8:	91 f0       	breq	.+36     	; 0x21e <.L5>

000001fa <.Loc.22>:
		PORT_RPWM &= ~(1<<PIN_RPWM);
     1fa:	8e e2       	ldi	r24, 0x2E	; 46
     1fc:	90 e0       	ldi	r25, 0x00	; 0
     1fe:	fc 01       	movw	r30, r24
     200:	20 81       	ld	r18, Z

00000202 <.Loc.23>:
     202:	8e e2       	ldi	r24, 0x2E	; 46
     204:	90 e0       	ldi	r25, 0x00	; 0

00000206 <.Loc.24>:
     206:	2f 7e       	andi	r18, 0xEF	; 239
     208:	fc 01       	movw	r30, r24
     20a:	20 83       	st	Z, r18

0000020c <.Loc.25>:
		PORT_LPWM |= (1<<PIN_LPWM);
     20c:	8e e2       	ldi	r24, 0x2E	; 46
     20e:	90 e0       	ldi	r25, 0x00	; 0
     210:	fc 01       	movw	r30, r24
     212:	20 81       	ld	r18, Z
     214:	8e e2       	ldi	r24, 0x2E	; 46
     216:	90 e0       	ldi	r25, 0x00	; 0

00000218 <.Loc.26>:
     218:	20 62       	ori	r18, 0x20	; 32
     21a:	fc 01       	movw	r30, r24
     21c:	20 83       	st	Z, r18

0000021e <.L5>:
}
     21e:	00 00       	nop
     220:	df 91       	pop	r29
     222:	cf 91       	pop	r28
     224:	ff 91       	pop	r31
     226:	ef 91       	pop	r30
     228:	9f 91       	pop	r25
     22a:	8f 91       	pop	r24
     22c:	2f 91       	pop	r18
     22e:	0f 90       	pop	r0
     230:	0b be       	out	0x3b, r0	; 59
     232:	0f 90       	pop	r0
     234:	0f be       	out	0x3f, r0	; 63
     236:	0f 90       	pop	r0
     238:	1f 90       	pop	r1
     23a:	18 95       	reti

0000023c <__vector_35>:
//		PORT_RPWM1 &= ~(1<<PIN_RPWM1);
//		PORT_LPWM1 |= (1<<PIN_LPWM1);
//	}
//}
ISR(TIMER3_OVF_vect)
{
     23c:	1f 92       	push	r1
     23e:	0f 92       	push	r0
     240:	0f b6       	in	r0, 0x3f	; 63
     242:	0f 92       	push	r0
     244:	11 24       	eor	r1, r1
     246:	0b b6       	in	r0, 0x3b	; 59
     248:	0f 92       	push	r0
     24a:	2f 93       	push	r18
     24c:	8f 93       	push	r24
     24e:	9f 93       	push	r25
     250:	ef 93       	push	r30
     252:	ff 93       	push	r31
     254:	cf 93       	push	r28
     256:	df 93       	push	r29
     258:	cd b7       	in	r28, 0x3d	; 61
     25a:	de b7       	in	r29, 0x3e	; 62

0000025c <.Loc.29>:
	if (OCR3A == 0 && OCR3B == 0)
     25c:	88 e9       	ldi	r24, 0x98	; 152
     25e:	90 e0       	ldi	r25, 0x00	; 0
     260:	fc 01       	movw	r30, r24
     262:	80 81       	ld	r24, Z
     264:	91 81       	ldd	r25, Z+1	; 0x01

00000266 <.Loc.30>:
     266:	00 97       	sbiw	r24, 0x00	; 0
     268:	d1 f4       	brne	.+52     	; 0x29e <.L7>

0000026a <.Loc.31>:
     26a:	8a e9       	ldi	r24, 0x9A	; 154
     26c:	90 e0       	ldi	r25, 0x00	; 0
     26e:	fc 01       	movw	r30, r24
     270:	80 81       	ld	r24, Z
     272:	91 81       	ldd	r25, Z+1	; 0x01

00000274 <.Loc.32>:
     274:	00 97       	sbiw	r24, 0x00	; 0
     276:	99 f4       	brne	.+38     	; 0x29e <.L7>

00000278 <.Loc.33>:
	{
		PORT_RPWM2 &= ~(1<<PIN_RPWM2);
     278:	84 e3       	ldi	r24, 0x34	; 52
     27a:	90 e0       	ldi	r25, 0x00	; 0
     27c:	fc 01       	movw	r30, r24
     27e:	20 81       	ld	r18, Z

00000280 <.Loc.34>:
     280:	84 e3       	ldi	r24, 0x34	; 52
     282:	90 e0       	ldi	r25, 0x00	; 0

00000284 <.Loc.35>:
     284:	2f 7d       	andi	r18, 0xDF	; 223
     286:	fc 01       	movw	r30, r24
     288:	20 83       	st	Z, r18

0000028a <.Loc.36>:
		PORT_LPWM2 &= ~(1<<PIN_LPWM2);
     28a:	8e e2       	ldi	r24, 0x2E	; 46
     28c:	90 e0       	ldi	r25, 0x00	; 0
     28e:	fc 01       	movw	r30, r24
     290:	20 81       	ld	r18, Z

00000292 <.Loc.37>:
     292:	8e e2       	ldi	r24, 0x2E	; 46
     294:	90 e0       	ldi	r25, 0x00	; 0

00000296 <.Loc.38>:
     296:	27 7f       	andi	r18, 0xF7	; 247
     298:	fc 01       	movw	r30, r24
     29a:	20 83       	st	Z, r18

0000029c <.Loc.39>:
	else if (OCR3B != 0)
	{
		PORT_RPWM2 &= ~(1<<PIN_RPWM2);
		PORT_LPWM2 |= (1<<PIN_LPWM2);
	}
}
     29c:	33 c0       	rjmp	.+102    	; 0x304 <.L10>

0000029e <.L7>:
	else if (OCR3A != 0)
     29e:	88 e9       	ldi	r24, 0x98	; 152
     2a0:	90 e0       	ldi	r25, 0x00	; 0
     2a2:	fc 01       	movw	r30, r24
     2a4:	80 81       	ld	r24, Z
     2a6:	91 81       	ldd	r25, Z+1	; 0x01

000002a8 <.Loc.41>:
     2a8:	00 97       	sbiw	r24, 0x00	; 0
     2aa:	99 f0       	breq	.+38     	; 0x2d2 <.L9>

000002ac <.Loc.42>:
		PORT_LPWM2 &= ~(1<<PIN_LPWM2);
     2ac:	8e e2       	ldi	r24, 0x2E	; 46
     2ae:	90 e0       	ldi	r25, 0x00	; 0
     2b0:	fc 01       	movw	r30, r24
     2b2:	20 81       	ld	r18, Z

000002b4 <.Loc.43>:
     2b4:	8e e2       	ldi	r24, 0x2E	; 46
     2b6:	90 e0       	ldi	r25, 0x00	; 0

000002b8 <.Loc.44>:
     2b8:	27 7f       	andi	r18, 0xF7	; 247
     2ba:	fc 01       	movw	r30, r24
     2bc:	20 83       	st	Z, r18

000002be <.Loc.45>:
		PORT_RPWM2 |= (1<<PIN_RPWM2);
     2be:	84 e3       	ldi	r24, 0x34	; 52
     2c0:	90 e0       	ldi	r25, 0x00	; 0
     2c2:	fc 01       	movw	r30, r24
     2c4:	20 81       	ld	r18, Z
     2c6:	84 e3       	ldi	r24, 0x34	; 52
     2c8:	90 e0       	ldi	r25, 0x00	; 0

000002ca <.Loc.46>:
     2ca:	20 62       	ori	r18, 0x20	; 32
     2cc:	fc 01       	movw	r30, r24
     2ce:	20 83       	st	Z, r18

000002d0 <.Loc.47>:
}
     2d0:	19 c0       	rjmp	.+50     	; 0x304 <.L10>

000002d2 <.L9>:
	else if (OCR3B != 0)
     2d2:	8a e9       	ldi	r24, 0x9A	; 154
     2d4:	90 e0       	ldi	r25, 0x00	; 0
     2d6:	fc 01       	movw	r30, r24
     2d8:	80 81       	ld	r24, Z
     2da:	91 81       	ldd	r25, Z+1	; 0x01

000002dc <.Loc.49>:
     2dc:	00 97       	sbiw	r24, 0x00	; 0
     2de:	91 f0       	breq	.+36     	; 0x304 <.L10>

000002e0 <.Loc.50>:
		PORT_RPWM2 &= ~(1<<PIN_RPWM2);
     2e0:	84 e3       	ldi	r24, 0x34	; 52
     2e2:	90 e0       	ldi	r25, 0x00	; 0
     2e4:	fc 01       	movw	r30, r24
     2e6:	20 81       	ld	r18, Z

000002e8 <.Loc.51>:
     2e8:	84 e3       	ldi	r24, 0x34	; 52
     2ea:	90 e0       	ldi	r25, 0x00	; 0

000002ec <.Loc.52>:
     2ec:	2f 7d       	andi	r18, 0xDF	; 223
     2ee:	fc 01       	movw	r30, r24
     2f0:	20 83       	st	Z, r18

000002f2 <.Loc.53>:
		PORT_LPWM2 |= (1<<PIN_LPWM2);
     2f2:	8e e2       	ldi	r24, 0x2E	; 46
     2f4:	90 e0       	ldi	r25, 0x00	; 0
     2f6:	fc 01       	movw	r30, r24
     2f8:	20 81       	ld	r18, Z
     2fa:	8e e2       	ldi	r24, 0x2E	; 46
     2fc:	90 e0       	ldi	r25, 0x00	; 0

000002fe <.Loc.54>:
     2fe:	28 60       	ori	r18, 0x08	; 8
     300:	fc 01       	movw	r30, r24
     302:	20 83       	st	Z, r18

00000304 <.L10>:
}
     304:	00 00       	nop
     306:	df 91       	pop	r29
     308:	cf 91       	pop	r28
     30a:	ff 91       	pop	r31
     30c:	ef 91       	pop	r30
     30e:	9f 91       	pop	r25
     310:	8f 91       	pop	r24
     312:	2f 91       	pop	r18
     314:	0f 90       	pop	r0
     316:	0b be       	out	0x3b, r0	; 59
     318:	0f 90       	pop	r0
     31a:	0f be       	out	0x3f, r0	; 63
     31c:	0f 90       	pop	r0
     31e:	1f 90       	pop	r1
     320:	18 95       	reti

00000322 <__vector_21>:

ISR(TIMER0_COMPA_vect)
{
     322:	1f 92       	push	r1
     324:	0f 92       	push	r0
     326:	0f b6       	in	r0, 0x3f	; 63
     328:	0f 92       	push	r0
     32a:	11 24       	eor	r1, r1
     32c:	0b b6       	in	r0, 0x3b	; 59
     32e:	0f 92       	push	r0
     330:	2f 93       	push	r18
     332:	8f 93       	push	r24
     334:	9f 93       	push	r25
     336:	ef 93       	push	r30
     338:	ff 93       	push	r31
     33a:	cf 93       	push	r28
     33c:	df 93       	push	r29
     33e:	cd b7       	in	r28, 0x3d	; 61
     340:	de b7       	in	r29, 0x3e	; 62

00000342 <.Loc.57>:
	if (OCR0A != 255)
     342:	87 e4       	ldi	r24, 0x47	; 71
     344:	90 e0       	ldi	r25, 0x00	; 0
     346:	fc 01       	movw	r30, r24
     348:	80 81       	ld	r24, Z

0000034a <.Loc.58>:
     34a:	8f 3f       	cpi	r24, 0xFF	; 255
     34c:	49 f0       	breq	.+18     	; 0x360 <.L13>

0000034e <.Loc.59>:
	{
		PORT_RPWM &= ~(1<<PIN_RPWM);
     34e:	8e e2       	ldi	r24, 0x2E	; 46
     350:	90 e0       	ldi	r25, 0x00	; 0
     352:	fc 01       	movw	r30, r24
     354:	20 81       	ld	r18, Z

00000356 <.Loc.60>:
     356:	8e e2       	ldi	r24, 0x2E	; 46
     358:	90 e0       	ldi	r25, 0x00	; 0

0000035a <.Loc.61>:
     35a:	2f 7e       	andi	r18, 0xEF	; 239
     35c:	fc 01       	movw	r30, r24
     35e:	20 83       	st	Z, r18

00000360 <.L13>:
	}
}
     360:	00 00       	nop
     362:	df 91       	pop	r29
     364:	cf 91       	pop	r28
     366:	ff 91       	pop	r31
     368:	ef 91       	pop	r30
     36a:	9f 91       	pop	r25
     36c:	8f 91       	pop	r24
     36e:	2f 91       	pop	r18
     370:	0f 90       	pop	r0
     372:	0b be       	out	0x3b, r0	; 59
     374:	0f 90       	pop	r0
     376:	0f be       	out	0x3f, r0	; 63
     378:	0f 90       	pop	r0
     37a:	1f 90       	pop	r1
     37c:	18 95       	reti

0000037e <__vector_32>:
//		PORT_RPWM1 &= ~(1<<PIN_RPWM1);
//	}
//}

ISR(TIMER3_COMPA_vect)
{
     37e:	1f 92       	push	r1
     380:	0f 92       	push	r0
     382:	0f b6       	in	r0, 0x3f	; 63
     384:	0f 92       	push	r0
     386:	11 24       	eor	r1, r1
     388:	0b b6       	in	r0, 0x3b	; 59
     38a:	0f 92       	push	r0
     38c:	2f 93       	push	r18
     38e:	8f 93       	push	r24
     390:	9f 93       	push	r25
     392:	ef 93       	push	r30
     394:	ff 93       	push	r31
     396:	cf 93       	push	r28
     398:	df 93       	push	r29
     39a:	cd b7       	in	r28, 0x3d	; 61
     39c:	de b7       	in	r29, 0x3e	; 62

0000039e <.Loc.64>:
	if (OCR3A != 65535)
     39e:	88 e9       	ldi	r24, 0x98	; 152
     3a0:	90 e0       	ldi	r25, 0x00	; 0
     3a2:	fc 01       	movw	r30, r24
     3a4:	80 81       	ld	r24, Z
     3a6:	91 81       	ldd	r25, Z+1	; 0x01

000003a8 <.Loc.65>:
     3a8:	8f 3f       	cpi	r24, 0xFF	; 255
     3aa:	98 07       	cpc	r25, r24
     3ac:	49 f0       	breq	.+18     	; 0x3c0 <.L16>

000003ae <.Loc.66>:
	{
		PORT_RPWM2 &= ~(1<<PIN_RPWM2);
     3ae:	84 e3       	ldi	r24, 0x34	; 52
     3b0:	90 e0       	ldi	r25, 0x00	; 0
     3b2:	fc 01       	movw	r30, r24
     3b4:	20 81       	ld	r18, Z

000003b6 <.Loc.67>:
     3b6:	84 e3       	ldi	r24, 0x34	; 52
     3b8:	90 e0       	ldi	r25, 0x00	; 0

000003ba <.Loc.68>:
     3ba:	2f 7d       	andi	r18, 0xDF	; 223
     3bc:	fc 01       	movw	r30, r24
     3be:	20 83       	st	Z, r18

000003c0 <.L16>:
	}
}
     3c0:	00 00       	nop
     3c2:	df 91       	pop	r29
     3c4:	cf 91       	pop	r28
     3c6:	ff 91       	pop	r31
     3c8:	ef 91       	pop	r30
     3ca:	9f 91       	pop	r25
     3cc:	8f 91       	pop	r24
     3ce:	2f 91       	pop	r18
     3d0:	0f 90       	pop	r0
     3d2:	0b be       	out	0x3b, r0	; 59
     3d4:	0f 90       	pop	r0
     3d6:	0f be       	out	0x3f, r0	; 63
     3d8:	0f 90       	pop	r0
     3da:	1f 90       	pop	r1
     3dc:	18 95       	reti

000003de <__vector_22>:

ISR(TIMER0_COMPB_vect)
{
     3de:	1f 92       	push	r1
     3e0:	0f 92       	push	r0
     3e2:	0f b6       	in	r0, 0x3f	; 63
     3e4:	0f 92       	push	r0
     3e6:	11 24       	eor	r1, r1
     3e8:	0b b6       	in	r0, 0x3b	; 59
     3ea:	0f 92       	push	r0
     3ec:	2f 93       	push	r18
     3ee:	8f 93       	push	r24
     3f0:	9f 93       	push	r25
     3f2:	ef 93       	push	r30
     3f4:	ff 93       	push	r31
     3f6:	cf 93       	push	r28
     3f8:	df 93       	push	r29
     3fa:	cd b7       	in	r28, 0x3d	; 61
     3fc:	de b7       	in	r29, 0x3e	; 62

000003fe <.Loc.71>:
	if (OCR0B != 255)
     3fe:	88 e4       	ldi	r24, 0x48	; 72
     400:	90 e0       	ldi	r25, 0x00	; 0
     402:	fc 01       	movw	r30, r24
     404:	80 81       	ld	r24, Z

00000406 <.Loc.72>:
     406:	8f 3f       	cpi	r24, 0xFF	; 255
     408:	49 f0       	breq	.+18     	; 0x41c <.L19>

0000040a <.Loc.73>:
	{
		PORT_LPWM &= ~(1<<PIN_LPWM);
     40a:	8e e2       	ldi	r24, 0x2E	; 46
     40c:	90 e0       	ldi	r25, 0x00	; 0
     40e:	fc 01       	movw	r30, r24
     410:	20 81       	ld	r18, Z

00000412 <.Loc.74>:
     412:	8e e2       	ldi	r24, 0x2E	; 46
     414:	90 e0       	ldi	r25, 0x00	; 0

00000416 <.Loc.75>:
     416:	2f 7d       	andi	r18, 0xDF	; 223
     418:	fc 01       	movw	r30, r24
     41a:	20 83       	st	Z, r18

0000041c <.L19>:
	}
}
     41c:	00 00       	nop
     41e:	df 91       	pop	r29
     420:	cf 91       	pop	r28
     422:	ff 91       	pop	r31
     424:	ef 91       	pop	r30
     426:	9f 91       	pop	r25
     428:	8f 91       	pop	r24
     42a:	2f 91       	pop	r18
     42c:	0f 90       	pop	r0
     42e:	0b be       	out	0x3b, r0	; 59
     430:	0f 90       	pop	r0
     432:	0f be       	out	0x3f, r0	; 63
     434:	0f 90       	pop	r0
     436:	1f 90       	pop	r1
     438:	18 95       	reti

0000043a <__vector_33>:
//		PORT_LPWM1 &= ~(1<<PIN_LPWM1);
//	}
//}

ISR(TIMER3_COMPB_vect)
{
     43a:	1f 92       	push	r1
     43c:	0f 92       	push	r0
     43e:	0f b6       	in	r0, 0x3f	; 63
     440:	0f 92       	push	r0
     442:	11 24       	eor	r1, r1
     444:	0b b6       	in	r0, 0x3b	; 59
     446:	0f 92       	push	r0
     448:	2f 93       	push	r18
     44a:	8f 93       	push	r24
     44c:	9f 93       	push	r25
     44e:	ef 93       	push	r30
     450:	ff 93       	push	r31
     452:	cf 93       	push	r28
     454:	df 93       	push	r29
     456:	cd b7       	in	r28, 0x3d	; 61
     458:	de b7       	in	r29, 0x3e	; 62

0000045a <.Loc.78>:
	if (OCR3B != 65535)
     45a:	8a e9       	ldi	r24, 0x9A	; 154
     45c:	90 e0       	ldi	r25, 0x00	; 0
     45e:	fc 01       	movw	r30, r24
     460:	80 81       	ld	r24, Z
     462:	91 81       	ldd	r25, Z+1	; 0x01

00000464 <.Loc.79>:
     464:	8f 3f       	cpi	r24, 0xFF	; 255
     466:	98 07       	cpc	r25, r24
     468:	49 f0       	breq	.+18     	; 0x47c <.L22>

0000046a <.Loc.80>:
	{
		PORT_LPWM2 &= ~(1<<PIN_LPWM2);
     46a:	8e e2       	ldi	r24, 0x2E	; 46
     46c:	90 e0       	ldi	r25, 0x00	; 0
     46e:	fc 01       	movw	r30, r24
     470:	20 81       	ld	r18, Z

00000472 <.Loc.81>:
     472:	8e e2       	ldi	r24, 0x2E	; 46
     474:	90 e0       	ldi	r25, 0x00	; 0

00000476 <.Loc.82>:
     476:	27 7f       	andi	r18, 0xF7	; 247
     478:	fc 01       	movw	r30, r24
     47a:	20 83       	st	Z, r18

0000047c <.L22>:
	}
}
     47c:	00 00       	nop
     47e:	df 91       	pop	r29
     480:	cf 91       	pop	r28
     482:	ff 91       	pop	r31
     484:	ef 91       	pop	r30
     486:	9f 91       	pop	r25
     488:	8f 91       	pop	r24
     48a:	2f 91       	pop	r18
     48c:	0f 90       	pop	r0
     48e:	0b be       	out	0x3b, r0	; 59
     490:	0f 90       	pop	r0
     492:	0f be       	out	0x3f, r0	; 63
     494:	0f 90       	pop	r0
     496:	1f 90       	pop	r1
     498:	18 95       	reti

0000049a <init_h_bridge>:

void init_h_bridge(void)
{
     49a:	cf 93       	push	r28
     49c:	df 93       	push	r29
     49e:	cd b7       	in	r28, 0x3d	; 61
     4a0:	de b7       	in	r29, 0x3e	; 62

000004a2 <.Loc.85>:
	// Config pins as output
	DDR_RPWM |= (1<<PIN_RPWM);
     4a2:	8d e2       	ldi	r24, 0x2D	; 45
     4a4:	90 e0       	ldi	r25, 0x00	; 0
     4a6:	fc 01       	movw	r30, r24
     4a8:	20 81       	ld	r18, Z
     4aa:	8d e2       	ldi	r24, 0x2D	; 45
     4ac:	90 e0       	ldi	r25, 0x00	; 0

000004ae <.Loc.86>:
     4ae:	20 61       	ori	r18, 0x10	; 16
     4b0:	fc 01       	movw	r30, r24
     4b2:	20 83       	st	Z, r18

000004b4 <.Loc.87>:
	DDR_LPWM |= (1<<PIN_LPWM);
     4b4:	8d e2       	ldi	r24, 0x2D	; 45
     4b6:	90 e0       	ldi	r25, 0x00	; 0
     4b8:	fc 01       	movw	r30, r24
     4ba:	20 81       	ld	r18, Z
     4bc:	8d e2       	ldi	r24, 0x2D	; 45
     4be:	90 e0       	ldi	r25, 0x00	; 0

000004c0 <.Loc.88>:
     4c0:	20 62       	ori	r18, 0x20	; 32
     4c2:	fc 01       	movw	r30, r24
     4c4:	20 83       	st	Z, r18

000004c6 <.Loc.89>:
//	DDR_RPWM1 |= (1<<PIN_RPWM1);
//	DDR_LPWM1 |= (1<<PIN_LPWM1);
	DDR_RPWM2 |= (1<<PIN_RPWM2);
     4c6:	83 e3       	ldi	r24, 0x33	; 51
     4c8:	90 e0       	ldi	r25, 0x00	; 0
     4ca:	fc 01       	movw	r30, r24
     4cc:	20 81       	ld	r18, Z
     4ce:	83 e3       	ldi	r24, 0x33	; 51
     4d0:	90 e0       	ldi	r25, 0x00	; 0

000004d2 <.Loc.90>:
     4d2:	20 62       	ori	r18, 0x20	; 32
     4d4:	fc 01       	movw	r30, r24
     4d6:	20 83       	st	Z, r18

000004d8 <.Loc.91>:
	DDR_LPWM2 |= (1<<PIN_LPWM2);
     4d8:	8d e2       	ldi	r24, 0x2D	; 45
     4da:	90 e0       	ldi	r25, 0x00	; 0
     4dc:	fc 01       	movw	r30, r24
     4de:	20 81       	ld	r18, Z
     4e0:	8d e2       	ldi	r24, 0x2D	; 45
     4e2:	90 e0       	ldi	r25, 0x00	; 0

000004e4 <.Loc.92>:
     4e4:	28 60       	ori	r18, 0x08	; 8
     4e6:	fc 01       	movw	r30, r24
     4e8:	20 83       	st	Z, r18

000004ea <.Loc.93>:

	// Output low
	PORT_RPWM &= ~(1<<PIN_RPWM);
     4ea:	8e e2       	ldi	r24, 0x2E	; 46
     4ec:	90 e0       	ldi	r25, 0x00	; 0
     4ee:	fc 01       	movw	r30, r24
     4f0:	20 81       	ld	r18, Z

000004f2 <.Loc.94>:
     4f2:	8e e2       	ldi	r24, 0x2E	; 46
     4f4:	90 e0       	ldi	r25, 0x00	; 0

000004f6 <.Loc.95>:
     4f6:	2f 7e       	andi	r18, 0xEF	; 239
     4f8:	fc 01       	movw	r30, r24
     4fa:	20 83       	st	Z, r18

000004fc <.Loc.96>:
	PORT_LPWM &= ~(1<<PIN_LPWM);
     4fc:	8e e2       	ldi	r24, 0x2E	; 46
     4fe:	90 e0       	ldi	r25, 0x00	; 0
     500:	fc 01       	movw	r30, r24
     502:	20 81       	ld	r18, Z

00000504 <.Loc.97>:
     504:	8e e2       	ldi	r24, 0x2E	; 46
     506:	90 e0       	ldi	r25, 0x00	; 0

00000508 <.Loc.98>:
     508:	2f 7d       	andi	r18, 0xDF	; 223
     50a:	fc 01       	movw	r30, r24
     50c:	20 83       	st	Z, r18

0000050e <.Loc.99>:
//	PORT_RPWM1 &= ~(1<<PIN_RPWM1);
//	PORT_LPWM1 &= ~(1<<PIN_LPWM1);
	PORT_RPWM2 &= ~(1<<PIN_RPWM2);
     50e:	84 e3       	ldi	r24, 0x34	; 52
     510:	90 e0       	ldi	r25, 0x00	; 0
     512:	fc 01       	movw	r30, r24
     514:	20 81       	ld	r18, Z

00000516 <.Loc.100>:
     516:	84 e3       	ldi	r24, 0x34	; 52
     518:	90 e0       	ldi	r25, 0x00	; 0

0000051a <.Loc.101>:
     51a:	2f 7d       	andi	r18, 0xDF	; 223
     51c:	fc 01       	movw	r30, r24
     51e:	20 83       	st	Z, r18

00000520 <.Loc.102>:
	PORT_LPWM2 &= ~(1<<PIN_LPWM2);
     520:	8e e2       	ldi	r24, 0x2E	; 46
     522:	90 e0       	ldi	r25, 0x00	; 0
     524:	fc 01       	movw	r30, r24
     526:	20 81       	ld	r18, Z

00000528 <.Loc.103>:
     528:	8e e2       	ldi	r24, 0x2E	; 46
     52a:	90 e0       	ldi	r25, 0x00	; 0

0000052c <.Loc.104>:
     52c:	27 7f       	andi	r18, 0xF7	; 247
     52e:	fc 01       	movw	r30, r24
     530:	20 83       	st	Z, r18

00000532 <.Loc.105>:



	// Use mode 0, clkdiv = 64
	TCCR0A = 0;
     532:	84 e4       	ldi	r24, 0x44	; 68
     534:	90 e0       	ldi	r25, 0x00	; 0

00000536 <.Loc.106>:
     536:	fc 01       	movw	r30, r24
     538:	10 82       	st	Z, r1

0000053a <.Loc.107>:
	TCCR0B = (0<<CS02) | (1<<CS01) | (1<<CS00);
     53a:	85 e4       	ldi	r24, 0x45	; 69
     53c:	90 e0       	ldi	r25, 0x00	; 0

0000053e <.Loc.108>:
     53e:	23 e0       	ldi	r18, 0x03	; 3
     540:	fc 01       	movw	r30, r24
     542:	20 83       	st	Z, r18

00000544 <.Loc.109>:

	// Disable PWM output
	OCR0A = 0;
     544:	87 e4       	ldi	r24, 0x47	; 71
     546:	90 e0       	ldi	r25, 0x00	; 0

00000548 <.Loc.110>:
     548:	fc 01       	movw	r30, r24
     54a:	10 82       	st	Z, r1

0000054c <.Loc.111>:
	OCR0B = 0;
     54c:	88 e4       	ldi	r24, 0x48	; 72
     54e:	90 e0       	ldi	r25, 0x00	; 0

00000550 <.Loc.112>:
     550:	fc 01       	movw	r30, r24
     552:	10 82       	st	Z, r1

00000554 <.Loc.113>:

	// Interrupts on OCA, OCB and OVF
	TIMSK0 = (1<<OCIE0B) | (1<<OCIE0A) | (1<<TOIE0);
     554:	8e e6       	ldi	r24, 0x6E	; 110
     556:	90 e0       	ldi	r25, 0x00	; 0

00000558 <.Loc.114>:
     558:	27 e0       	ldi	r18, 0x07	; 7
     55a:	fc 01       	movw	r30, r24
     55c:	20 83       	st	Z, r18

0000055e <.Loc.115>:
//	OCR1B = 0;

	// Interrupts on OCA, OCB and OVF
//	TIMSK1 = (1<<OCIE1B) | (1<<OCIE1A) | (1<<TOIE1);

	TCCR3A = 0;
     55e:	80 e9       	ldi	r24, 0x90	; 144
     560:	90 e0       	ldi	r25, 0x00	; 0

00000562 <.Loc.116>:
     562:	fc 01       	movw	r30, r24
     564:	10 82       	st	Z, r1

00000566 <.Loc.117>:
	TCCR3B = (1<<CS30);
     566:	81 e9       	ldi	r24, 0x91	; 145
     568:	90 e0       	ldi	r25, 0x00	; 0

0000056a <.Loc.118>:
     56a:	21 e0       	ldi	r18, 0x01	; 1
     56c:	fc 01       	movw	r30, r24
     56e:	20 83       	st	Z, r18

00000570 <.Loc.119>:

	// Disable PWM output
	OCR3A = 0;
     570:	88 e9       	ldi	r24, 0x98	; 152
     572:	90 e0       	ldi	r25, 0x00	; 0

00000574 <.Loc.120>:
     574:	fc 01       	movw	r30, r24
     576:	11 82       	std	Z+1, r1	; 0x01
     578:	10 82       	st	Z, r1

0000057a <.Loc.121>:
	OCR3B = 0;
     57a:	8a e9       	ldi	r24, 0x9A	; 154
     57c:	90 e0       	ldi	r25, 0x00	; 0

0000057e <.Loc.122>:
     57e:	fc 01       	movw	r30, r24
     580:	11 82       	std	Z+1, r1	; 0x01
     582:	10 82       	st	Z, r1

00000584 <.Loc.123>:

	// Interrupts on OCA, OCB and OVF
	TIMSK3 = (1<<OCIE3B) | (1<<OCIE3A) | (1<<TOIE3);
     584:	81 e7       	ldi	r24, 0x71	; 113
     586:	90 e0       	ldi	r25, 0x00	; 0

00000588 <.Loc.124>:
     588:	27 e0       	ldi	r18, 0x07	; 7
     58a:	fc 01       	movw	r30, r24
     58c:	20 83       	st	Z, r18

0000058e <.Loc.125>:


	sei();
     58e:	78 94       	sei

00000590 <.Loc.126>:
}
     590:	00 00       	nop
     592:	df 91       	pop	r29
     594:	cf 91       	pop	r28
     596:	08 95       	ret

00000598 <h_bridge_set_percentage>:

void h_bridge_set_percentage(signed char percentage)
{
     598:	cf 93       	push	r28
     59a:	df 93       	push	r29
     59c:	0f 92       	push	r0
     59e:	cd b7       	in	r28, 0x3d	; 61
     5a0:	de b7       	in	r29, 0x3e	; 62
     5a2:	89 83       	std	Y+1, r24	; 0x01

000005a4 <.Loc.128>:
	if (percentage >= -100 && percentage <= 100)
     5a4:	89 81       	ldd	r24, Y+1	; 0x01
     5a6:	8c 39       	cpi	r24, 0x9C	; 156
     5a8:	e4 f1       	brlt	.+120    	; 0x622 <.L27>

000005aa <.Loc.129>:
     5aa:	89 81       	ldd	r24, Y+1	; 0x01
     5ac:	84 36       	cpi	r24, 0x64	; 100
     5ae:	09 f0       	breq	.+2      	; 0x5b2 <.Loc.130>

000005b0 <L0^A>:
     5b0:	c4 f5       	brge	.+112    	; 0x622 <.L27>

000005b2 <.Loc.130>:
	{
		if (percentage >= 0)
     5b2:	89 81       	ldd	r24, Y+1	; 0x01
     5b4:	88 23       	and	r24, r24
     5b6:	dc f0       	brlt	.+54     	; 0x5ee <.L26>

000005b8 <.Loc.131>:
		{
			// Disable LPWM, calculate RPWM
			OCR0B = 0;
     5b8:	88 e4       	ldi	r24, 0x48	; 72
     5ba:	90 e0       	ldi	r25, 0x00	; 0

000005bc <.Loc.132>:
     5bc:	fc 01       	movw	r30, r24
     5be:	10 82       	st	Z, r1

000005c0 <.Loc.133>:
			OCR0A = (255*percentage)/100;
     5c0:	89 81       	ldd	r24, Y+1	; 0x01
     5c2:	08 2e       	mov	r0, r24
     5c4:	00 0c       	add	r0, r0
     5c6:	99 0b       	sbc	r25, r25
     5c8:	2f ef       	ldi	r18, 0xFF	; 255
     5ca:	28 9f       	mul	r18, r24
     5cc:	a0 01       	movw	r20, r0
     5ce:	29 9f       	mul	r18, r25
     5d0:	50 0d       	add	r21, r0
     5d2:	11 24       	eor	r1, r1

000005d4 <.Loc.134>:
     5d4:	24 e6       	ldi	r18, 0x64	; 100
     5d6:	30 e0       	ldi	r19, 0x00	; 0
     5d8:	ca 01       	movw	r24, r20
     5da:	b9 01       	movw	r22, r18
     5dc:	0e 94 c0 21 	call	0x4380	; 0x4380 <__divmodhi4>
     5e0:	cb 01       	movw	r24, r22
     5e2:	9c 01       	movw	r18, r24

000005e4 <.Loc.135>:
     5e4:	87 e4       	ldi	r24, 0x47	; 71
     5e6:	90 e0       	ldi	r25, 0x00	; 0

000005e8 <.Loc.136>:
     5e8:	fc 01       	movw	r30, r24
     5ea:	20 83       	st	Z, r18

000005ec <.Loc.137>:
			// Disable RPWM, calculate LPWM
			OCR0A = 0;
			OCR0B = (255*percentage)/-100;
		}
	}
}
     5ec:	1a c0       	rjmp	.+52     	; 0x622 <.L27>

000005ee <.L26>:
			OCR0A = 0;
     5ee:	87 e4       	ldi	r24, 0x47	; 71
     5f0:	90 e0       	ldi	r25, 0x00	; 0

000005f2 <.Loc.139>:
     5f2:	fc 01       	movw	r30, r24
     5f4:	10 82       	st	Z, r1

000005f6 <.Loc.140>:
			OCR0B = (255*percentage)/-100;
     5f6:	89 81       	ldd	r24, Y+1	; 0x01
     5f8:	08 2e       	mov	r0, r24
     5fa:	00 0c       	add	r0, r0
     5fc:	99 0b       	sbc	r25, r25
     5fe:	2f ef       	ldi	r18, 0xFF	; 255
     600:	28 9f       	mul	r18, r24
     602:	a0 01       	movw	r20, r0
     604:	29 9f       	mul	r18, r25
     606:	50 0d       	add	r21, r0
     608:	11 24       	eor	r1, r1

0000060a <.Loc.141>:
     60a:	2c e9       	ldi	r18, 0x9C	; 156
     60c:	3f ef       	ldi	r19, 0xFF	; 255
     60e:	ca 01       	movw	r24, r20
     610:	b9 01       	movw	r22, r18
     612:	0e 94 c0 21 	call	0x4380	; 0x4380 <__divmodhi4>
     616:	cb 01       	movw	r24, r22
     618:	9c 01       	movw	r18, r24

0000061a <.Loc.142>:
     61a:	88 e4       	ldi	r24, 0x48	; 72
     61c:	90 e0       	ldi	r25, 0x00	; 0

0000061e <.Loc.143>:
     61e:	fc 01       	movw	r30, r24
     620:	20 83       	st	Z, r18

00000622 <.L27>:
}
     622:	00 00       	nop
     624:	0f 90       	pop	r0
     626:	df 91       	pop	r29
     628:	cf 91       	pop	r28
     62a:	08 95       	ret

0000062c <h_bridge_set_percentage2>:
//			OCR1B = (65535*percentage)/-100;
//		}
//	}
//}
void h_bridge_set_percentage2(signed char percentage)
{
     62c:	0f 93       	push	r16
     62e:	1f 93       	push	r17
     630:	cf 93       	push	r28
     632:	df 93       	push	r29
     634:	00 d0       	rcall	.+0      	; 0x636 <L0^A>

00000636 <L0^A>:
     636:	00 d0       	rcall	.+0      	; 0x638 <L0^A>

00000638 <L0^A>:
     638:	00 d0       	rcall	.+0      	; 0x63a <L0^A>

0000063a <L0^A>:
     63a:	cd b7       	in	r28, 0x3d	; 61
     63c:	de b7       	in	r29, 0x3e	; 62
     63e:	89 83       	std	Y+1, r24	; 0x01

00000640 <.Loc.146>:
	if (percentage >= -100 && percentage <= 100)
     640:	89 81       	ldd	r24, Y+1	; 0x01
     642:	8c 39       	cpi	r24, 0x9C	; 156
     644:	0c f4       	brge	.+2      	; 0x648 <.Loc.147>

00000646 <L0^A>:
     646:	61 c0       	rjmp	.+194    	; 0x70a <.L31>

00000648 <.Loc.147>:
     648:	89 81       	ldd	r24, Y+1	; 0x01
     64a:	84 36       	cpi	r24, 0x64	; 100
     64c:	11 f0       	breq	.+4      	; 0x652 <.Loc.148>

0000064e <L0^A>:
     64e:	0c f0       	brlt	.+2      	; 0x652 <.Loc.148>

00000650 <L0^A>:
     650:	5c c0       	rjmp	.+184    	; 0x70a <.L31>

00000652 <.Loc.148>:
	{
		if (percentage >= 0)
     652:	89 81       	ldd	r24, Y+1	; 0x01
     654:	88 23       	and	r24, r24
     656:	6c f1       	brlt	.+90     	; 0x6b2 <.L30>

00000658 <.Loc.149>:
		{
			// Disable LPWM, calculate RPWM
			OCR3B = 0;
     658:	8a e9       	ldi	r24, 0x9A	; 154
     65a:	90 e0       	ldi	r25, 0x00	; 0

0000065c <.Loc.150>:
     65c:	fc 01       	movw	r30, r24
     65e:	11 82       	std	Z+1, r1	; 0x01
     660:	10 82       	st	Z, r1

00000662 <.Loc.151>:
			OCR3A = (65535*percentage)/100;
     662:	89 81       	ldd	r24, Y+1	; 0x01
     664:	48 2f       	mov	r20, r24
     666:	88 0f       	add	r24, r24
     668:	55 0b       	sbc	r21, r21
     66a:	66 0b       	sbc	r22, r22
     66c:	77 0b       	sbc	r23, r23
     66e:	8f ef       	ldi	r24, 0xFF	; 255
     670:	9f ef       	ldi	r25, 0xFF	; 255
     672:	dc 01       	movw	r26, r24
     674:	9a 01       	movw	r18, r20
     676:	ab 01       	movw	r20, r22
     678:	0e 94 fb 21 	call	0x43f6	; 0x43f6 <__muluhisi3>
     67c:	6a 83       	std	Y+2, r22	; 0x02
     67e:	7b 83       	std	Y+3, r23	; 0x03
     680:	8c 83       	std	Y+4, r24	; 0x04
     682:	9d 83       	std	Y+5, r25	; 0x05

00000684 <.Loc.152>:
     684:	04 e6       	ldi	r16, 0x64	; 100
     686:	10 e0       	ldi	r17, 0x00	; 0
     688:	20 e0       	ldi	r18, 0x00	; 0
     68a:	30 e0       	ldi	r19, 0x00	; 0
     68c:	6a 81       	ldd	r22, Y+2	; 0x02
     68e:	7b 81       	ldd	r23, Y+3	; 0x03
     690:	8c 81       	ldd	r24, Y+4	; 0x04
     692:	9d 81       	ldd	r25, Y+5	; 0x05
     694:	a9 01       	movw	r20, r18
     696:	98 01       	movw	r18, r16
     698:	0e 94 d4 21 	call	0x43a8	; 0x43a8 <__divmodsi4>
     69c:	da 01       	movw	r26, r20
     69e:	c9 01       	movw	r24, r18
     6a0:	ac 01       	movw	r20, r24
     6a2:	bd 01       	movw	r22, r26

000006a4 <.Loc.153>:
     6a4:	88 e9       	ldi	r24, 0x98	; 152
     6a6:	90 e0       	ldi	r25, 0x00	; 0

000006a8 <.Loc.154>:
     6a8:	9a 01       	movw	r18, r20
     6aa:	fc 01       	movw	r30, r24
     6ac:	31 83       	std	Z+1, r19	; 0x01
     6ae:	20 83       	st	Z, r18

000006b0 <.Loc.155>:
			// Disable RPWM, calculate LPWM
			OCR3A = 0;
			OCR3B = (65535*percentage)/-100;
		}
	}
}
     6b0:	2c c0       	rjmp	.+88     	; 0x70a <.L31>

000006b2 <.L30>:
			OCR3A = 0;
     6b2:	88 e9       	ldi	r24, 0x98	; 152
     6b4:	90 e0       	ldi	r25, 0x00	; 0

000006b6 <.Loc.157>:
     6b6:	fc 01       	movw	r30, r24
     6b8:	11 82       	std	Z+1, r1	; 0x01
     6ba:	10 82       	st	Z, r1

000006bc <.Loc.158>:
			OCR3B = (65535*percentage)/-100;
     6bc:	89 81       	ldd	r24, Y+1	; 0x01
     6be:	48 2f       	mov	r20, r24
     6c0:	88 0f       	add	r24, r24
     6c2:	55 0b       	sbc	r21, r21
     6c4:	66 0b       	sbc	r22, r22
     6c6:	77 0b       	sbc	r23, r23
     6c8:	8f ef       	ldi	r24, 0xFF	; 255
     6ca:	9f ef       	ldi	r25, 0xFF	; 255
     6cc:	dc 01       	movw	r26, r24
     6ce:	9a 01       	movw	r18, r20
     6d0:	ab 01       	movw	r20, r22
     6d2:	0e 94 fb 21 	call	0x43f6	; 0x43f6 <__muluhisi3>
     6d6:	6e 83       	std	Y+6, r22	; 0x06
     6d8:	7f 83       	std	Y+7, r23	; 0x07
     6da:	88 87       	std	Y+8, r24	; 0x08
     6dc:	99 87       	std	Y+9, r25	; 0x09

000006de <.Loc.159>:
     6de:	0c e9       	ldi	r16, 0x9C	; 156
     6e0:	1f ef       	ldi	r17, 0xFF	; 255
     6e2:	2f ef       	ldi	r18, 0xFF	; 255
     6e4:	3f ef       	ldi	r19, 0xFF	; 255
     6e6:	6e 81       	ldd	r22, Y+6	; 0x06
     6e8:	7f 81       	ldd	r23, Y+7	; 0x07
     6ea:	88 85       	ldd	r24, Y+8	; 0x08
     6ec:	99 85       	ldd	r25, Y+9	; 0x09
     6ee:	a9 01       	movw	r20, r18
     6f0:	98 01       	movw	r18, r16
     6f2:	0e 94 d4 21 	call	0x43a8	; 0x43a8 <__divmodsi4>
     6f6:	da 01       	movw	r26, r20
     6f8:	c9 01       	movw	r24, r18
     6fa:	ac 01       	movw	r20, r24
     6fc:	bd 01       	movw	r22, r26

000006fe <.Loc.160>:
     6fe:	8a e9       	ldi	r24, 0x9A	; 154
     700:	90 e0       	ldi	r25, 0x00	; 0

00000702 <.Loc.161>:
     702:	9a 01       	movw	r18, r20
     704:	fc 01       	movw	r30, r24
     706:	31 83       	std	Z+1, r19	; 0x01
     708:	20 83       	st	Z, r18

0000070a <.L31>:
}
     70a:	00 00       	nop
     70c:	29 96       	adiw	r28, 0x09	; 9
     70e:	0f b6       	in	r0, 0x3f	; 63
     710:	f8 94       	cli
     712:	de bf       	out	0x3e, r29	; 62
     714:	0f be       	out	0x3f, r0	; 63
     716:	cd bf       	out	0x3d, r28	; 61
     718:	df 91       	pop	r29
     71a:	cf 91       	pop	r28
     71c:	1f 91       	pop	r17
     71e:	0f 91       	pop	r16
     720:	08 95       	ret

00000722 <__vector_25>:
void Check_LCD_isbezig(void);
void LCD_Aan_Uit(void);
void Stuur_LCD_Character(unsigned char LCD_character);

ISR(USART0_RX_vect)
{
     722:	1f 92       	push	r1
     724:	0f 92       	push	r0
     726:	0f b6       	in	r0, 0x3f	; 63
     728:	0f 92       	push	r0
     72a:	11 24       	eor	r1, r1
     72c:	0b b6       	in	r0, 0x3b	; 59
     72e:	0f 92       	push	r0
     730:	8f 93       	push	r24
     732:	9f 93       	push	r25
     734:	ef 93       	push	r30
     736:	ff 93       	push	r31
     738:	cf 93       	push	r28
     73a:	df 93       	push	r29
     73c:	cd b7       	in	r28, 0x3d	; 61
     73e:	de b7       	in	r29, 0x3e	; 62

00000740 <.Loc.1>:
    Bluetooth_Getal = UDR0;
     740:	86 ec       	ldi	r24, 0xC6	; 198
     742:	90 e0       	ldi	r25, 0x00	; 0
     744:	fc 01       	movw	r30, r24
     746:	80 81       	ld	r24, Z
     748:	88 2f       	mov	r24, r24
     74a:	90 e0       	ldi	r25, 0x00	; 0

0000074c <.Loc.2>:
     74c:	90 93 91 02 	sts	0x0291, r25	; 0x800291 <Bluetooth_Getal+0x1>
     750:	80 93 90 02 	sts	0x0290, r24	; 0x800290 <Bluetooth_Getal>

00000754 <.Loc.3>:
}
     754:	00 00       	nop
     756:	df 91       	pop	r29
     758:	cf 91       	pop	r28
     75a:	ff 91       	pop	r31
     75c:	ef 91       	pop	r30
     75e:	9f 91       	pop	r25
     760:	8f 91       	pop	r24
     762:	0f 90       	pop	r0
     764:	0b be       	out	0x3b, r0	; 59
     766:	0f 90       	pop	r0
     768:	0f be       	out	0x3f, r0	; 63
     76a:	0f 90       	pop	r0
     76c:	1f 90       	pop	r1
     76e:	18 95       	reti

00000770 <buzzer>:

void buzzer(signed char power)                          // buzzer function
{                                                       // als je een '1' meegeeft aan de functie gaat de buzzer aan
     770:	cf 93       	push	r28
     772:	df 93       	push	r29
     774:	0f 92       	push	r0
     776:	cd b7       	in	r28, 0x3d	; 61
     778:	de b7       	in	r29, 0x3e	; 62
     77a:	89 83       	std	Y+1, r24	; 0x01

0000077c <.Loc.5>:
    if (power == 1)                                     // als je een '0' meegeeft aan de functie gaat de buzzer uit
     77c:	89 81       	ldd	r24, Y+1	; 0x01
     77e:	81 30       	cpi	r24, 0x01	; 1
     780:	51 f4       	brne	.+20     	; 0x796 <.L3>

00000782 <.Loc.6>:
    {
        TIMSK5 |= (1<<OCIE5B);
     782:	83 e7       	ldi	r24, 0x73	; 115
     784:	90 e0       	ldi	r25, 0x00	; 0
     786:	fc 01       	movw	r30, r24
     788:	20 81       	ld	r18, Z
     78a:	83 e7       	ldi	r24, 0x73	; 115
     78c:	90 e0       	ldi	r25, 0x00	; 0

0000078e <.Loc.7>:
     78e:	24 60       	ori	r18, 0x04	; 4
     790:	fc 01       	movw	r30, r24
     792:	20 83       	st	Z, r18

00000794 <.Loc.8>:
    else if (power == 0)
    {
        TIMSK5 |= (0<<OCIE5B);
        PORTD &= ~(1<<PD0);                             // buzzer uit
    }
}
     794:	14 c0       	rjmp	.+40     	; 0x7be <.L5>

00000796 <.L3>:
    else if (power == 0)
     796:	89 81       	ldd	r24, Y+1	; 0x01
     798:	88 23       	and	r24, r24
     79a:	89 f4       	brne	.+34     	; 0x7be <.L5>

0000079c <.Loc.10>:
        TIMSK5 |= (0<<OCIE5B);
     79c:	23 e7       	ldi	r18, 0x73	; 115
     79e:	30 e0       	ldi	r19, 0x00	; 0
     7a0:	83 e7       	ldi	r24, 0x73	; 115
     7a2:	90 e0       	ldi	r25, 0x00	; 0
     7a4:	f9 01       	movw	r30, r18
     7a6:	20 81       	ld	r18, Z

000007a8 <.Loc.11>:
     7a8:	fc 01       	movw	r30, r24
     7aa:	20 83       	st	Z, r18

000007ac <.Loc.12>:
        PORTD &= ~(1<<PD0);                             // buzzer uit
     7ac:	8b e2       	ldi	r24, 0x2B	; 43
     7ae:	90 e0       	ldi	r25, 0x00	; 0
     7b0:	fc 01       	movw	r30, r24
     7b2:	20 81       	ld	r18, Z

000007b4 <.Loc.13>:
     7b4:	8b e2       	ldi	r24, 0x2B	; 43
     7b6:	90 e0       	ldi	r25, 0x00	; 0

000007b8 <.Loc.14>:
     7b8:	2e 7f       	andi	r18, 0xFE	; 254
     7ba:	fc 01       	movw	r30, r24
     7bc:	20 83       	st	Z, r18

000007be <.L5>:
}
     7be:	00 00       	nop
     7c0:	0f 90       	pop	r0
     7c2:	df 91       	pop	r29
     7c4:	cf 91       	pop	r28
     7c6:	08 95       	ret

000007c8 <knipperLichten>:

void knipperLichten(signed char power)                  // knipperlicht functie met interrupt op timer 1
{                                                       // als je een '1' meegeeft aan de functie gaan de lichten aan
     7c8:	cf 93       	push	r28
     7ca:	df 93       	push	r29
     7cc:	0f 92       	push	r0
     7ce:	cd b7       	in	r28, 0x3d	; 61
     7d0:	de b7       	in	r29, 0x3e	; 62
     7d2:	89 83       	std	Y+1, r24	; 0x01

000007d4 <.Loc.17>:
    if (power == 1)                                     // als je een '0' meegeest aan de functie gaan de lichten uit
     7d4:	89 81       	ldd	r24, Y+1	; 0x01
     7d6:	81 30       	cpi	r24, 0x01	; 1
     7d8:	31 f4       	brne	.+12     	; 0x7e6 <.L7>

000007da <.Loc.18>:
    {
        TIMSK5 = (1<<OCIE5A) | (1<<TOIE5);	            // eneble interrupt overflow en compare A en B
     7da:	83 e7       	ldi	r24, 0x73	; 115
     7dc:	90 e0       	ldi	r25, 0x00	; 0

000007de <.Loc.19>:
     7de:	23 e0       	ldi	r18, 0x03	; 3
     7e0:	fc 01       	movw	r30, r24
     7e2:	20 83       	st	Z, r18

000007e4 <.Loc.20>:
    else if (power == 0)
    {
        TIMSK5 = 0x00;                                  // disable timer 1
        PORTK &= ~(1<<PK7) & ~(1<<PK6);                 // knipperlichten allebei uit
    }
}
     7e4:	10 c0       	rjmp	.+32     	; 0x806 <.L9>

000007e6 <.L7>:
    else if (power == 0)
     7e6:	89 81       	ldd	r24, Y+1	; 0x01
     7e8:	88 23       	and	r24, r24
     7ea:	69 f4       	brne	.+26     	; 0x806 <.L9>

000007ec <.Loc.22>:
        TIMSK5 = 0x00;                                  // disable timer 1
     7ec:	83 e7       	ldi	r24, 0x73	; 115
     7ee:	90 e0       	ldi	r25, 0x00	; 0

000007f0 <.Loc.23>:
     7f0:	fc 01       	movw	r30, r24
     7f2:	10 82       	st	Z, r1

000007f4 <.Loc.24>:
        PORTK &= ~(1<<PK7) & ~(1<<PK6);                 // knipperlichten allebei uit
     7f4:	88 e0       	ldi	r24, 0x08	; 8
     7f6:	91 e0       	ldi	r25, 0x01	; 1
     7f8:	fc 01       	movw	r30, r24
     7fa:	20 81       	ld	r18, Z

000007fc <.Loc.25>:
     7fc:	88 e0       	ldi	r24, 0x08	; 8
     7fe:	91 e0       	ldi	r25, 0x01	; 1

00000800 <.Loc.26>:
     800:	2f 73       	andi	r18, 0x3F	; 63
     802:	fc 01       	movw	r30, r24
     804:	20 83       	st	Z, r18

00000806 <.L9>:
}
     806:	00 00       	nop
     808:	0f 90       	pop	r0
     80a:	df 91       	pop	r29
     80c:	cf 91       	pop	r28
     80e:	08 95       	ret

00000810 <set_servo_direction>:

void set_servo_direction(signed char direction)
{
     810:	cf 93       	push	r28
     812:	df 93       	push	r29
     814:	0f 92       	push	r0
     816:	cd b7       	in	r28, 0x3d	; 61
     818:	de b7       	in	r29, 0x3e	; 62
     81a:	89 83       	std	Y+1, r24	; 0x01

0000081c <.Loc.29>:
    if (direction == 1) // uitgeklapt
     81c:	89 81       	ldd	r24, Y+1	; 0x01
     81e:	81 30       	cpi	r24, 0x01	; 1
     820:	41 f4       	brne	.+16     	; 0x832 <.L11>

00000822 <.LBB74>:
    {
        servo1_set_percentage(100);
     822:	84 e6       	ldi	r24, 0x64	; 100
     824:	90 e0       	ldi	r25, 0x00	; 0
     826:	0e 94 d8 20 	call	0x41b0	; 0x41b0 <servo1_set_percentage>

0000082a <.Loc.31>:
        servo2_set_percentage(-100);
     82a:	8c e9       	ldi	r24, 0x9C	; 156
     82c:	9f ef       	ldi	r25, 0xFF	; 255
     82e:	0e 94 4c 21 	call	0x4298	; 0x4298 <servo2_set_percentage>

00000832 <.L11>:
    }
    if (direction == 0) // ingeklapt
     832:	89 81       	ldd	r24, Y+1	; 0x01
     834:	88 23       	and	r24, r24
     836:	41 f4       	brne	.+16     	; 0x848 <.L13>

00000838 <.LBB75>:
    {
        servo1_set_percentage(-100);
     838:	8c e9       	ldi	r24, 0x9C	; 156
     83a:	9f ef       	ldi	r25, 0xFF	; 255
     83c:	0e 94 d8 20 	call	0x41b0	; 0x41b0 <servo1_set_percentage>

00000840 <.Loc.34>:
        servo2_set_percentage(100);
     840:	84 e6       	ldi	r24, 0x64	; 100
     842:	90 e0       	ldi	r25, 0x00	; 0
     844:	0e 94 4c 21 	call	0x4298	; 0x4298 <servo2_set_percentage>

00000848 <.L13>:
    }
}
     848:	00 00       	nop
     84a:	0f 90       	pop	r0
     84c:	df 91       	pop	r29
     84e:	cf 91       	pop	r28
     850:	08 95       	ret

00000852 <init_timer5>:

void init_timer5(void)                            // timer 5 plus interrupt enable
{
     852:	cf 93       	push	r28
     854:	df 93       	push	r29
     856:	cd b7       	in	r28, 0x3d	; 61
     858:	de b7       	in	r29, 0x3e	; 62

0000085a <.Loc.37>:
	TCCR5A = 0;
     85a:	80 e2       	ldi	r24, 0x20	; 32
     85c:	91 e0       	ldi	r25, 0x01	; 1

0000085e <.Loc.38>:
     85e:	fc 01       	movw	r30, r24
     860:	10 82       	st	Z, r1

00000862 <.Loc.39>:
	TCCR5B = (1<<CS52) | (0<<CS51) | (0<<CS50);         // set prescale van 256
     862:	81 e2       	ldi	r24, 0x21	; 33
     864:	91 e0       	ldi	r25, 0x01	; 1

00000866 <.Loc.40>:
     866:	24 e0       	ldi	r18, 0x04	; 4
     868:	fc 01       	movw	r30, r24
     86a:	20 83       	st	Z, r18

0000086c <.Loc.41>:
	TCNT5 = TCNT_INIT5;
     86c:	84 e2       	ldi	r24, 0x24	; 36
     86e:	91 e0       	ldi	r25, 0x01	; 1

00000870 <.Loc.42>:
     870:	20 e1       	ldi	r18, 0x10	; 16
     872:	37 e2       	ldi	r19, 0x27	; 39
     874:	fc 01       	movw	r30, r24
     876:	31 83       	std	Z+1, r19	; 0x01
     878:	20 83       	st	Z, r18

0000087a <.Loc.43>:
	OCR5A = OCA_INIT5;
     87a:	88 e2       	ldi	r24, 0x28	; 40
     87c:	91 e0       	ldi	r25, 0x01	; 1

0000087e <.Loc.44>:
     87e:	28 eb       	ldi	r18, 0xB8	; 184
     880:	38 e8       	ldi	r19, 0x88	; 136
     882:	fc 01       	movw	r30, r24
     884:	31 83       	std	Z+1, r19	; 0x01
     886:	20 83       	st	Z, r18

00000888 <.Loc.45>:
	OCR5B = OCB_INIT5;
     888:	8a e2       	ldi	r24, 0x2A	; 42
     88a:	91 e0       	ldi	r25, 0x01	; 1

0000088c <.Loc.46>:
     88c:	20 e5       	ldi	r18, 0x50	; 80
     88e:	33 ec       	ldi	r19, 0xC3	; 195
     890:	fc 01       	movw	r30, r24
     892:	31 83       	std	Z+1, r19	; 0x01
     894:	20 83       	st	Z, r18

00000896 <.Loc.47>:
	TIMSK5 = (1<<OCIE5A) | (1<<OCIE5B) | (1<<TOIE5);	// eneble interrupt overflow en compare A en B
     896:	83 e7       	ldi	r24, 0x73	; 115
     898:	90 e0       	ldi	r25, 0x00	; 0

0000089a <.Loc.48>:
     89a:	27 e0       	ldi	r18, 0x07	; 7
     89c:	fc 01       	movw	r30, r24
     89e:	20 83       	st	Z, r18

000008a0 <.Loc.49>:
}
     8a0:	00 00       	nop
     8a2:	df 91       	pop	r29
     8a4:	cf 91       	pop	r28
     8a6:	08 95       	ret

000008a8 <init_Registers>:

void init_Registers(void)
{
     8a8:	cf 93       	push	r28
     8aa:	df 93       	push	r29
     8ac:	cd b7       	in	r28, 0x3d	; 61
     8ae:	de b7       	in	r29, 0x3e	; 62

000008b0 <.Loc.51>:
    // output
	DDRK |= (1<<PK7) | (1<<PK6);                        // knipperlichten pin A15 en A14
     8b0:	87 e0       	ldi	r24, 0x07	; 7
     8b2:	91 e0       	ldi	r25, 0x01	; 1
     8b4:	fc 01       	movw	r30, r24
     8b6:	20 81       	ld	r18, Z
     8b8:	87 e0       	ldi	r24, 0x07	; 7
     8ba:	91 e0       	ldi	r25, 0x01	; 1

000008bc <.Loc.52>:
     8bc:	20 6c       	ori	r18, 0xC0	; 192
     8be:	fc 01       	movw	r30, r24
     8c0:	20 83       	st	Z, r18

000008c2 <.Loc.53>:
	PORTK &= ~(1<<PK7) & ~(1<<PK6);                     // knipperlichten pin A15 en A14 init uit
     8c2:	88 e0       	ldi	r24, 0x08	; 8
     8c4:	91 e0       	ldi	r25, 0x01	; 1
     8c6:	fc 01       	movw	r30, r24
     8c8:	20 81       	ld	r18, Z

000008ca <.Loc.54>:
     8ca:	88 e0       	ldi	r24, 0x08	; 8
     8cc:	91 e0       	ldi	r25, 0x01	; 1

000008ce <.Loc.55>:
     8ce:	2f 73       	andi	r18, 0x3F	; 63
     8d0:	fc 01       	movw	r30, r24
     8d2:	20 83       	st	Z, r18

000008d4 <.Loc.56>:
	DDRD |= (1<<PD0);                                   // buzzer
     8d4:	8a e2       	ldi	r24, 0x2A	; 42
     8d6:	90 e0       	ldi	r25, 0x00	; 0
     8d8:	fc 01       	movw	r30, r24
     8da:	20 81       	ld	r18, Z
     8dc:	8a e2       	ldi	r24, 0x2A	; 42
     8de:	90 e0       	ldi	r25, 0x00	; 0

000008e0 <.Loc.57>:
     8e0:	21 60       	ori	r18, 0x01	; 1
     8e2:	fc 01       	movw	r30, r24
     8e4:	20 83       	st	Z, r18

000008e6 <.Loc.58>:
	PORTD &= ~(1<<PD0);                                 // buzzer init uit
     8e6:	8b e2       	ldi	r24, 0x2B	; 43
     8e8:	90 e0       	ldi	r25, 0x00	; 0
     8ea:	fc 01       	movw	r30, r24
     8ec:	20 81       	ld	r18, Z

000008ee <.Loc.59>:
     8ee:	8b e2       	ldi	r24, 0x2B	; 43
     8f0:	90 e0       	ldi	r25, 0x00	; 0

000008f2 <.Loc.60>:
     8f2:	2e 7f       	andi	r18, 0xFE	; 254
     8f4:	fc 01       	movw	r30, r24
     8f6:	20 83       	st	Z, r18

000008f8 <.Loc.61>:
	DDRF |= (1<<PF7);                                   // ledje in de noodknop
     8f8:	80 e3       	ldi	r24, 0x30	; 48
     8fa:	90 e0       	ldi	r25, 0x00	; 0
     8fc:	fc 01       	movw	r30, r24
     8fe:	20 81       	ld	r18, Z
     900:	80 e3       	ldi	r24, 0x30	; 48
     902:	90 e0       	ldi	r25, 0x00	; 0

00000904 <.Loc.62>:
     904:	20 68       	ori	r18, 0x80	; 128
     906:	fc 01       	movw	r30, r24
     908:	20 83       	st	Z, r18

0000090a <.Loc.63>:
	PORTF |= (1<<PF7);                                  // ledje in de noodknop init uit
     90a:	81 e3       	ldi	r24, 0x31	; 49
     90c:	90 e0       	ldi	r25, 0x00	; 0
     90e:	fc 01       	movw	r30, r24
     910:	20 81       	ld	r18, Z
     912:	81 e3       	ldi	r24, 0x31	; 49
     914:	90 e0       	ldi	r25, 0x00	; 0

00000916 <.Loc.64>:
     916:	20 68       	ori	r18, 0x80	; 128
     918:	fc 01       	movw	r30, r24
     91a:	20 83       	st	Z, r18

0000091c <.Loc.65>:

	//bedingingpaneel
	PORTF |= (1<<opbouw_knop) | (1<<afbouw_knop) | (1<<neerzetten_knop) | (1<<nood_knop);   		// eneble alle knoppen voor input
     91c:	81 e3       	ldi	r24, 0x31	; 49
     91e:	90 e0       	ldi	r25, 0x00	; 0
     920:	fc 01       	movw	r30, r24
     922:	20 81       	ld	r18, Z
     924:	81 e3       	ldi	r24, 0x31	; 49
     926:	90 e0       	ldi	r25, 0x00	; 0

00000928 <.Loc.66>:
     928:	27 61       	ori	r18, 0x17	; 23
     92a:	fc 01       	movw	r30, r24
     92c:	20 83       	st	Z, r18

0000092e <.Loc.67>:
	DDRF |= (1<<opbouw_knop) | (1<<afbouw_knop) | (1<<neerzetten_knop) | (1<<nood_knop);		// eneble interne pullup resistor
     92e:	80 e3       	ldi	r24, 0x30	; 48
     930:	90 e0       	ldi	r25, 0x00	; 0
     932:	fc 01       	movw	r30, r24
     934:	20 81       	ld	r18, Z
     936:	80 e3       	ldi	r24, 0x30	; 48
     938:	90 e0       	ldi	r25, 0x00	; 0

0000093a <.Loc.68>:
     93a:	27 61       	ori	r18, 0x17	; 23
     93c:	fc 01       	movw	r30, r24
     93e:	20 83       	st	Z, r18

00000940 <.Loc.69>:

	//schakelaars
	PORTA &= (1<<home_switch);
     940:	82 e2       	ldi	r24, 0x22	; 34
     942:	90 e0       	ldi	r25, 0x00	; 0
     944:	fc 01       	movw	r30, r24
     946:	20 81       	ld	r18, Z

00000948 <.Loc.70>:
     948:	82 e2       	ldi	r24, 0x22	; 34
     94a:	90 e0       	ldi	r25, 0x00	; 0

0000094c <.Loc.71>:
     94c:	22 70       	andi	r18, 0x02	; 2
     94e:	fc 01       	movw	r30, r24
     950:	20 83       	st	Z, r18

00000952 <.Loc.72>:
	PORTA &= (1<<top_switch);
     952:	82 e2       	ldi	r24, 0x22	; 34
     954:	90 e0       	ldi	r25, 0x00	; 0
     956:	fc 01       	movw	r30, r24
     958:	20 81       	ld	r18, Z

0000095a <.Loc.73>:
     95a:	82 e2       	ldi	r24, 0x22	; 34
     95c:	90 e0       	ldi	r25, 0x00	; 0

0000095e <.Loc.74>:
     95e:	28 70       	andi	r18, 0x08	; 8
     960:	fc 01       	movw	r30, r24
     962:	20 83       	st	Z, r18

00000964 <.Loc.75>:
	PORTA &= (1<<middel_switch);
     964:	82 e2       	ldi	r24, 0x22	; 34
     966:	90 e0       	ldi	r25, 0x00	; 0
     968:	fc 01       	movw	r30, r24
     96a:	20 81       	ld	r18, Z

0000096c <.Loc.76>:
     96c:	82 e2       	ldi	r24, 0x22	; 34
     96e:	90 e0       	ldi	r25, 0x00	; 0

00000970 <.Loc.77>:
     970:	20 72       	andi	r18, 0x20	; 32
     972:	fc 01       	movw	r30, r24
     974:	20 83       	st	Z, r18

00000976 <.Loc.78>:
}
     976:	00 00       	nop
     978:	df 91       	pop	r29
     97a:	cf 91       	pop	r28
     97c:	08 95       	ret

0000097e <init_LCDenBluetooth>:

void init_LCDenBluetooth(void)
{
     97e:	0f 93       	push	r16
     980:	1f 93       	push	r17
     982:	cf 93       	push	r28
     984:	df 93       	push	r29
     986:	cd b7       	in	r28, 0x3d	; 61
     988:	de b7       	in	r29, 0x3e	; 62
     98a:	c2 5b       	subi	r28, 0xB2	; 178
     98c:	d1 09       	sbc	r29, r1
     98e:	0f b6       	in	r0, 0x3f	; 63
     990:	f8 94       	cli
     992:	de bf       	out	0x3e, r29	; 62
     994:	0f be       	out	0x3f, r0	; 63
     996:	cd bf       	out	0x3d, r28	; 61

00000998 <.Loc.80>:
    //LCD scherm
    DataDir_LCDControl |= (1 << LCDEnable) | (1 << ReadWrite) | (1 << LCDRS);//Data directory register goed zetten
     998:	8a e2       	ldi	r24, 0x2A	; 42
     99a:	90 e0       	ldi	r25, 0x00	; 0
     99c:	dc 01       	movw	r26, r24
     99e:	2c 91       	ld	r18, X
     9a0:	8a e2       	ldi	r24, 0x2A	; 42
     9a2:	90 e0       	ldi	r25, 0x00	; 0

000009a4 <.Loc.81>:
     9a4:	27 60       	ori	r18, 0x07	; 7
     9a6:	fc 01       	movw	r30, r24
     9a8:	20 83       	st	Z, r18
     9aa:	9e 01       	movw	r18, r28
     9ac:	2f 5b       	subi	r18, 0xBF	; 191
     9ae:	3f 4f       	sbci	r19, 0xFF	; 255
     9b0:	80 e0       	ldi	r24, 0x00	; 0
     9b2:	90 e0       	ldi	r25, 0x00	; 0
     9b4:	a0 e7       	ldi	r26, 0x70	; 112
     9b6:	b1 e4       	ldi	r27, 0x41	; 65
     9b8:	f9 01       	movw	r30, r18
     9ba:	80 83       	st	Z, r24
     9bc:	91 83       	std	Z+1, r25	; 0x01
     9be:	a2 83       	std	Z+2, r26	; 0x02
     9c0:	b3 83       	std	Z+3, r27	; 0x03

000009c2 <.LBB76>:

	__builtin_avr_delay_cycles(__ticks_dc);

#else
	uint16_t __ticks;
	__tmp = ((F_CPU) / 4e3) * __ms;
     9c2:	8e 01       	movw	r16, r28
     9c4:	0b 5b       	subi	r16, 0xBB	; 187
     9c6:	1f 4f       	sbci	r17, 0xFF	; 255
     9c8:	ce 01       	movw	r24, r28
     9ca:	8f 5b       	subi	r24, 0xBF	; 191
     9cc:	9f 4f       	sbci	r25, 0xFF	; 255
     9ce:	20 e0       	ldi	r18, 0x00	; 0
     9d0:	30 e0       	ldi	r19, 0x00	; 0
     9d2:	4a e7       	ldi	r20, 0x7A	; 122
     9d4:	55 e4       	ldi	r21, 0x45	; 69
     9d6:	dc 01       	movw	r26, r24
     9d8:	6d 91       	ld	r22, X+
     9da:	7d 91       	ld	r23, X+
     9dc:	8d 91       	ld	r24, X+
     9de:	9c 91       	ld	r25, X
     9e0:	0e 94 15 24 	call	0x482a	; 0x482a <__mulsf3>
     9e4:	6f 96       	adiw	r28, 0x1f	; 31
     9e6:	6c af       	std	Y+60, r22	; 0x3c
     9e8:	7d af       	std	Y+61, r23	; 0x3d
     9ea:	8e af       	std	Y+62, r24	; 0x3e
     9ec:	9f af       	std	Y+63, r25	; 0x3f
     9ee:	6f 97       	sbiw	r28, 0x1f	; 31
     9f0:	6f 96       	adiw	r28, 0x1f	; 31
     9f2:	8c ad       	ldd	r24, Y+60	; 0x3c
     9f4:	9d ad       	ldd	r25, Y+61	; 0x3d
     9f6:	ae ad       	ldd	r26, Y+62	; 0x3e
     9f8:	bf ad       	ldd	r27, Y+63	; 0x3f
     9fa:	6f 97       	sbiw	r28, 0x1f	; 31
     9fc:	f8 01       	movw	r30, r16
     9fe:	80 83       	st	Z, r24
     a00:	91 83       	std	Z+1, r25	; 0x01
     a02:	a2 83       	std	Z+2, r26	; 0x02
     a04:	b3 83       	std	Z+3, r27	; 0x03

00000a06 <.Loc.83>:
	if (__tmp < 1.0)
     a06:	ce 01       	movw	r24, r28
     a08:	8b 5b       	subi	r24, 0xBB	; 187
     a0a:	9f 4f       	sbci	r25, 0xFF	; 255
     a0c:	20 e0       	ldi	r18, 0x00	; 0
     a0e:	30 e0       	ldi	r19, 0x00	; 0
     a10:	40 e8       	ldi	r20, 0x80	; 128
     a12:	5f e3       	ldi	r21, 0x3F	; 63
     a14:	dc 01       	movw	r26, r24
     a16:	6d 91       	ld	r22, X+
     a18:	7d 91       	ld	r23, X+
     a1a:	8d 91       	ld	r24, X+
     a1c:	9c 91       	ld	r25, X
     a1e:	0e 94 b8 22 	call	0x4570	; 0x4570 <__cmpsf2>
     a22:	88 23       	and	r24, r24
     a24:	4c f4       	brge	.+18     	; 0xa38 <.L69>

00000a26 <.Loc.84>:
		__ticks = 1;
     a26:	ce 01       	movw	r24, r28
     a28:	87 5b       	subi	r24, 0xB7	; 183
     a2a:	9f 4f       	sbci	r25, 0xFF	; 255
     a2c:	21 e0       	ldi	r18, 0x01	; 1
     a2e:	30 e0       	ldi	r19, 0x00	; 0
     a30:	fc 01       	movw	r30, r24
     a32:	31 83       	std	Z+1, r19	; 0x01
     a34:	20 83       	st	Z, r18
     a36:	95 c0       	rjmp	.+298    	; 0xb62 <.L19>

00000a38 <.L69>:
	else if (__tmp > 65535)
     a38:	ce 01       	movw	r24, r28
     a3a:	8b 5b       	subi	r24, 0xBB	; 187
     a3c:	9f 4f       	sbci	r25, 0xFF	; 255
     a3e:	20 e0       	ldi	r18, 0x00	; 0
     a40:	3f ef       	ldi	r19, 0xFF	; 255
     a42:	4f e7       	ldi	r20, 0x7F	; 127
     a44:	57 e4       	ldi	r21, 0x47	; 71
     a46:	dc 01       	movw	r26, r24
     a48:	6d 91       	ld	r22, X+
     a4a:	7d 91       	ld	r23, X+
     a4c:	8d 91       	ld	r24, X+
     a4e:	9c 91       	ld	r25, X
     a50:	0e 94 10 24 	call	0x4820	; 0x4820 <__gesf2>
     a54:	88 23       	and	r24, r24
     a56:	09 f0       	breq	.+2      	; 0xa5a <L0^A>

00000a58 <L0^A>:
     a58:	0c f4       	brge	.+2      	; 0xa5c <.Loc.86>

00000a5a <L0^A>:
     a5a:	69 c0       	rjmp	.+210    	; 0xb2e <.L70>

00000a5c <.Loc.86>:
	{
		//	__ticks = requested delay in 1/10 ms
		__ticks = (uint16_t) (__ms * 10.0);
     a5c:	ce 01       	movw	r24, r28
     a5e:	8f 5b       	subi	r24, 0xBF	; 191
     a60:	9f 4f       	sbci	r25, 0xFF	; 255
     a62:	20 e0       	ldi	r18, 0x00	; 0
     a64:	30 e0       	ldi	r19, 0x00	; 0
     a66:	40 e2       	ldi	r20, 0x20	; 32
     a68:	51 e4       	ldi	r21, 0x41	; 65
     a6a:	fc 01       	movw	r30, r24
     a6c:	60 81       	ld	r22, Z
     a6e:	71 81       	ldd	r23, Z+1	; 0x01
     a70:	82 81       	ldd	r24, Z+2	; 0x02
     a72:	93 81       	ldd	r25, Z+3	; 0x03
     a74:	0e 94 15 24 	call	0x482a	; 0x482a <__mulsf3>
     a78:	a3 96       	adiw	r28, 0x23	; 35
     a7a:	6c af       	std	Y+60, r22	; 0x3c
     a7c:	7d af       	std	Y+61, r23	; 0x3d
     a7e:	8e af       	std	Y+62, r24	; 0x3e
     a80:	9f af       	std	Y+63, r25	; 0x3f
     a82:	a3 97       	sbiw	r28, 0x23	; 35
     a84:	a3 96       	adiw	r28, 0x23	; 35
     a86:	8c ad       	ldd	r24, Y+60	; 0x3c
     a88:	9d ad       	ldd	r25, Y+61	; 0x3d
     a8a:	ae ad       	ldd	r26, Y+62	; 0x3e
     a8c:	bf ad       	ldd	r27, Y+63	; 0x3f
     a8e:	a3 97       	sbiw	r28, 0x23	; 35
     a90:	6b 96       	adiw	r28, 0x1b	; 27
     a92:	8c af       	std	Y+60, r24	; 0x3c
     a94:	9d af       	std	Y+61, r25	; 0x3d
     a96:	ae af       	std	Y+62, r26	; 0x3e
     a98:	bf af       	std	Y+63, r27	; 0x3f
     a9a:	6b 97       	sbiw	r28, 0x1b	; 27

00000a9c <.Loc.87>:
     a9c:	8e 01       	movw	r16, r28
     a9e:	07 5b       	subi	r16, 0xB7	; 183
     aa0:	1f 4f       	sbci	r17, 0xFF	; 255
     aa2:	6b 96       	adiw	r28, 0x1b	; 27
     aa4:	6c ad       	ldd	r22, Y+60	; 0x3c
     aa6:	7d ad       	ldd	r23, Y+61	; 0x3d
     aa8:	8e ad       	ldd	r24, Y+62	; 0x3e
     aaa:	9f ad       	ldd	r25, Y+63	; 0x3f
     aac:	6b 97       	sbiw	r28, 0x1b	; 27
     aae:	0e 94 2f 23 	call	0x465e	; 0x465e <__fixunssfsi>
     ab2:	a7 96       	adiw	r28, 0x27	; 39
     ab4:	6c af       	std	Y+60, r22	; 0x3c
     ab6:	7d af       	std	Y+61, r23	; 0x3d
     ab8:	8e af       	std	Y+62, r24	; 0x3e
     aba:	9f af       	std	Y+63, r25	; 0x3f
     abc:	a7 97       	sbiw	r28, 0x27	; 39
     abe:	a5 96       	adiw	r28, 0x25	; 37
     ac0:	ee ad       	ldd	r30, Y+62	; 0x3e
     ac2:	ff ad       	ldd	r31, Y+63	; 0x3f
     ac4:	a5 97       	sbiw	r28, 0x25	; 37
     ac6:	d8 01       	movw	r26, r16
     ac8:	11 96       	adiw	r26, 0x01	; 1
     aca:	fc 93       	st	X, r31
     acc:	ee 93       	st	-X, r30

00000ace <.Loc.88>:
		while(__ticks)
     ace:	26 c0       	rjmp	.+76     	; 0xb1c <.L22>

00000ad0 <.L23>:
     ad0:	ce 01       	movw	r24, r28
     ad2:	85 5b       	subi	r24, 0xB5	; 181
     ad4:	9f 4f       	sbci	r25, 0xFF	; 255
     ad6:	20 e9       	ldi	r18, 0x90	; 144
     ad8:	31 e0       	ldi	r19, 0x01	; 1
     ada:	dc 01       	movw	r26, r24
     adc:	2d 93       	st	X+, r18
     ade:	3c 93       	st	X, r19

00000ae0 <.LBB78>:
		"sbc %B0,__zero_reg__"    "\n\t"
		"brne 1b"
		: "+d" (__count)
	);
#else
	__asm__ volatile (
     ae0:	ce 01       	movw	r24, r28
     ae2:	85 5b       	subi	r24, 0xB5	; 181
     ae4:	9f 4f       	sbci	r25, 0xFF	; 255
     ae6:	fc 01       	movw	r30, r24
     ae8:	80 81       	ld	r24, Z
     aea:	91 81       	ldd	r25, Z+1	; 0x01

00000aec <.L1^B1>:
     aec:	01 97       	sbiw	r24, 0x01	; 1
     aee:	f1 f7       	brne	.-4      	; 0xaec <.L1^B1>
     af0:	9e 01       	movw	r18, r28
     af2:	25 5b       	subi	r18, 0xB5	; 181
     af4:	3f 4f       	sbci	r19, 0xFF	; 255
     af6:	d9 01       	movw	r26, r18
     af8:	8d 93       	st	X+, r24
     afa:	9c 93       	st	X, r25

00000afc <.Loc.90>:
	...

00000afe <.LBE78>:
		{
			// wait 1/10 ms
			_delay_loop_2(((F_CPU) / 4e3) / 10);
			__ticks --;
     afe:	ce 01       	movw	r24, r28
     b00:	87 5b       	subi	r24, 0xB7	; 183
     b02:	9f 4f       	sbci	r25, 0xFF	; 255
     b04:	9e 01       	movw	r18, r28
     b06:	27 5b       	subi	r18, 0xB7	; 183
     b08:	3f 4f       	sbci	r19, 0xFF	; 255
     b0a:	f9 01       	movw	r30, r18
     b0c:	20 81       	ld	r18, Z
     b0e:	31 81       	ldd	r19, Z+1	; 0x01
     b10:	21 50       	subi	r18, 0x01	; 1
     b12:	31 09       	sbc	r19, r1
     b14:	dc 01       	movw	r26, r24
     b16:	11 96       	adiw	r26, 0x01	; 1
     b18:	3c 93       	st	X, r19
     b1a:	2e 93       	st	-X, r18

00000b1c <.L22>:
		while(__ticks)
     b1c:	ce 01       	movw	r24, r28
     b1e:	87 5b       	subi	r24, 0xB7	; 183
     b20:	9f 4f       	sbci	r25, 0xFF	; 255
     b22:	fc 01       	movw	r30, r24
     b24:	80 81       	ld	r24, Z
     b26:	91 81       	ldd	r25, Z+1	; 0x01
     b28:	00 97       	sbiw	r24, 0x00	; 0
     b2a:	91 f6       	brne	.-92     	; 0xad0 <.L23>

00000b2c <.Loc.93>:
		}
		return;
     b2c:	35 c0       	rjmp	.+106    	; 0xb98 <.L24>

00000b2e <.L70>:
	}
	else
		__ticks = (uint16_t)__tmp;
     b2e:	8e 01       	movw	r16, r28
     b30:	07 5b       	subi	r16, 0xB7	; 183
     b32:	1f 4f       	sbci	r17, 0xFF	; 255
     b34:	ce 01       	movw	r24, r28
     b36:	8b 5b       	subi	r24, 0xBB	; 187
     b38:	9f 4f       	sbci	r25, 0xFF	; 255
     b3a:	dc 01       	movw	r26, r24
     b3c:	6d 91       	ld	r22, X+
     b3e:	7d 91       	ld	r23, X+
     b40:	8d 91       	ld	r24, X+
     b42:	9c 91       	ld	r25, X
     b44:	0e 94 2f 23 	call	0x465e	; 0x465e <__fixunssfsi>
     b48:	ab 96       	adiw	r28, 0x2b	; 43
     b4a:	6c af       	std	Y+60, r22	; 0x3c
     b4c:	7d af       	std	Y+61, r23	; 0x3d
     b4e:	8e af       	std	Y+62, r24	; 0x3e
     b50:	9f af       	std	Y+63, r25	; 0x3f
     b52:	ab 97       	sbiw	r28, 0x2b	; 43
     b54:	a9 96       	adiw	r28, 0x29	; 41
     b56:	8e ad       	ldd	r24, Y+62	; 0x3e
     b58:	9f ad       	ldd	r25, Y+63	; 0x3f
     b5a:	a9 97       	sbiw	r28, 0x29	; 41
     b5c:	f8 01       	movw	r30, r16
     b5e:	91 83       	std	Z+1, r25	; 0x01
     b60:	80 83       	st	Z, r24

00000b62 <.L19>:
     b62:	ce 01       	movw	r24, r28
     b64:	83 5b       	subi	r24, 0xB3	; 179
     b66:	9f 4f       	sbci	r25, 0xFF	; 255
     b68:	9e 01       	movw	r18, r28
     b6a:	27 5b       	subi	r18, 0xB7	; 183
     b6c:	3f 4f       	sbci	r19, 0xFF	; 255
     b6e:	d9 01       	movw	r26, r18
     b70:	2d 91       	ld	r18, X+
     b72:	3c 91       	ld	r19, X
     b74:	fc 01       	movw	r30, r24
     b76:	31 83       	std	Z+1, r19	; 0x01
     b78:	20 83       	st	Z, r18

00000b7a <.LBB80>:
     b7a:	ce 01       	movw	r24, r28
     b7c:	83 5b       	subi	r24, 0xB3	; 179
     b7e:	9f 4f       	sbci	r25, 0xFF	; 255
     b80:	dc 01       	movw	r26, r24
     b82:	8d 91       	ld	r24, X+
     b84:	9c 91       	ld	r25, X

00000b86 <.L1^B2>:
     b86:	01 97       	sbiw	r24, 0x01	; 1
     b88:	f1 f7       	brne	.-4      	; 0xb86 <.L1^B2>
     b8a:	9e 01       	movw	r18, r28
     b8c:	23 5b       	subi	r18, 0xB3	; 179
     b8e:	3f 4f       	sbci	r19, 0xFF	; 255
     b90:	f9 01       	movw	r30, r18
     b92:	91 83       	std	Z+1, r25	; 0x01
     b94:	80 83       	st	Z, r24

00000b96 <.Loc.96>:
	...

00000b98 <.L24>:
    _delay_ms(15);//delay moet volgens datasheet

    LCD_Scherm_Leeg();
     b98:	0e 94 80 0b 	call	0x1700	; 0x1700 <LCD_Scherm_Leeg>

00000b9c <.Loc.98>:
    Stuur_LCD_Opdracht(0x38);//opdracht voor LCD in 8bit mode
     b9c:	88 e3       	ldi	r24, 0x38	; 56
     b9e:	0e 94 5e 0a 	call	0x14bc	; 0x14bc <Stuur_LCD_Opdracht>
     ba2:	80 e0       	ldi	r24, 0x00	; 0
     ba4:	90 e0       	ldi	r25, 0x00	; 0
     ba6:	a8 e4       	ldi	r26, 0x48	; 72
     ba8:	b2 e4       	ldi	r27, 0x42	; 66
     baa:	89 a3       	std	Y+33, r24	; 0x21
     bac:	9a a3       	std	Y+34, r25	; 0x22
     bae:	ab a3       	std	Y+35, r26	; 0x23
     bb0:	bc a3       	std	Y+36, r27	; 0x24

00000bb2 <.LBB82>:
	__builtin_avr_delay_cycles(__ticks_dc);

#else
	uint8_t __ticks;
	double __tmp2 ;
	__tmp = ((F_CPU) / 3e6) * __us;
     bb2:	2b ea       	ldi	r18, 0xAB	; 171
     bb4:	3a ea       	ldi	r19, 0xAA	; 170
     bb6:	4a ea       	ldi	r20, 0xAA	; 170
     bb8:	50 e4       	ldi	r21, 0x40	; 64
     bba:	69 a1       	ldd	r22, Y+33	; 0x21
     bbc:	7a a1       	ldd	r23, Y+34	; 0x22
     bbe:	8b a1       	ldd	r24, Y+35	; 0x23
     bc0:	9c a1       	ldd	r25, Y+36	; 0x24
     bc2:	0e 94 15 24 	call	0x482a	; 0x482a <__mulsf3>
     bc6:	af 96       	adiw	r28, 0x2f	; 47
     bc8:	6c af       	std	Y+60, r22	; 0x3c
     bca:	7d af       	std	Y+61, r23	; 0x3d
     bcc:	8e af       	std	Y+62, r24	; 0x3e
     bce:	9f af       	std	Y+63, r25	; 0x3f
     bd0:	af 97       	sbiw	r28, 0x2f	; 47
     bd2:	af 96       	adiw	r28, 0x2f	; 47
     bd4:	8c ad       	ldd	r24, Y+60	; 0x3c
     bd6:	9d ad       	ldd	r25, Y+61	; 0x3d
     bd8:	ae ad       	ldd	r26, Y+62	; 0x3e
     bda:	bf ad       	ldd	r27, Y+63	; 0x3f
     bdc:	af 97       	sbiw	r28, 0x2f	; 47
     bde:	8d a3       	std	Y+37, r24	; 0x25
     be0:	9e a3       	std	Y+38, r25	; 0x26
     be2:	af a3       	std	Y+39, r26	; 0x27
     be4:	b8 a7       	std	Y+40, r27	; 0x28

00000be6 <.Loc.100>:
	__tmp2 = ((F_CPU) / 4e6) * __us;
     be6:	20 e0       	ldi	r18, 0x00	; 0
     be8:	30 e0       	ldi	r19, 0x00	; 0
     bea:	40 e8       	ldi	r20, 0x80	; 128
     bec:	50 e4       	ldi	r21, 0x40	; 64
     bee:	69 a1       	ldd	r22, Y+33	; 0x21
     bf0:	7a a1       	ldd	r23, Y+34	; 0x22
     bf2:	8b a1       	ldd	r24, Y+35	; 0x23
     bf4:	9c a1       	ldd	r25, Y+36	; 0x24
     bf6:	0e 94 15 24 	call	0x482a	; 0x482a <__mulsf3>
     bfa:	e3 96       	adiw	r28, 0x33	; 51
     bfc:	6c af       	std	Y+60, r22	; 0x3c
     bfe:	7d af       	std	Y+61, r23	; 0x3d
     c00:	8e af       	std	Y+62, r24	; 0x3e
     c02:	9f af       	std	Y+63, r25	; 0x3f
     c04:	e3 97       	sbiw	r28, 0x33	; 51
     c06:	e3 96       	adiw	r28, 0x33	; 51
     c08:	8c ad       	ldd	r24, Y+60	; 0x3c
     c0a:	9d ad       	ldd	r25, Y+61	; 0x3d
     c0c:	ae ad       	ldd	r26, Y+62	; 0x3e
     c0e:	bf ad       	ldd	r27, Y+63	; 0x3f
     c10:	e3 97       	sbiw	r28, 0x33	; 51
     c12:	89 a7       	std	Y+41, r24	; 0x29
     c14:	9a a7       	std	Y+42, r25	; 0x2a
     c16:	ab a7       	std	Y+43, r26	; 0x2b
     c18:	bc a7       	std	Y+44, r27	; 0x2c

00000c1a <.Loc.101>:
	if (__tmp < 1.0)
     c1a:	20 e0       	ldi	r18, 0x00	; 0
     c1c:	30 e0       	ldi	r19, 0x00	; 0
     c1e:	40 e8       	ldi	r20, 0x80	; 128
     c20:	5f e3       	ldi	r21, 0x3F	; 63
     c22:	6d a1       	ldd	r22, Y+37	; 0x25
     c24:	7e a1       	ldd	r23, Y+38	; 0x26
     c26:	8f a1       	ldd	r24, Y+39	; 0x27
     c28:	98 a5       	ldd	r25, Y+40	; 0x28
     c2a:	0e 94 b8 22 	call	0x4570	; 0x4570 <__cmpsf2>
     c2e:	88 23       	and	r24, r24
     c30:	1c f4       	brge	.+6      	; 0xc38 <.L71>

00000c32 <.Loc.102>:
		__ticks = 1;
     c32:	81 e0       	ldi	r24, 0x01	; 1
     c34:	8d a7       	std	Y+45, r24	; 0x2d
     c36:	0f c1       	rjmp	.+542    	; 0xe56 <.L27>

00000c38 <.L71>:
	else if (__tmp2 > 65535)
     c38:	20 e0       	ldi	r18, 0x00	; 0
     c3a:	3f ef       	ldi	r19, 0xFF	; 255
     c3c:	4f e7       	ldi	r20, 0x7F	; 127
     c3e:	57 e4       	ldi	r21, 0x47	; 71
     c40:	69 a5       	ldd	r22, Y+41	; 0x29
     c42:	7a a5       	ldd	r23, Y+42	; 0x2a
     c44:	8b a5       	ldd	r24, Y+43	; 0x2b
     c46:	9c a5       	ldd	r25, Y+44	; 0x2c
     c48:	0e 94 10 24 	call	0x4820	; 0x4820 <__gesf2>
     c4c:	88 23       	and	r24, r24
     c4e:	09 f0       	breq	.+2      	; 0xc52 <L0^A>

00000c50 <L0^A>:
     c50:	0c f4       	brge	.+2      	; 0xc54 <.Loc.104>

00000c52 <L0^A>:
     c52:	be c0       	rjmp	.+380    	; 0xdd0 <.L72>

00000c54 <.Loc.104>:
	{
		_delay_ms(__us / 1000.0);
     c54:	20 e0       	ldi	r18, 0x00	; 0
     c56:	30 e0       	ldi	r19, 0x00	; 0
     c58:	4a e7       	ldi	r20, 0x7A	; 122
     c5a:	54 e4       	ldi	r21, 0x44	; 68
     c5c:	69 a1       	ldd	r22, Y+33	; 0x21
     c5e:	7a a1       	ldd	r23, Y+34	; 0x22
     c60:	8b a1       	ldd	r24, Y+35	; 0x23
     c62:	9c a1       	ldd	r25, Y+36	; 0x24
     c64:	0e 94 bd 22 	call	0x457a	; 0x457a <__divsf3>
     c68:	e7 96       	adiw	r28, 0x37	; 55
     c6a:	6c af       	std	Y+60, r22	; 0x3c
     c6c:	7d af       	std	Y+61, r23	; 0x3d
     c6e:	8e af       	std	Y+62, r24	; 0x3e
     c70:	9f af       	std	Y+63, r25	; 0x3f
     c72:	e7 97       	sbiw	r28, 0x37	; 55
     c74:	e7 96       	adiw	r28, 0x37	; 55
     c76:	8c ad       	ldd	r24, Y+60	; 0x3c
     c78:	9d ad       	ldd	r25, Y+61	; 0x3d
     c7a:	ae ad       	ldd	r26, Y+62	; 0x3e
     c7c:	bf ad       	ldd	r27, Y+63	; 0x3f
     c7e:	e7 97       	sbiw	r28, 0x37	; 55
     c80:	8e a7       	std	Y+46, r24	; 0x2e
     c82:	9f a7       	std	Y+47, r25	; 0x2f
     c84:	a8 ab       	std	Y+48, r26	; 0x30
     c86:	b9 ab       	std	Y+49, r27	; 0x31

00000c88 <.LBB84>:
	__tmp = ((F_CPU) / 4e3) * __ms;
     c88:	20 e0       	ldi	r18, 0x00	; 0
     c8a:	30 e0       	ldi	r19, 0x00	; 0
     c8c:	4a e7       	ldi	r20, 0x7A	; 122
     c8e:	55 e4       	ldi	r21, 0x45	; 69
     c90:	6e a5       	ldd	r22, Y+46	; 0x2e
     c92:	7f a5       	ldd	r23, Y+47	; 0x2f
     c94:	88 a9       	ldd	r24, Y+48	; 0x30
     c96:	99 a9       	ldd	r25, Y+49	; 0x31
     c98:	0e 94 15 24 	call	0x482a	; 0x482a <__mulsf3>
     c9c:	eb 96       	adiw	r28, 0x3b	; 59
     c9e:	6c af       	std	Y+60, r22	; 0x3c
     ca0:	7d af       	std	Y+61, r23	; 0x3d
     ca2:	8e af       	std	Y+62, r24	; 0x3e
     ca4:	9f af       	std	Y+63, r25	; 0x3f
     ca6:	eb 97       	sbiw	r28, 0x3b	; 59
     ca8:	eb 96       	adiw	r28, 0x3b	; 59
     caa:	8c ad       	ldd	r24, Y+60	; 0x3c
     cac:	9d ad       	ldd	r25, Y+61	; 0x3d
     cae:	ae ad       	ldd	r26, Y+62	; 0x3e
     cb0:	bf ad       	ldd	r27, Y+63	; 0x3f
     cb2:	eb 97       	sbiw	r28, 0x3b	; 59
     cb4:	8a ab       	std	Y+50, r24	; 0x32
     cb6:	9b ab       	std	Y+51, r25	; 0x33
     cb8:	ac ab       	std	Y+52, r26	; 0x34
     cba:	bd ab       	std	Y+53, r27	; 0x35

00000cbc <.Loc.106>:
	if (__tmp < 1.0)
     cbc:	20 e0       	ldi	r18, 0x00	; 0
     cbe:	30 e0       	ldi	r19, 0x00	; 0
     cc0:	40 e8       	ldi	r20, 0x80	; 128
     cc2:	5f e3       	ldi	r21, 0x3F	; 63
     cc4:	6a a9       	ldd	r22, Y+50	; 0x32
     cc6:	7b a9       	ldd	r23, Y+51	; 0x33
     cc8:	8c a9       	ldd	r24, Y+52	; 0x34
     cca:	9d a9       	ldd	r25, Y+53	; 0x35
     ccc:	0e 94 b8 22 	call	0x4570	; 0x4570 <__cmpsf2>
     cd0:	88 23       	and	r24, r24
     cd2:	2c f4       	brge	.+10     	; 0xcde <.L73>

00000cd4 <.Loc.107>:
		__ticks = 1;
     cd4:	81 e0       	ldi	r24, 0x01	; 1
     cd6:	90 e0       	ldi	r25, 0x00	; 0
     cd8:	9f ab       	std	Y+55, r25	; 0x37
     cda:	8e ab       	std	Y+54, r24	; 0x36
     cdc:	6e c0       	rjmp	.+220    	; 0xdba <.L32>

00000cde <.L73>:
	else if (__tmp > 65535)
     cde:	20 e0       	ldi	r18, 0x00	; 0
     ce0:	3f ef       	ldi	r19, 0xFF	; 255
     ce2:	4f e7       	ldi	r20, 0x7F	; 127
     ce4:	57 e4       	ldi	r21, 0x47	; 71
     ce6:	6a a9       	ldd	r22, Y+50	; 0x32
     ce8:	7b a9       	ldd	r23, Y+51	; 0x33
     cea:	8c a9       	ldd	r24, Y+52	; 0x34
     cec:	9d a9       	ldd	r25, Y+53	; 0x35
     cee:	0e 94 10 24 	call	0x4820	; 0x4820 <__gesf2>
     cf2:	88 23       	and	r24, r24
     cf4:	09 f0       	breq	.+2      	; 0xcf8 <L0^A>

00000cf6 <L0^A>:
     cf6:	0c f4       	brge	.+2      	; 0xcfa <.Loc.109>

00000cf8 <L0^A>:
     cf8:	4a c0       	rjmp	.+148    	; 0xd8e <.L74>

00000cfa <.Loc.109>:
		__ticks = (uint16_t) (__ms * 10.0);
     cfa:	20 e0       	ldi	r18, 0x00	; 0
     cfc:	30 e0       	ldi	r19, 0x00	; 0
     cfe:	40 e2       	ldi	r20, 0x20	; 32
     d00:	51 e4       	ldi	r21, 0x41	; 65
     d02:	6e a5       	ldd	r22, Y+46	; 0x2e
     d04:	7f a5       	ldd	r23, Y+47	; 0x2f
     d06:	88 a9       	ldd	r24, Y+48	; 0x30
     d08:	99 a9       	ldd	r25, Y+49	; 0x31
     d0a:	0e 94 15 24 	call	0x482a	; 0x482a <__mulsf3>
     d0e:	ef 96       	adiw	r28, 0x3f	; 63
     d10:	6c af       	std	Y+60, r22	; 0x3c
     d12:	7d af       	std	Y+61, r23	; 0x3d
     d14:	8e af       	std	Y+62, r24	; 0x3e
     d16:	9f af       	std	Y+63, r25	; 0x3f
     d18:	ef 97       	sbiw	r28, 0x3f	; 63
     d1a:	ef 96       	adiw	r28, 0x3f	; 63
     d1c:	8c ad       	ldd	r24, Y+60	; 0x3c
     d1e:	9d ad       	ldd	r25, Y+61	; 0x3d
     d20:	ae ad       	ldd	r26, Y+62	; 0x3e
     d22:	bf ad       	ldd	r27, Y+63	; 0x3f
     d24:	ef 97       	sbiw	r28, 0x3f	; 63
     d26:	67 96       	adiw	r28, 0x17	; 23
     d28:	8c af       	std	Y+60, r24	; 0x3c
     d2a:	9d af       	std	Y+61, r25	; 0x3d
     d2c:	ae af       	std	Y+62, r26	; 0x3e
     d2e:	bf af       	std	Y+63, r27	; 0x3f
     d30:	67 97       	sbiw	r28, 0x17	; 23

00000d32 <.Loc.110>:
     d32:	67 96       	adiw	r28, 0x17	; 23
     d34:	6c ad       	ldd	r22, Y+60	; 0x3c
     d36:	7d ad       	ldd	r23, Y+61	; 0x3d
     d38:	8e ad       	ldd	r24, Y+62	; 0x3e
     d3a:	9f ad       	ldd	r25, Y+63	; 0x3f
     d3c:	67 97       	sbiw	r28, 0x17	; 23
     d3e:	0e 94 2f 23 	call	0x465e	; 0x465e <__fixunssfsi>
     d42:	c1 58       	subi	r28, 0x81	; 129
     d44:	df 4f       	sbci	r29, 0xFF	; 255
     d46:	68 83       	st	Y, r22
     d48:	79 83       	std	Y+1, r23	; 0x01
     d4a:	8a 83       	std	Y+2, r24	; 0x02
     d4c:	9b 83       	std	Y+3, r25	; 0x03
     d4e:	cf 57       	subi	r28, 0x7F	; 127
     d50:	d0 40       	sbci	r29, 0x00	; 0
     d52:	c1 58       	subi	r28, 0x81	; 129
     d54:	df 4f       	sbci	r29, 0xFF	; 255
     d56:	a8 81       	ld	r26, Y
     d58:	b9 81       	ldd	r27, Y+1	; 0x01
     d5a:	cf 57       	subi	r28, 0x7F	; 127
     d5c:	d0 40       	sbci	r29, 0x00	; 0
     d5e:	bf ab       	std	Y+55, r27	; 0x37
     d60:	ae ab       	std	Y+54, r26	; 0x36

00000d62 <.Loc.111>:
		while(__ticks)
     d62:	10 c0       	rjmp	.+32     	; 0xd84 <.L35>

00000d64 <.L36>:
     d64:	80 e9       	ldi	r24, 0x90	; 144
     d66:	91 e0       	ldi	r25, 0x01	; 1
     d68:	99 af       	std	Y+57, r25	; 0x39
     d6a:	88 af       	std	Y+56, r24	; 0x38

00000d6c <.LBB86>:
     d6c:	88 ad       	ldd	r24, Y+56	; 0x38
     d6e:	99 ad       	ldd	r25, Y+57	; 0x39

00000d70 <.L1^B3>:
     d70:	01 97       	sbiw	r24, 0x01	; 1
     d72:	f1 f7       	brne	.-4      	; 0xd70 <.L1^B3>
     d74:	99 af       	std	Y+57, r25	; 0x39
     d76:	88 af       	std	Y+56, r24	; 0x38

00000d78 <.Loc.113>:
	...

00000d7a <.LBE86>:
			__ticks --;
     d7a:	8e a9       	ldd	r24, Y+54	; 0x36
     d7c:	9f a9       	ldd	r25, Y+55	; 0x37
     d7e:	01 97       	sbiw	r24, 0x01	; 1
     d80:	9f ab       	std	Y+55, r25	; 0x37
     d82:	8e ab       	std	Y+54, r24	; 0x36

00000d84 <.L35>:
		while(__ticks)
     d84:	8e a9       	ldd	r24, Y+54	; 0x36
     d86:	9f a9       	ldd	r25, Y+55	; 0x37
     d88:	00 97       	sbiw	r24, 0x00	; 0
     d8a:	61 f7       	brne	.-40     	; 0xd64 <.L36>

00000d8c <.Loc.116>:
		return;
     d8c:	64 c0       	rjmp	.+200    	; 0xe56 <.L27>

00000d8e <.L74>:
		__ticks = (uint16_t)__tmp;
     d8e:	6a a9       	ldd	r22, Y+50	; 0x32
     d90:	7b a9       	ldd	r23, Y+51	; 0x33
     d92:	8c a9       	ldd	r24, Y+52	; 0x34
     d94:	9d a9       	ldd	r25, Y+53	; 0x35
     d96:	0e 94 2f 23 	call	0x465e	; 0x465e <__fixunssfsi>
     d9a:	cd 57       	subi	r28, 0x7D	; 125
     d9c:	df 4f       	sbci	r29, 0xFF	; 255
     d9e:	68 83       	st	Y, r22
     da0:	79 83       	std	Y+1, r23	; 0x01
     da2:	8a 83       	std	Y+2, r24	; 0x02
     da4:	9b 83       	std	Y+3, r25	; 0x03
     da6:	c3 58       	subi	r28, 0x83	; 131
     da8:	d0 40       	sbci	r29, 0x00	; 0
     daa:	cd 57       	subi	r28, 0x7D	; 125
     dac:	df 4f       	sbci	r29, 0xFF	; 255
     dae:	e8 81       	ld	r30, Y
     db0:	f9 81       	ldd	r31, Y+1	; 0x01
     db2:	c3 58       	subi	r28, 0x83	; 131
     db4:	d0 40       	sbci	r29, 0x00	; 0
     db6:	ff ab       	std	Y+55, r31	; 0x37
     db8:	ee ab       	std	Y+54, r30	; 0x36

00000dba <.L32>:
     dba:	8e a9       	ldd	r24, Y+54	; 0x36
     dbc:	9f a9       	ldd	r25, Y+55	; 0x37
     dbe:	9b af       	std	Y+59, r25	; 0x3b
     dc0:	8a af       	std	Y+58, r24	; 0x3a

00000dc2 <.LBB88>:
     dc2:	8a ad       	ldd	r24, Y+58	; 0x3a
     dc4:	9b ad       	ldd	r25, Y+59	; 0x3b

00000dc6 <.L1^B4>:
     dc6:	01 97       	sbiw	r24, 0x01	; 1
     dc8:	f1 f7       	brne	.-4      	; 0xdc6 <.L1^B4>
     dca:	9b af       	std	Y+59, r25	; 0x3b
     dcc:	8a af       	std	Y+58, r24	; 0x3a

00000dce <.Loc.119>:
		"brne 1b"
		: "=w" (__count)
		: "0" (__count)
	);
#endif /* __AVR_TINY__ */
}
     dce:	43 c0       	rjmp	.+134    	; 0xe56 <.L27>

00000dd0 <.L72>:
	}
	else if (__tmp > 255)
     dd0:	20 e0       	ldi	r18, 0x00	; 0
     dd2:	30 e0       	ldi	r19, 0x00	; 0
     dd4:	4f e7       	ldi	r20, 0x7F	; 127
     dd6:	53 e4       	ldi	r21, 0x43	; 67
     dd8:	6d a1       	ldd	r22, Y+37	; 0x25
     dda:	7e a1       	ldd	r23, Y+38	; 0x26
     ddc:	8f a1       	ldd	r24, Y+39	; 0x27
     dde:	98 a5       	ldd	r25, Y+40	; 0x28
     de0:	0e 94 10 24 	call	0x4820	; 0x4820 <__gesf2>
     de4:	88 23       	and	r24, r24
     de6:	19 f1       	breq	.+70     	; 0xe2e <.L75>
     de8:	14 f1       	brlt	.+68     	; 0xe2e <.L75>

00000dea <.LBB90>:
	{
		uint16_t __ticks=(uint16_t)__tmp2;
     dea:	69 a5       	ldd	r22, Y+41	; 0x29
     dec:	7a a5       	ldd	r23, Y+42	; 0x2a
     dee:	8b a5       	ldd	r24, Y+43	; 0x2b
     df0:	9c a5       	ldd	r25, Y+44	; 0x2c
     df2:	0e 94 2f 23 	call	0x465e	; 0x465e <__fixunssfsi>
     df6:	c9 57       	subi	r28, 0x79	; 121
     df8:	df 4f       	sbci	r29, 0xFF	; 255
     dfa:	68 83       	st	Y, r22
     dfc:	79 83       	std	Y+1, r23	; 0x01
     dfe:	8a 83       	std	Y+2, r24	; 0x02
     e00:	9b 83       	std	Y+3, r25	; 0x03
     e02:	c7 58       	subi	r28, 0x87	; 135
     e04:	d0 40       	sbci	r29, 0x00	; 0
     e06:	c9 57       	subi	r28, 0x79	; 121
     e08:	df 4f       	sbci	r29, 0xFF	; 255
     e0a:	88 81       	ld	r24, Y
     e0c:	99 81       	ldd	r25, Y+1	; 0x01
     e0e:	c7 58       	subi	r28, 0x87	; 135
     e10:	d0 40       	sbci	r29, 0x00	; 0
     e12:	9d af       	std	Y+61, r25	; 0x3d
     e14:	8c af       	std	Y+60, r24	; 0x3c
     e16:	8c ad       	ldd	r24, Y+60	; 0x3c
     e18:	9d ad       	ldd	r25, Y+61	; 0x3d
     e1a:	9f af       	std	Y+63, r25	; 0x3f
     e1c:	8e af       	std	Y+62, r24	; 0x3e

00000e1e <.LBB91>:
	__asm__ volatile (
     e1e:	8e ad       	ldd	r24, Y+62	; 0x3e
     e20:	9f ad       	ldd	r25, Y+63	; 0x3f

00000e22 <.L1^B5>:
     e22:	01 97       	sbiw	r24, 0x01	; 1
     e24:	f1 f7       	brne	.-4      	; 0xe22 <.L1^B5>
     e26:	9f af       	std	Y+63, r25	; 0x3f
     e28:	8e af       	std	Y+62, r24	; 0x3e

00000e2a <.Loc.123>:
	...

00000e2c <.LBE91>:
		_delay_loop_2(__ticks);
		return;
     e2c:	28 c0       	rjmp	.+80     	; 0xe7e <.L40>

00000e2e <.L75>:
	}
	else
		__ticks = (uint8_t)__tmp;
     e2e:	6d a1       	ldd	r22, Y+37	; 0x25
     e30:	7e a1       	ldd	r23, Y+38	; 0x26
     e32:	8f a1       	ldd	r24, Y+39	; 0x27
     e34:	98 a5       	ldd	r25, Y+40	; 0x28
     e36:	0e 94 2f 23 	call	0x465e	; 0x465e <__fixunssfsi>
     e3a:	c5 57       	subi	r28, 0x75	; 117
     e3c:	df 4f       	sbci	r29, 0xFF	; 255
     e3e:	68 83       	st	Y, r22
     e40:	79 83       	std	Y+1, r23	; 0x01
     e42:	8a 83       	std	Y+2, r24	; 0x02
     e44:	9b 83       	std	Y+3, r25	; 0x03
     e46:	cb 58       	subi	r28, 0x8B	; 139
     e48:	d0 40       	sbci	r29, 0x00	; 0
     e4a:	c5 57       	subi	r28, 0x75	; 117
     e4c:	df 4f       	sbci	r29, 0xFF	; 255
     e4e:	98 81       	ld	r25, Y
     e50:	cb 58       	subi	r28, 0x8B	; 139
     e52:	d0 40       	sbci	r29, 0x00	; 0
     e54:	9d a7       	std	Y+45, r25	; 0x2d

00000e56 <.L27>:
     e56:	2d a5       	ldd	r18, Y+45	; 0x2d
     e58:	ce 01       	movw	r24, r28
     e5a:	80 5c       	subi	r24, 0xC0	; 192
     e5c:	9f 4f       	sbci	r25, 0xFF	; 255
     e5e:	dc 01       	movw	r26, r24
     e60:	2c 93       	st	X, r18

00000e62 <.LBB93>:
	__asm__ volatile (
     e62:	ce 01       	movw	r24, r28
     e64:	80 5c       	subi	r24, 0xC0	; 192
     e66:	9f 4f       	sbci	r25, 0xFF	; 255
     e68:	fc 01       	movw	r30, r24
     e6a:	80 81       	ld	r24, Z
     e6c:	28 2f       	mov	r18, r24

00000e6e <.L1^B6>:
     e6e:	2a 95       	dec	r18
     e70:	f1 f7       	brne	.-4      	; 0xe6e <.L1^B6>
     e72:	ce 01       	movw	r24, r28
     e74:	80 5c       	subi	r24, 0xC0	; 192
     e76:	9f 4f       	sbci	r25, 0xFF	; 255
     e78:	dc 01       	movw	r26, r24
     e7a:	2c 93       	st	X, r18

00000e7c <.Loc.127>:
	...

00000e7e <.L40>:
    _delay_us(50);//delay moet volgens datasheet
    Stuur_LCD_Opdracht(0b00001100);//scherm een beetje aanpassen
     e7e:	8c e0       	ldi	r24, 0x0C	; 12
     e80:	0e 94 5e 0a 	call	0x14bc	; 0x14bc <Stuur_LCD_Opdracht>
     e84:	80 e0       	ldi	r24, 0x00	; 0
     e86:	90 e0       	ldi	r25, 0x00	; 0
     e88:	a8 e4       	ldi	r26, 0x48	; 72
     e8a:	b2 e4       	ldi	r27, 0x42	; 66
     e8c:	89 83       	std	Y+1, r24	; 0x01
     e8e:	9a 83       	std	Y+2, r25	; 0x02
     e90:	ab 83       	std	Y+3, r26	; 0x03
     e92:	bc 83       	std	Y+4, r27	; 0x04

00000e94 <.LBB95>:
	__tmp = ((F_CPU) / 3e6) * __us;
     e94:	2b ea       	ldi	r18, 0xAB	; 171
     e96:	3a ea       	ldi	r19, 0xAA	; 170
     e98:	4a ea       	ldi	r20, 0xAA	; 170
     e9a:	50 e4       	ldi	r21, 0x40	; 64
     e9c:	69 81       	ldd	r22, Y+1	; 0x01
     e9e:	7a 81       	ldd	r23, Y+2	; 0x02
     ea0:	8b 81       	ldd	r24, Y+3	; 0x03
     ea2:	9c 81       	ldd	r25, Y+4	; 0x04
     ea4:	0e 94 15 24 	call	0x482a	; 0x482a <__mulsf3>
     ea8:	c1 57       	subi	r28, 0x71	; 113
     eaa:	df 4f       	sbci	r29, 0xFF	; 255
     eac:	68 83       	st	Y, r22
     eae:	79 83       	std	Y+1, r23	; 0x01
     eb0:	8a 83       	std	Y+2, r24	; 0x02
     eb2:	9b 83       	std	Y+3, r25	; 0x03
     eb4:	cf 58       	subi	r28, 0x8F	; 143
     eb6:	d0 40       	sbci	r29, 0x00	; 0
     eb8:	c1 57       	subi	r28, 0x71	; 113
     eba:	df 4f       	sbci	r29, 0xFF	; 255
     ebc:	88 81       	ld	r24, Y
     ebe:	99 81       	ldd	r25, Y+1	; 0x01
     ec0:	aa 81       	ldd	r26, Y+2	; 0x02
     ec2:	bb 81       	ldd	r27, Y+3	; 0x03
     ec4:	cf 58       	subi	r28, 0x8F	; 143
     ec6:	d0 40       	sbci	r29, 0x00	; 0
     ec8:	8d 83       	std	Y+5, r24	; 0x05
     eca:	9e 83       	std	Y+6, r25	; 0x06
     ecc:	af 83       	std	Y+7, r26	; 0x07
     ece:	b8 87       	std	Y+8, r27	; 0x08

00000ed0 <.Loc.130>:
	__tmp2 = ((F_CPU) / 4e6) * __us;
     ed0:	20 e0       	ldi	r18, 0x00	; 0
     ed2:	30 e0       	ldi	r19, 0x00	; 0
     ed4:	40 e8       	ldi	r20, 0x80	; 128
     ed6:	50 e4       	ldi	r21, 0x40	; 64
     ed8:	69 81       	ldd	r22, Y+1	; 0x01
     eda:	7a 81       	ldd	r23, Y+2	; 0x02
     edc:	8b 81       	ldd	r24, Y+3	; 0x03
     ede:	9c 81       	ldd	r25, Y+4	; 0x04
     ee0:	0e 94 15 24 	call	0x482a	; 0x482a <__mulsf3>
     ee4:	cd 56       	subi	r28, 0x6D	; 109
     ee6:	df 4f       	sbci	r29, 0xFF	; 255
     ee8:	68 83       	st	Y, r22
     eea:	79 83       	std	Y+1, r23	; 0x01
     eec:	8a 83       	std	Y+2, r24	; 0x02
     eee:	9b 83       	std	Y+3, r25	; 0x03
     ef0:	c3 59       	subi	r28, 0x93	; 147
     ef2:	d0 40       	sbci	r29, 0x00	; 0
     ef4:	cd 56       	subi	r28, 0x6D	; 109
     ef6:	df 4f       	sbci	r29, 0xFF	; 255
     ef8:	88 81       	ld	r24, Y
     efa:	99 81       	ldd	r25, Y+1	; 0x01
     efc:	aa 81       	ldd	r26, Y+2	; 0x02
     efe:	bb 81       	ldd	r27, Y+3	; 0x03
     f00:	c3 59       	subi	r28, 0x93	; 147
     f02:	d0 40       	sbci	r29, 0x00	; 0
     f04:	89 87       	std	Y+9, r24	; 0x09
     f06:	9a 87       	std	Y+10, r25	; 0x0a
     f08:	ab 87       	std	Y+11, r26	; 0x0b
     f0a:	bc 87       	std	Y+12, r27	; 0x0c

00000f0c <.Loc.131>:
	if (__tmp < 1.0)
     f0c:	20 e0       	ldi	r18, 0x00	; 0
     f0e:	30 e0       	ldi	r19, 0x00	; 0
     f10:	40 e8       	ldi	r20, 0x80	; 128
     f12:	5f e3       	ldi	r21, 0x3F	; 63
     f14:	6d 81       	ldd	r22, Y+5	; 0x05
     f16:	7e 81       	ldd	r23, Y+6	; 0x06
     f18:	8f 81       	ldd	r24, Y+7	; 0x07
     f1a:	98 85       	ldd	r25, Y+8	; 0x08
     f1c:	0e 94 b8 22 	call	0x4570	; 0x4570 <__cmpsf2>
     f20:	88 23       	and	r24, r24
     f22:	1c f4       	brge	.+6      	; 0xf2a <.L76>

00000f24 <.Loc.132>:
		__ticks = 1;
     f24:	81 e0       	ldi	r24, 0x01	; 1
     f26:	8d 87       	std	Y+13, r24	; 0x0d
     f28:	1b c1       	rjmp	.+566    	; 0x1160 <.L43>

00000f2a <.L76>:
	else if (__tmp2 > 65535)
     f2a:	20 e0       	ldi	r18, 0x00	; 0
     f2c:	3f ef       	ldi	r19, 0xFF	; 255
     f2e:	4f e7       	ldi	r20, 0x7F	; 127
     f30:	57 e4       	ldi	r21, 0x47	; 71
     f32:	69 85       	ldd	r22, Y+9	; 0x09
     f34:	7a 85       	ldd	r23, Y+10	; 0x0a
     f36:	8b 85       	ldd	r24, Y+11	; 0x0b
     f38:	9c 85       	ldd	r25, Y+12	; 0x0c
     f3a:	0e 94 10 24 	call	0x4820	; 0x4820 <__gesf2>
     f3e:	88 23       	and	r24, r24
     f40:	09 f0       	breq	.+2      	; 0xf44 <L0^A>

00000f42 <L0^A>:
     f42:	0c f4       	brge	.+2      	; 0xf46 <.Loc.134>

00000f44 <L0^A>:
     f44:	ca c0       	rjmp	.+404    	; 0x10da <.L77>

00000f46 <.Loc.134>:
		_delay_ms(__us / 1000.0);
     f46:	20 e0       	ldi	r18, 0x00	; 0
     f48:	30 e0       	ldi	r19, 0x00	; 0
     f4a:	4a e7       	ldi	r20, 0x7A	; 122
     f4c:	54 e4       	ldi	r21, 0x44	; 68
     f4e:	69 81       	ldd	r22, Y+1	; 0x01
     f50:	7a 81       	ldd	r23, Y+2	; 0x02
     f52:	8b 81       	ldd	r24, Y+3	; 0x03
     f54:	9c 81       	ldd	r25, Y+4	; 0x04
     f56:	0e 94 bd 22 	call	0x457a	; 0x457a <__divsf3>
     f5a:	c9 56       	subi	r28, 0x69	; 105
     f5c:	df 4f       	sbci	r29, 0xFF	; 255
     f5e:	68 83       	st	Y, r22
     f60:	79 83       	std	Y+1, r23	; 0x01
     f62:	8a 83       	std	Y+2, r24	; 0x02
     f64:	9b 83       	std	Y+3, r25	; 0x03
     f66:	c7 59       	subi	r28, 0x97	; 151
     f68:	d0 40       	sbci	r29, 0x00	; 0
     f6a:	c9 56       	subi	r28, 0x69	; 105
     f6c:	df 4f       	sbci	r29, 0xFF	; 255
     f6e:	88 81       	ld	r24, Y
     f70:	99 81       	ldd	r25, Y+1	; 0x01
     f72:	aa 81       	ldd	r26, Y+2	; 0x02
     f74:	bb 81       	ldd	r27, Y+3	; 0x03
     f76:	c7 59       	subi	r28, 0x97	; 151
     f78:	d0 40       	sbci	r29, 0x00	; 0
     f7a:	8e 87       	std	Y+14, r24	; 0x0e
     f7c:	9f 87       	std	Y+15, r25	; 0x0f
     f7e:	a8 8b       	std	Y+16, r26	; 0x10
     f80:	b9 8b       	std	Y+17, r27	; 0x11

00000f82 <.LBB97>:
	__tmp = ((F_CPU) / 4e3) * __ms;
     f82:	20 e0       	ldi	r18, 0x00	; 0
     f84:	30 e0       	ldi	r19, 0x00	; 0
     f86:	4a e7       	ldi	r20, 0x7A	; 122
     f88:	55 e4       	ldi	r21, 0x45	; 69
     f8a:	6e 85       	ldd	r22, Y+14	; 0x0e
     f8c:	7f 85       	ldd	r23, Y+15	; 0x0f
     f8e:	88 89       	ldd	r24, Y+16	; 0x10
     f90:	99 89       	ldd	r25, Y+17	; 0x11
     f92:	0e 94 15 24 	call	0x482a	; 0x482a <__mulsf3>
     f96:	c5 56       	subi	r28, 0x65	; 101
     f98:	df 4f       	sbci	r29, 0xFF	; 255
     f9a:	68 83       	st	Y, r22
     f9c:	79 83       	std	Y+1, r23	; 0x01
     f9e:	8a 83       	std	Y+2, r24	; 0x02
     fa0:	9b 83       	std	Y+3, r25	; 0x03
     fa2:	cb 59       	subi	r28, 0x9B	; 155
     fa4:	d0 40       	sbci	r29, 0x00	; 0
     fa6:	c5 56       	subi	r28, 0x65	; 101
     fa8:	df 4f       	sbci	r29, 0xFF	; 255
     faa:	88 81       	ld	r24, Y
     fac:	99 81       	ldd	r25, Y+1	; 0x01
     fae:	aa 81       	ldd	r26, Y+2	; 0x02
     fb0:	bb 81       	ldd	r27, Y+3	; 0x03
     fb2:	cb 59       	subi	r28, 0x9B	; 155
     fb4:	d0 40       	sbci	r29, 0x00	; 0
     fb6:	8a 8b       	std	Y+18, r24	; 0x12
     fb8:	9b 8b       	std	Y+19, r25	; 0x13
     fba:	ac 8b       	std	Y+20, r26	; 0x14
     fbc:	bd 8b       	std	Y+21, r27	; 0x15

00000fbe <.Loc.136>:
	if (__tmp < 1.0)
     fbe:	20 e0       	ldi	r18, 0x00	; 0
     fc0:	30 e0       	ldi	r19, 0x00	; 0
     fc2:	40 e8       	ldi	r20, 0x80	; 128
     fc4:	5f e3       	ldi	r21, 0x3F	; 63
     fc6:	6a 89       	ldd	r22, Y+18	; 0x12
     fc8:	7b 89       	ldd	r23, Y+19	; 0x13
     fca:	8c 89       	ldd	r24, Y+20	; 0x14
     fcc:	9d 89       	ldd	r25, Y+21	; 0x15
     fce:	0e 94 b8 22 	call	0x4570	; 0x4570 <__cmpsf2>
     fd2:	88 23       	and	r24, r24
     fd4:	2c f4       	brge	.+10     	; 0xfe0 <.L78>

00000fd6 <.Loc.137>:
		__ticks = 1;
     fd6:	81 e0       	ldi	r24, 0x01	; 1
     fd8:	90 e0       	ldi	r25, 0x00	; 0
     fda:	9f 8b       	std	Y+23, r25	; 0x17
     fdc:	8e 8b       	std	Y+22, r24	; 0x16
     fde:	72 c0       	rjmp	.+228    	; 0x10c4 <.L48>

00000fe0 <.L78>:
	else if (__tmp > 65535)
     fe0:	20 e0       	ldi	r18, 0x00	; 0
     fe2:	3f ef       	ldi	r19, 0xFF	; 255
     fe4:	4f e7       	ldi	r20, 0x7F	; 127
     fe6:	57 e4       	ldi	r21, 0x47	; 71
     fe8:	6a 89       	ldd	r22, Y+18	; 0x12
     fea:	7b 89       	ldd	r23, Y+19	; 0x13
     fec:	8c 89       	ldd	r24, Y+20	; 0x14
     fee:	9d 89       	ldd	r25, Y+21	; 0x15
     ff0:	0e 94 10 24 	call	0x4820	; 0x4820 <__gesf2>
     ff4:	88 23       	and	r24, r24
     ff6:	09 f0       	breq	.+2      	; 0xffa <L0^A>

00000ff8 <L0^A>:
     ff8:	0c f4       	brge	.+2      	; 0xffc <.Loc.139>

00000ffa <L0^A>:
     ffa:	4e c0       	rjmp	.+156    	; 0x1098 <.L79>

00000ffc <.Loc.139>:
		__ticks = (uint16_t) (__ms * 10.0);
     ffc:	20 e0       	ldi	r18, 0x00	; 0
     ffe:	30 e0       	ldi	r19, 0x00	; 0
    1000:	40 e2       	ldi	r20, 0x20	; 32
    1002:	51 e4       	ldi	r21, 0x41	; 65
    1004:	6e 85       	ldd	r22, Y+14	; 0x0e
    1006:	7f 85       	ldd	r23, Y+15	; 0x0f
    1008:	88 89       	ldd	r24, Y+16	; 0x10
    100a:	99 89       	ldd	r25, Y+17	; 0x11
    100c:	0e 94 15 24 	call	0x482a	; 0x482a <__mulsf3>
    1010:	c1 56       	subi	r28, 0x61	; 97
    1012:	df 4f       	sbci	r29, 0xFF	; 255
    1014:	68 83       	st	Y, r22
    1016:	79 83       	std	Y+1, r23	; 0x01
    1018:	8a 83       	std	Y+2, r24	; 0x02
    101a:	9b 83       	std	Y+3, r25	; 0x03
    101c:	cf 59       	subi	r28, 0x9F	; 159
    101e:	d0 40       	sbci	r29, 0x00	; 0
    1020:	c1 56       	subi	r28, 0x61	; 97
    1022:	df 4f       	sbci	r29, 0xFF	; 255
    1024:	88 81       	ld	r24, Y
    1026:	99 81       	ldd	r25, Y+1	; 0x01
    1028:	aa 81       	ldd	r26, Y+2	; 0x02
    102a:	bb 81       	ldd	r27, Y+3	; 0x03
    102c:	cf 59       	subi	r28, 0x9F	; 159
    102e:	d0 40       	sbci	r29, 0x00	; 0
    1030:	63 96       	adiw	r28, 0x13	; 19
    1032:	8c af       	std	Y+60, r24	; 0x3c
    1034:	9d af       	std	Y+61, r25	; 0x3d
    1036:	ae af       	std	Y+62, r26	; 0x3e
    1038:	bf af       	std	Y+63, r27	; 0x3f
    103a:	63 97       	sbiw	r28, 0x13	; 19

0000103c <.Loc.140>:
    103c:	63 96       	adiw	r28, 0x13	; 19
    103e:	6c ad       	ldd	r22, Y+60	; 0x3c
    1040:	7d ad       	ldd	r23, Y+61	; 0x3d
    1042:	8e ad       	ldd	r24, Y+62	; 0x3e
    1044:	9f ad       	ldd	r25, Y+63	; 0x3f
    1046:	63 97       	sbiw	r28, 0x13	; 19
    1048:	0e 94 2f 23 	call	0x465e	; 0x465e <__fixunssfsi>
    104c:	cd 55       	subi	r28, 0x5D	; 93
    104e:	df 4f       	sbci	r29, 0xFF	; 255
    1050:	68 83       	st	Y, r22
    1052:	79 83       	std	Y+1, r23	; 0x01
    1054:	8a 83       	std	Y+2, r24	; 0x02
    1056:	9b 83       	std	Y+3, r25	; 0x03
    1058:	c3 5a       	subi	r28, 0xA3	; 163
    105a:	d0 40       	sbci	r29, 0x00	; 0
    105c:	cd 55       	subi	r28, 0x5D	; 93
    105e:	df 4f       	sbci	r29, 0xFF	; 255
    1060:	a8 81       	ld	r26, Y
    1062:	b9 81       	ldd	r27, Y+1	; 0x01
    1064:	c3 5a       	subi	r28, 0xA3	; 163
    1066:	d0 40       	sbci	r29, 0x00	; 0
    1068:	bf 8b       	std	Y+23, r27	; 0x17
    106a:	ae 8b       	std	Y+22, r26	; 0x16

0000106c <.Loc.141>:
		while(__ticks)
    106c:	10 c0       	rjmp	.+32     	; 0x108e <.L51>

0000106e <.L52>:
    106e:	80 e9       	ldi	r24, 0x90	; 144
    1070:	91 e0       	ldi	r25, 0x01	; 1
    1072:	99 8f       	std	Y+25, r25	; 0x19
    1074:	88 8f       	std	Y+24, r24	; 0x18

00001076 <.LBB99>:
	__asm__ volatile (
    1076:	88 8d       	ldd	r24, Y+24	; 0x18
    1078:	99 8d       	ldd	r25, Y+25	; 0x19

0000107a <.L1^B7>:
    107a:	01 97       	sbiw	r24, 0x01	; 1
    107c:	f1 f7       	brne	.-4      	; 0x107a <.L1^B7>
    107e:	99 8f       	std	Y+25, r25	; 0x19
    1080:	88 8f       	std	Y+24, r24	; 0x18

00001082 <.Loc.143>:
	...

00001084 <.LBE99>:
			__ticks --;
    1084:	8e 89       	ldd	r24, Y+22	; 0x16
    1086:	9f 89       	ldd	r25, Y+23	; 0x17
    1088:	01 97       	sbiw	r24, 0x01	; 1
    108a:	9f 8b       	std	Y+23, r25	; 0x17
    108c:	8e 8b       	std	Y+22, r24	; 0x16

0000108e <.L51>:
		while(__ticks)
    108e:	8e 89       	ldd	r24, Y+22	; 0x16
    1090:	9f 89       	ldd	r25, Y+23	; 0x17
    1092:	00 97       	sbiw	r24, 0x00	; 0
    1094:	61 f7       	brne	.-40     	; 0x106e <.L52>

00001096 <.Loc.146>:
		return;
    1096:	64 c0       	rjmp	.+200    	; 0x1160 <.L43>

00001098 <.L79>:
		__ticks = (uint16_t)__tmp;
    1098:	6a 89       	ldd	r22, Y+18	; 0x12
    109a:	7b 89       	ldd	r23, Y+19	; 0x13
    109c:	8c 89       	ldd	r24, Y+20	; 0x14
    109e:	9d 89       	ldd	r25, Y+21	; 0x15
    10a0:	0e 94 2f 23 	call	0x465e	; 0x465e <__fixunssfsi>
    10a4:	c9 55       	subi	r28, 0x59	; 89
    10a6:	df 4f       	sbci	r29, 0xFF	; 255
    10a8:	68 83       	st	Y, r22
    10aa:	79 83       	std	Y+1, r23	; 0x01
    10ac:	8a 83       	std	Y+2, r24	; 0x02
    10ae:	9b 83       	std	Y+3, r25	; 0x03
    10b0:	c7 5a       	subi	r28, 0xA7	; 167
    10b2:	d0 40       	sbci	r29, 0x00	; 0
    10b4:	c9 55       	subi	r28, 0x59	; 89
    10b6:	df 4f       	sbci	r29, 0xFF	; 255
    10b8:	e8 81       	ld	r30, Y
    10ba:	f9 81       	ldd	r31, Y+1	; 0x01
    10bc:	c7 5a       	subi	r28, 0xA7	; 167
    10be:	d0 40       	sbci	r29, 0x00	; 0
    10c0:	ff 8b       	std	Y+23, r31	; 0x17
    10c2:	ee 8b       	std	Y+22, r30	; 0x16

000010c4 <.L48>:
    10c4:	8e 89       	ldd	r24, Y+22	; 0x16
    10c6:	9f 89       	ldd	r25, Y+23	; 0x17
    10c8:	9b 8f       	std	Y+27, r25	; 0x1b
    10ca:	8a 8f       	std	Y+26, r24	; 0x1a

000010cc <.LBB101>:
    10cc:	8a 8d       	ldd	r24, Y+26	; 0x1a
    10ce:	9b 8d       	ldd	r25, Y+27	; 0x1b

000010d0 <.L1^B8>:
    10d0:	01 97       	sbiw	r24, 0x01	; 1
    10d2:	f1 f7       	brne	.-4      	; 0x10d0 <.L1^B8>
    10d4:	9b 8f       	std	Y+27, r25	; 0x1b
    10d6:	8a 8f       	std	Y+26, r24	; 0x1a

000010d8 <.Loc.149>:
}
    10d8:	43 c0       	rjmp	.+134    	; 0x1160 <.L43>

000010da <.L77>:
	else if (__tmp > 255)
    10da:	20 e0       	ldi	r18, 0x00	; 0
    10dc:	30 e0       	ldi	r19, 0x00	; 0
    10de:	4f e7       	ldi	r20, 0x7F	; 127
    10e0:	53 e4       	ldi	r21, 0x43	; 67
    10e2:	6d 81       	ldd	r22, Y+5	; 0x05
    10e4:	7e 81       	ldd	r23, Y+6	; 0x06
    10e6:	8f 81       	ldd	r24, Y+7	; 0x07
    10e8:	98 85       	ldd	r25, Y+8	; 0x08
    10ea:	0e 94 10 24 	call	0x4820	; 0x4820 <__gesf2>
    10ee:	88 23       	and	r24, r24
    10f0:	19 f1       	breq	.+70     	; 0x1138 <.L80>
    10f2:	14 f1       	brlt	.+68     	; 0x1138 <.L80>

000010f4 <.LBB103>:
		uint16_t __ticks=(uint16_t)__tmp2;
    10f4:	69 85       	ldd	r22, Y+9	; 0x09
    10f6:	7a 85       	ldd	r23, Y+10	; 0x0a
    10f8:	8b 85       	ldd	r24, Y+11	; 0x0b
    10fa:	9c 85       	ldd	r25, Y+12	; 0x0c
    10fc:	0e 94 2f 23 	call	0x465e	; 0x465e <__fixunssfsi>
    1100:	c5 55       	subi	r28, 0x55	; 85
    1102:	df 4f       	sbci	r29, 0xFF	; 255
    1104:	68 83       	st	Y, r22
    1106:	79 83       	std	Y+1, r23	; 0x01
    1108:	8a 83       	std	Y+2, r24	; 0x02
    110a:	9b 83       	std	Y+3, r25	; 0x03
    110c:	cb 5a       	subi	r28, 0xAB	; 171
    110e:	d0 40       	sbci	r29, 0x00	; 0
    1110:	c5 55       	subi	r28, 0x55	; 85
    1112:	df 4f       	sbci	r29, 0xFF	; 255
    1114:	88 81       	ld	r24, Y
    1116:	99 81       	ldd	r25, Y+1	; 0x01
    1118:	cb 5a       	subi	r28, 0xAB	; 171
    111a:	d0 40       	sbci	r29, 0x00	; 0
    111c:	9d 8f       	std	Y+29, r25	; 0x1d
    111e:	8c 8f       	std	Y+28, r24	; 0x1c
    1120:	8c 8d       	ldd	r24, Y+28	; 0x1c
    1122:	9d 8d       	ldd	r25, Y+29	; 0x1d
    1124:	9f 8f       	std	Y+31, r25	; 0x1f
    1126:	8e 8f       	std	Y+30, r24	; 0x1e

00001128 <.LBB104>:
	__asm__ volatile (
    1128:	8e 8d       	ldd	r24, Y+30	; 0x1e
    112a:	9f 8d       	ldd	r25, Y+31	; 0x1f

0000112c <.L1^B9>:
    112c:	01 97       	sbiw	r24, 0x01	; 1
    112e:	f1 f7       	brne	.-4      	; 0x112c <.L1^B9>
    1130:	9f 8f       	std	Y+31, r25	; 0x1f
    1132:	8e 8f       	std	Y+30, r24	; 0x1e

00001134 <.Loc.153>:
	...

00001136 <.LBE104>:
		return;
    1136:	1b c0       	rjmp	.+54     	; 0x116e <.L56>

00001138 <.L80>:
		__ticks = (uint8_t)__tmp;
    1138:	6d 81       	ldd	r22, Y+5	; 0x05
    113a:	7e 81       	ldd	r23, Y+6	; 0x06
    113c:	8f 81       	ldd	r24, Y+7	; 0x07
    113e:	98 85       	ldd	r25, Y+8	; 0x08
    1140:	0e 94 2f 23 	call	0x465e	; 0x465e <__fixunssfsi>
    1144:	c1 55       	subi	r28, 0x51	; 81
    1146:	df 4f       	sbci	r29, 0xFF	; 255
    1148:	68 83       	st	Y, r22
    114a:	79 83       	std	Y+1, r23	; 0x01
    114c:	8a 83       	std	Y+2, r24	; 0x02
    114e:	9b 83       	std	Y+3, r25	; 0x03
    1150:	cf 5a       	subi	r28, 0xAF	; 175
    1152:	d0 40       	sbci	r29, 0x00	; 0
    1154:	c1 55       	subi	r28, 0x51	; 81
    1156:	df 4f       	sbci	r29, 0xFF	; 255
    1158:	98 81       	ld	r25, Y
    115a:	cf 5a       	subi	r28, 0xAF	; 175
    115c:	d0 40       	sbci	r29, 0x00	; 0
    115e:	9d 87       	std	Y+13, r25	; 0x0d

00001160 <.L43>:
    1160:	8d 85       	ldd	r24, Y+13	; 0x0d
    1162:	88 a3       	std	Y+32, r24	; 0x20

00001164 <.LBB106>:
	__asm__ volatile (
    1164:	88 a1       	ldd	r24, Y+32	; 0x20

00001166 <.L1^B10>:
    1166:	8a 95       	dec	r24
    1168:	f1 f7       	brne	.-4      	; 0x1166 <.L1^B10>
    116a:	88 a3       	std	Y+32, r24	; 0x20

0000116c <.Loc.157>:
	...

0000116e <.L56>:
    _delay_us(50);//delay moet volgens datasheet

    //Bluetooth
    UBRR0H = (BRC >> 8);
    116e:	85 ec       	ldi	r24, 0xC5	; 197
    1170:	90 e0       	ldi	r25, 0x00	; 0

00001172 <.Loc.159>:
    1172:	dc 01       	movw	r26, r24
    1174:	1c 92       	st	X, r1

00001176 <.Loc.160>:
    UBRR0L = BRC;
    1176:	84 ec       	ldi	r24, 0xC4	; 196
    1178:	90 e0       	ldi	r25, 0x00	; 0

0000117a <.Loc.161>:
    117a:	27 e6       	ldi	r18, 0x67	; 103
    117c:	fc 01       	movw	r30, r24
    117e:	20 83       	st	Z, r18

00001180 <.Loc.162>:

    UCSR0B = (1 << RXEN0) |(1 << RXCIE0);
    1180:	81 ec       	ldi	r24, 0xC1	; 193
    1182:	90 e0       	ldi	r25, 0x00	; 0

00001184 <.Loc.163>:
    1184:	20 e9       	ldi	r18, 0x90	; 144
    1186:	dc 01       	movw	r26, r24
    1188:	2c 93       	st	X, r18

0000118a <.Loc.164>:
    UCSR0C = (1 << UCSZ01) | (1 << UCSZ00);
    118a:	82 ec       	ldi	r24, 0xC2	; 194
    118c:	90 e0       	ldi	r25, 0x00	; 0

0000118e <.Loc.165>:
    118e:	26 e0       	ldi	r18, 0x06	; 6
    1190:	fc 01       	movw	r30, r24
    1192:	20 83       	st	Z, r18

00001194 <.Loc.166>:

    sei();
    1194:	78 94       	sei

00001196 <.Loc.167>:
}
    1196:	00 00       	nop
    1198:	ce 54       	subi	r28, 0x4E	; 78
    119a:	df 4f       	sbci	r29, 0xFF	; 255
    119c:	0f b6       	in	r0, 0x3f	; 63
    119e:	f8 94       	cli
    11a0:	de bf       	out	0x3e, r29	; 62
    11a2:	0f be       	out	0x3f, r0	; 63
    11a4:	cd bf       	out	0x3d, r28	; 61
    11a6:	df 91       	pop	r29
    11a8:	cf 91       	pop	r28
    11aa:	1f 91       	pop	r17
    11ac:	0f 91       	pop	r16
    11ae:	08 95       	ret

000011b0 <Check_LCD_isbezig>:

void Check_LCD_isbezig(void)//wachten tot LCD informatie kan opnemen
{
    11b0:	cf 93       	push	r28
    11b2:	df 93       	push	r29
    11b4:	cd b7       	in	r28, 0x3d	; 61
    11b6:	de b7       	in	r29, 0x3e	; 62

000011b8 <.Loc.169>:
    DataDir_LCDpoort = 0;
    11b8:	87 e2       	ldi	r24, 0x27	; 39
    11ba:	90 e0       	ldi	r25, 0x00	; 0

000011bc <.Loc.170>:
    11bc:	fc 01       	movw	r30, r24
    11be:	10 82       	st	Z, r1

000011c0 <.Loc.171>:
    LCDControl |= (1 << ReadWrite);
    11c0:	8b e2       	ldi	r24, 0x2B	; 43
    11c2:	90 e0       	ldi	r25, 0x00	; 0
    11c4:	fc 01       	movw	r30, r24
    11c6:	20 81       	ld	r18, Z
    11c8:	8b e2       	ldi	r24, 0x2B	; 43
    11ca:	90 e0       	ldi	r25, 0x00	; 0

000011cc <.Loc.172>:
    11cc:	22 60       	ori	r18, 0x02	; 2
    11ce:	fc 01       	movw	r30, r24
    11d0:	20 83       	st	Z, r18

000011d2 <.Loc.173>:
    LCDControl &= ~(1 << LCDRS);
    11d2:	8b e2       	ldi	r24, 0x2B	; 43
    11d4:	90 e0       	ldi	r25, 0x00	; 0
    11d6:	fc 01       	movw	r30, r24
    11d8:	20 81       	ld	r18, Z

000011da <.Loc.174>:
    11da:	8b e2       	ldi	r24, 0x2B	; 43
    11dc:	90 e0       	ldi	r25, 0x00	; 0

000011de <.Loc.175>:
    11de:	2e 7f       	andi	r18, 0xFE	; 254
    11e0:	fc 01       	movw	r30, r24
    11e2:	20 83       	st	Z, r18

000011e4 <.Loc.176>:

    while(LCDpoort >= 0x80)
    11e4:	02 c0       	rjmp	.+4      	; 0x11ea <.L82>

000011e6 <.L83>:
    {
        LCD_Aan_Uit();
    11e6:	0e 94 04 09 	call	0x1208	; 0x1208 <LCD_Aan_Uit>

000011ea <.L82>:
    while(LCDpoort >= 0x80)
    11ea:	88 e2       	ldi	r24, 0x28	; 40
    11ec:	90 e0       	ldi	r25, 0x00	; 0
    11ee:	fc 01       	movw	r30, r24
    11f0:	80 81       	ld	r24, Z

000011f2 <.Loc.179>:
    11f2:	88 23       	and	r24, r24
    11f4:	c4 f3       	brlt	.-16     	; 0x11e6 <.L83>

000011f6 <.Loc.180>:
    }

    DataDir_LCDpoort = 0xFF;
    11f6:	87 e2       	ldi	r24, 0x27	; 39
    11f8:	90 e0       	ldi	r25, 0x00	; 0

000011fa <.Loc.181>:
    11fa:	2f ef       	ldi	r18, 0xFF	; 255
    11fc:	fc 01       	movw	r30, r24
    11fe:	20 83       	st	Z, r18

00001200 <.Loc.182>:
}
    1200:	00 00       	nop
    1202:	df 91       	pop	r29
    1204:	cf 91       	pop	r28
    1206:	08 95       	ret

00001208 <LCD_Aan_Uit>:

void LCD_Aan_Uit(void)//LCD(enable) snel aan en uit zetten
{
    1208:	cf 93       	push	r28
    120a:	df 93       	push	r29
    120c:	cd b7       	in	r28, 0x3d	; 61
    120e:	de b7       	in	r29, 0x3e	; 62
    1210:	c8 54       	subi	r28, 0x48	; 72
    1212:	d1 09       	sbc	r29, r1
    1214:	0f b6       	in	r0, 0x3f	; 63
    1216:	f8 94       	cli
    1218:	de bf       	out	0x3e, r29	; 62
    121a:	0f be       	out	0x3f, r0	; 63
    121c:	cd bf       	out	0x3d, r28	; 61

0000121e <.Loc.184>:
    LCDControl |= 1 << (LCDEnable);
    121e:	8b e2       	ldi	r24, 0x2B	; 43
    1220:	90 e0       	ldi	r25, 0x00	; 0
    1222:	dc 01       	movw	r26, r24
    1224:	2c 91       	ld	r18, X
    1226:	8b e2       	ldi	r24, 0x2B	; 43
    1228:	90 e0       	ldi	r25, 0x00	; 0

0000122a <.Loc.185>:
    122a:	24 60       	ori	r18, 0x04	; 4
    122c:	fc 01       	movw	r30, r24
    122e:	20 83       	st	Z, r18
    1230:	80 e0       	ldi	r24, 0x00	; 0
    1232:	90 e0       	ldi	r25, 0x00	; 0
    1234:	a8 e4       	ldi	r26, 0x48	; 72
    1236:	b2 e4       	ldi	r27, 0x42	; 66
    1238:	89 83       	std	Y+1, r24	; 0x01
    123a:	9a 83       	std	Y+2, r25	; 0x02
    123c:	ab 83       	std	Y+3, r26	; 0x03
    123e:	bc 83       	std	Y+4, r27	; 0x04

00001240 <.LBB108>:
	__tmp = ((F_CPU) / 3e6) * __us;
    1240:	2b ea       	ldi	r18, 0xAB	; 171
    1242:	3a ea       	ldi	r19, 0xAA	; 170
    1244:	4a ea       	ldi	r20, 0xAA	; 170
    1246:	50 e4       	ldi	r21, 0x40	; 64
    1248:	69 81       	ldd	r22, Y+1	; 0x01
    124a:	7a 81       	ldd	r23, Y+2	; 0x02
    124c:	8b 81       	ldd	r24, Y+3	; 0x03
    124e:	9c 81       	ldd	r25, Y+4	; 0x04
    1250:	0e 94 15 24 	call	0x482a	; 0x482a <__mulsf3>
    1254:	6d a3       	std	Y+37, r22	; 0x25
    1256:	7e a3       	std	Y+38, r23	; 0x26
    1258:	8f a3       	std	Y+39, r24	; 0x27
    125a:	98 a7       	std	Y+40, r25	; 0x28
    125c:	8d a1       	ldd	r24, Y+37	; 0x25
    125e:	9e a1       	ldd	r25, Y+38	; 0x26
    1260:	af a1       	ldd	r26, Y+39	; 0x27
    1262:	b8 a5       	ldd	r27, Y+40	; 0x28
    1264:	8d 83       	std	Y+5, r24	; 0x05
    1266:	9e 83       	std	Y+6, r25	; 0x06
    1268:	af 83       	std	Y+7, r26	; 0x07
    126a:	b8 87       	std	Y+8, r27	; 0x08

0000126c <.Loc.187>:
	__tmp2 = ((F_CPU) / 4e6) * __us;
    126c:	20 e0       	ldi	r18, 0x00	; 0
    126e:	30 e0       	ldi	r19, 0x00	; 0
    1270:	40 e8       	ldi	r20, 0x80	; 128
    1272:	50 e4       	ldi	r21, 0x40	; 64
    1274:	69 81       	ldd	r22, Y+1	; 0x01
    1276:	7a 81       	ldd	r23, Y+2	; 0x02
    1278:	8b 81       	ldd	r24, Y+3	; 0x03
    127a:	9c 81       	ldd	r25, Y+4	; 0x04
    127c:	0e 94 15 24 	call	0x482a	; 0x482a <__mulsf3>
    1280:	69 a7       	std	Y+41, r22	; 0x29
    1282:	7a a7       	std	Y+42, r23	; 0x2a
    1284:	8b a7       	std	Y+43, r24	; 0x2b
    1286:	9c a7       	std	Y+44, r25	; 0x2c
    1288:	89 a5       	ldd	r24, Y+41	; 0x29
    128a:	9a a5       	ldd	r25, Y+42	; 0x2a
    128c:	ab a5       	ldd	r26, Y+43	; 0x2b
    128e:	bc a5       	ldd	r27, Y+44	; 0x2c
    1290:	89 87       	std	Y+9, r24	; 0x09
    1292:	9a 87       	std	Y+10, r25	; 0x0a
    1294:	ab 87       	std	Y+11, r26	; 0x0b
    1296:	bc 87       	std	Y+12, r27	; 0x0c

00001298 <.Loc.188>:
	if (__tmp < 1.0)
    1298:	20 e0       	ldi	r18, 0x00	; 0
    129a:	30 e0       	ldi	r19, 0x00	; 0
    129c:	40 e8       	ldi	r20, 0x80	; 128
    129e:	5f e3       	ldi	r21, 0x3F	; 63
    12a0:	6d 81       	ldd	r22, Y+5	; 0x05
    12a2:	7e 81       	ldd	r23, Y+6	; 0x06
    12a4:	8f 81       	ldd	r24, Y+7	; 0x07
    12a6:	98 85       	ldd	r25, Y+8	; 0x08
    12a8:	0e 94 b8 22 	call	0x4570	; 0x4570 <__cmpsf2>
    12ac:	88 23       	and	r24, r24
    12ae:	1c f4       	brge	.+6      	; 0x12b6 <.L106>

000012b0 <.Loc.189>:
		__ticks = 1;
    12b0:	81 e0       	ldi	r24, 0x01	; 1
    12b2:	8d 87       	std	Y+13, r24	; 0x0d
    12b4:	e8 c0       	rjmp	.+464    	; 0x1486 <.L87>

000012b6 <.L106>:
	else if (__tmp2 > 65535)
    12b6:	20 e0       	ldi	r18, 0x00	; 0
    12b8:	3f ef       	ldi	r19, 0xFF	; 255
    12ba:	4f e7       	ldi	r20, 0x7F	; 127
    12bc:	57 e4       	ldi	r21, 0x47	; 71
    12be:	69 85       	ldd	r22, Y+9	; 0x09
    12c0:	7a 85       	ldd	r23, Y+10	; 0x0a
    12c2:	8b 85       	ldd	r24, Y+11	; 0x0b
    12c4:	9c 85       	ldd	r25, Y+12	; 0x0c
    12c6:	0e 94 10 24 	call	0x4820	; 0x4820 <__gesf2>
    12ca:	88 23       	and	r24, r24
    12cc:	09 f0       	breq	.+2      	; 0x12d0 <L0^A>

000012ce <L0^A>:
    12ce:	0c f4       	brge	.+2      	; 0x12d2 <.Loc.191>

000012d0 <L0^A>:
    12d0:	9f c0       	rjmp	.+318    	; 0x1410 <.L107>

000012d2 <.Loc.191>:
		_delay_ms(__us / 1000.0);
    12d2:	20 e0       	ldi	r18, 0x00	; 0
    12d4:	30 e0       	ldi	r19, 0x00	; 0
    12d6:	4a e7       	ldi	r20, 0x7A	; 122
    12d8:	54 e4       	ldi	r21, 0x44	; 68
    12da:	69 81       	ldd	r22, Y+1	; 0x01
    12dc:	7a 81       	ldd	r23, Y+2	; 0x02
    12de:	8b 81       	ldd	r24, Y+3	; 0x03
    12e0:	9c 81       	ldd	r25, Y+4	; 0x04
    12e2:	0e 94 bd 22 	call	0x457a	; 0x457a <__divsf3>
    12e6:	6d a7       	std	Y+45, r22	; 0x2d
    12e8:	7e a7       	std	Y+46, r23	; 0x2e
    12ea:	8f a7       	std	Y+47, r24	; 0x2f
    12ec:	98 ab       	std	Y+48, r25	; 0x30
    12ee:	8d a5       	ldd	r24, Y+45	; 0x2d
    12f0:	9e a5       	ldd	r25, Y+46	; 0x2e
    12f2:	af a5       	ldd	r26, Y+47	; 0x2f
    12f4:	b8 a9       	ldd	r27, Y+48	; 0x30
    12f6:	8e 87       	std	Y+14, r24	; 0x0e
    12f8:	9f 87       	std	Y+15, r25	; 0x0f
    12fa:	a8 8b       	std	Y+16, r26	; 0x10
    12fc:	b9 8b       	std	Y+17, r27	; 0x11

000012fe <.LBB110>:
	__tmp = ((F_CPU) / 4e3) * __ms;
    12fe:	20 e0       	ldi	r18, 0x00	; 0
    1300:	30 e0       	ldi	r19, 0x00	; 0
    1302:	4a e7       	ldi	r20, 0x7A	; 122
    1304:	55 e4       	ldi	r21, 0x45	; 69
    1306:	6e 85       	ldd	r22, Y+14	; 0x0e
    1308:	7f 85       	ldd	r23, Y+15	; 0x0f
    130a:	88 89       	ldd	r24, Y+16	; 0x10
    130c:	99 89       	ldd	r25, Y+17	; 0x11
    130e:	0e 94 15 24 	call	0x482a	; 0x482a <__mulsf3>
    1312:	69 ab       	std	Y+49, r22	; 0x31
    1314:	7a ab       	std	Y+50, r23	; 0x32
    1316:	8b ab       	std	Y+51, r24	; 0x33
    1318:	9c ab       	std	Y+52, r25	; 0x34
    131a:	89 a9       	ldd	r24, Y+49	; 0x31
    131c:	9a a9       	ldd	r25, Y+50	; 0x32
    131e:	ab a9       	ldd	r26, Y+51	; 0x33
    1320:	bc a9       	ldd	r27, Y+52	; 0x34
    1322:	8a 8b       	std	Y+18, r24	; 0x12
    1324:	9b 8b       	std	Y+19, r25	; 0x13
    1326:	ac 8b       	std	Y+20, r26	; 0x14
    1328:	bd 8b       	std	Y+21, r27	; 0x15

0000132a <.Loc.193>:
	if (__tmp < 1.0)
    132a:	20 e0       	ldi	r18, 0x00	; 0
    132c:	30 e0       	ldi	r19, 0x00	; 0
    132e:	40 e8       	ldi	r20, 0x80	; 128
    1330:	5f e3       	ldi	r21, 0x3F	; 63
    1332:	6a 89       	ldd	r22, Y+18	; 0x12
    1334:	7b 89       	ldd	r23, Y+19	; 0x13
    1336:	8c 89       	ldd	r24, Y+20	; 0x14
    1338:	9d 89       	ldd	r25, Y+21	; 0x15
    133a:	0e 94 b8 22 	call	0x4570	; 0x4570 <__cmpsf2>
    133e:	88 23       	and	r24, r24
    1340:	2c f4       	brge	.+10     	; 0x134c <.L108>

00001342 <.Loc.194>:
		__ticks = 1;
    1342:	81 e0       	ldi	r24, 0x01	; 1
    1344:	90 e0       	ldi	r25, 0x00	; 0
    1346:	9f 8b       	std	Y+23, r25	; 0x17
    1348:	8e 8b       	std	Y+22, r24	; 0x16
    134a:	57 c0       	rjmp	.+174    	; 0x13fa <.L92>

0000134c <.L108>:
	else if (__tmp > 65535)
    134c:	20 e0       	ldi	r18, 0x00	; 0
    134e:	3f ef       	ldi	r19, 0xFF	; 255
    1350:	4f e7       	ldi	r20, 0x7F	; 127
    1352:	57 e4       	ldi	r21, 0x47	; 71
    1354:	6a 89       	ldd	r22, Y+18	; 0x12
    1356:	7b 89       	ldd	r23, Y+19	; 0x13
    1358:	8c 89       	ldd	r24, Y+20	; 0x14
    135a:	9d 89       	ldd	r25, Y+21	; 0x15
    135c:	0e 94 10 24 	call	0x4820	; 0x4820 <__gesf2>
    1360:	88 23       	and	r24, r24
    1362:	d9 f1       	breq	.+118    	; 0x13da <.L109>
    1364:	d4 f1       	brlt	.+116    	; 0x13da <.L109>

00001366 <.Loc.196>:
		__ticks = (uint16_t) (__ms * 10.0);
    1366:	20 e0       	ldi	r18, 0x00	; 0
    1368:	30 e0       	ldi	r19, 0x00	; 0
    136a:	40 e2       	ldi	r20, 0x20	; 32
    136c:	51 e4       	ldi	r21, 0x41	; 65
    136e:	6e 85       	ldd	r22, Y+14	; 0x0e
    1370:	7f 85       	ldd	r23, Y+15	; 0x0f
    1372:	88 89       	ldd	r24, Y+16	; 0x10
    1374:	99 89       	ldd	r25, Y+17	; 0x11
    1376:	0e 94 15 24 	call	0x482a	; 0x482a <__mulsf3>
    137a:	6d ab       	std	Y+53, r22	; 0x35
    137c:	7e ab       	std	Y+54, r23	; 0x36
    137e:	8f ab       	std	Y+55, r24	; 0x37
    1380:	98 af       	std	Y+56, r25	; 0x38
    1382:	8d a9       	ldd	r24, Y+53	; 0x35
    1384:	9e a9       	ldd	r25, Y+54	; 0x36
    1386:	af a9       	ldd	r26, Y+55	; 0x37
    1388:	b8 ad       	ldd	r27, Y+56	; 0x38
    138a:	89 a3       	std	Y+33, r24	; 0x21
    138c:	9a a3       	std	Y+34, r25	; 0x22
    138e:	ab a3       	std	Y+35, r26	; 0x23
    1390:	bc a3       	std	Y+36, r27	; 0x24

00001392 <.Loc.197>:
    1392:	69 a1       	ldd	r22, Y+33	; 0x21
    1394:	7a a1       	ldd	r23, Y+34	; 0x22
    1396:	8b a1       	ldd	r24, Y+35	; 0x23
    1398:	9c a1       	ldd	r25, Y+36	; 0x24
    139a:	0e 94 2f 23 	call	0x465e	; 0x465e <__fixunssfsi>
    139e:	69 af       	std	Y+57, r22	; 0x39
    13a0:	7a af       	std	Y+58, r23	; 0x3a
    13a2:	8b af       	std	Y+59, r24	; 0x3b
    13a4:	9c af       	std	Y+60, r25	; 0x3c
    13a6:	a9 ad       	ldd	r26, Y+57	; 0x39
    13a8:	ba ad       	ldd	r27, Y+58	; 0x3a
    13aa:	bf 8b       	std	Y+23, r27	; 0x17
    13ac:	ae 8b       	std	Y+22, r26	; 0x16

000013ae <.Loc.198>:
		while(__ticks)
    13ae:	10 c0       	rjmp	.+32     	; 0x13d0 <.L95>

000013b0 <.L96>:
    13b0:	80 e9       	ldi	r24, 0x90	; 144
    13b2:	91 e0       	ldi	r25, 0x01	; 1
    13b4:	99 8f       	std	Y+25, r25	; 0x19
    13b6:	88 8f       	std	Y+24, r24	; 0x18

000013b8 <.LBB112>:
	__asm__ volatile (
    13b8:	88 8d       	ldd	r24, Y+24	; 0x18
    13ba:	99 8d       	ldd	r25, Y+25	; 0x19

000013bc <.L1^B11>:
    13bc:	01 97       	sbiw	r24, 0x01	; 1
    13be:	f1 f7       	brne	.-4      	; 0x13bc <.L1^B11>
    13c0:	99 8f       	std	Y+25, r25	; 0x19
    13c2:	88 8f       	std	Y+24, r24	; 0x18

000013c4 <.Loc.200>:
	...

000013c6 <.LBE112>:
			__ticks --;
    13c6:	8e 89       	ldd	r24, Y+22	; 0x16
    13c8:	9f 89       	ldd	r25, Y+23	; 0x17
    13ca:	01 97       	sbiw	r24, 0x01	; 1
    13cc:	9f 8b       	std	Y+23, r25	; 0x17
    13ce:	8e 8b       	std	Y+22, r24	; 0x16

000013d0 <.L95>:
		while(__ticks)
    13d0:	8e 89       	ldd	r24, Y+22	; 0x16
    13d2:	9f 89       	ldd	r25, Y+23	; 0x17
    13d4:	00 97       	sbiw	r24, 0x00	; 0
    13d6:	61 f7       	brne	.-40     	; 0x13b0 <.L96>

000013d8 <.Loc.203>:
		return;
    13d8:	56 c0       	rjmp	.+172    	; 0x1486 <.L87>

000013da <.L109>:
		__ticks = (uint16_t)__tmp;
    13da:	6a 89       	ldd	r22, Y+18	; 0x12
    13dc:	7b 89       	ldd	r23, Y+19	; 0x13
    13de:	8c 89       	ldd	r24, Y+20	; 0x14
    13e0:	9d 89       	ldd	r25, Y+21	; 0x15
    13e2:	0e 94 2f 23 	call	0x465e	; 0x465e <__fixunssfsi>
    13e6:	21 96       	adiw	r28, 0x01	; 1
    13e8:	6c af       	std	Y+60, r22	; 0x3c
    13ea:	7d af       	std	Y+61, r23	; 0x3d
    13ec:	8e af       	std	Y+62, r24	; 0x3e
    13ee:	9f af       	std	Y+63, r25	; 0x3f
    13f0:	21 97       	sbiw	r28, 0x01	; 1
    13f2:	ed ad       	ldd	r30, Y+61	; 0x3d
    13f4:	fe ad       	ldd	r31, Y+62	; 0x3e
    13f6:	ff 8b       	std	Y+23, r31	; 0x17
    13f8:	ee 8b       	std	Y+22, r30	; 0x16

000013fa <.L92>:
    13fa:	8e 89       	ldd	r24, Y+22	; 0x16
    13fc:	9f 89       	ldd	r25, Y+23	; 0x17
    13fe:	9b 8f       	std	Y+27, r25	; 0x1b
    1400:	8a 8f       	std	Y+26, r24	; 0x1a

00001402 <.LBB114>:
    1402:	8a 8d       	ldd	r24, Y+26	; 0x1a
    1404:	9b 8d       	ldd	r25, Y+27	; 0x1b

00001406 <.L1^B12>:
    1406:	01 97       	sbiw	r24, 0x01	; 1
    1408:	f1 f7       	brne	.-4      	; 0x1406 <.L1^B12>
    140a:	9b 8f       	std	Y+27, r25	; 0x1b
    140c:	8a 8f       	std	Y+26, r24	; 0x1a

0000140e <.Loc.206>:
}
    140e:	3b c0       	rjmp	.+118    	; 0x1486 <.L87>

00001410 <.L107>:
	else if (__tmp > 255)
    1410:	20 e0       	ldi	r18, 0x00	; 0
    1412:	30 e0       	ldi	r19, 0x00	; 0
    1414:	4f e7       	ldi	r20, 0x7F	; 127
    1416:	53 e4       	ldi	r21, 0x43	; 67
    1418:	6d 81       	ldd	r22, Y+5	; 0x05
    141a:	7e 81       	ldd	r23, Y+6	; 0x06
    141c:	8f 81       	ldd	r24, Y+7	; 0x07
    141e:	98 85       	ldd	r25, Y+8	; 0x08
    1420:	0e 94 10 24 	call	0x4820	; 0x4820 <__gesf2>
    1424:	88 23       	and	r24, r24
    1426:	f9 f0       	breq	.+62     	; 0x1466 <.L110>
    1428:	f4 f0       	brlt	.+60     	; 0x1466 <.L110>

0000142a <.LBB116>:
		uint16_t __ticks=(uint16_t)__tmp2;
    142a:	69 85       	ldd	r22, Y+9	; 0x09
    142c:	7a 85       	ldd	r23, Y+10	; 0x0a
    142e:	8b 85       	ldd	r24, Y+11	; 0x0b
    1430:	9c 85       	ldd	r25, Y+12	; 0x0c
    1432:	0e 94 2f 23 	call	0x465e	; 0x465e <__fixunssfsi>
    1436:	25 96       	adiw	r28, 0x05	; 5
    1438:	6c af       	std	Y+60, r22	; 0x3c
    143a:	7d af       	std	Y+61, r23	; 0x3d
    143c:	8e af       	std	Y+62, r24	; 0x3e
    143e:	9f af       	std	Y+63, r25	; 0x3f
    1440:	25 97       	sbiw	r28, 0x05	; 5
    1442:	23 96       	adiw	r28, 0x03	; 3
    1444:	8e ad       	ldd	r24, Y+62	; 0x3e
    1446:	9f ad       	ldd	r25, Y+63	; 0x3f
    1448:	23 97       	sbiw	r28, 0x03	; 3
    144a:	9d 8f       	std	Y+29, r25	; 0x1d
    144c:	8c 8f       	std	Y+28, r24	; 0x1c
    144e:	8c 8d       	ldd	r24, Y+28	; 0x1c
    1450:	9d 8d       	ldd	r25, Y+29	; 0x1d
    1452:	9f 8f       	std	Y+31, r25	; 0x1f
    1454:	8e 8f       	std	Y+30, r24	; 0x1e

00001456 <.LBB117>:
	__asm__ volatile (
    1456:	8e 8d       	ldd	r24, Y+30	; 0x1e
    1458:	9f 8d       	ldd	r25, Y+31	; 0x1f

0000145a <.L1^B13>:
    145a:	01 97       	sbiw	r24, 0x01	; 1
    145c:	f1 f7       	brne	.-4      	; 0x145a <.L1^B13>
    145e:	9f 8f       	std	Y+31, r25	; 0x1f
    1460:	8e 8f       	std	Y+30, r24	; 0x1e

00001462 <.Loc.210>:
	...

00001464 <.LBE117>:
		return;
    1464:	17 c0       	rjmp	.+46     	; 0x1494 <.L100>

00001466 <.L110>:
		__ticks = (uint8_t)__tmp;
    1466:	6d 81       	ldd	r22, Y+5	; 0x05
    1468:	7e 81       	ldd	r23, Y+6	; 0x06
    146a:	8f 81       	ldd	r24, Y+7	; 0x07
    146c:	98 85       	ldd	r25, Y+8	; 0x08
    146e:	0e 94 2f 23 	call	0x465e	; 0x465e <__fixunssfsi>
    1472:	29 96       	adiw	r28, 0x09	; 9
    1474:	6c af       	std	Y+60, r22	; 0x3c
    1476:	7d af       	std	Y+61, r23	; 0x3d
    1478:	8e af       	std	Y+62, r24	; 0x3e
    147a:	9f af       	std	Y+63, r25	; 0x3f
    147c:	29 97       	sbiw	r28, 0x09	; 9
    147e:	26 96       	adiw	r28, 0x06	; 6
    1480:	9f ad       	ldd	r25, Y+63	; 0x3f
    1482:	26 97       	sbiw	r28, 0x06	; 6
    1484:	9d 87       	std	Y+13, r25	; 0x0d

00001486 <.L87>:
    1486:	8d 85       	ldd	r24, Y+13	; 0x0d
    1488:	88 a3       	std	Y+32, r24	; 0x20

0000148a <.LBB119>:
	__asm__ volatile (
    148a:	88 a1       	ldd	r24, Y+32	; 0x20

0000148c <.L1^B14>:
    148c:	8a 95       	dec	r24
    148e:	f1 f7       	brne	.-4      	; 0x148c <.L1^B14>
    1490:	88 a3       	std	Y+32, r24	; 0x20

00001492 <.Loc.214>:
	...

00001494 <.L100>:
    _delay_us(50);
    LCDControl &= ~(1 << LCDEnable);
    1494:	8b e2       	ldi	r24, 0x2B	; 43
    1496:	90 e0       	ldi	r25, 0x00	; 0
    1498:	dc 01       	movw	r26, r24
    149a:	2c 91       	ld	r18, X

0000149c <.Loc.216>:
    149c:	8b e2       	ldi	r24, 0x2B	; 43
    149e:	90 e0       	ldi	r25, 0x00	; 0

000014a0 <.Loc.217>:
    14a0:	2b 7f       	andi	r18, 0xFB	; 251
    14a2:	fc 01       	movw	r30, r24
    14a4:	20 83       	st	Z, r18

000014a6 <.Loc.218>:
}
    14a6:	00 00       	nop
    14a8:	c8 5b       	subi	r28, 0xB8	; 184
    14aa:	df 4f       	sbci	r29, 0xFF	; 255
    14ac:	0f b6       	in	r0, 0x3f	; 63
    14ae:	f8 94       	cli
    14b0:	de bf       	out	0x3e, r29	; 62
    14b2:	0f be       	out	0x3f, r0	; 63
    14b4:	cd bf       	out	0x3d, r28	; 61
    14b6:	df 91       	pop	r29
    14b8:	cf 91       	pop	r28
    14ba:	08 95       	ret

000014bc <Stuur_LCD_Opdracht>:

void Stuur_LCD_Opdracht(unsigned char LCD_opdracht)//opdracht naar de LCD sturen
{
    14bc:	cf 93       	push	r28
    14be:	df 93       	push	r29
    14c0:	0f 92       	push	r0
    14c2:	cd b7       	in	r28, 0x3d	; 61
    14c4:	de b7       	in	r29, 0x3e	; 62
    14c6:	89 83       	std	Y+1, r24	; 0x01

000014c8 <.Loc.220>:
    Check_LCD_isbezig();
    14c8:	0e 94 d8 08 	call	0x11b0	; 0x11b0 <Check_LCD_isbezig>

000014cc <.Loc.221>:
    LCDpoort = LCD_opdracht;
    14cc:	88 e2       	ldi	r24, 0x28	; 40
    14ce:	90 e0       	ldi	r25, 0x00	; 0

000014d0 <.Loc.222>:
    14d0:	29 81       	ldd	r18, Y+1	; 0x01
    14d2:	fc 01       	movw	r30, r24
    14d4:	20 83       	st	Z, r18

000014d6 <.Loc.223>:
    LCDControl &= ~((1 << ReadWrite) | (1 << LCDRS));
    14d6:	8b e2       	ldi	r24, 0x2B	; 43
    14d8:	90 e0       	ldi	r25, 0x00	; 0
    14da:	fc 01       	movw	r30, r24
    14dc:	20 81       	ld	r18, Z

000014de <.Loc.224>:
    14de:	8b e2       	ldi	r24, 0x2B	; 43
    14e0:	90 e0       	ldi	r25, 0x00	; 0

000014e2 <.Loc.225>:
    14e2:	2c 7f       	andi	r18, 0xFC	; 252
    14e4:	fc 01       	movw	r30, r24
    14e6:	20 83       	st	Z, r18

000014e8 <.Loc.226>:
    LCD_Aan_Uit();
    14e8:	0e 94 04 09 	call	0x1208	; 0x1208 <LCD_Aan_Uit>

000014ec <.Loc.227>:
    LCDpoort = 0;
    14ec:	88 e2       	ldi	r24, 0x28	; 40
    14ee:	90 e0       	ldi	r25, 0x00	; 0

000014f0 <.Loc.228>:
    14f0:	fc 01       	movw	r30, r24
    14f2:	10 82       	st	Z, r1

000014f4 <.Loc.229>:
}
    14f4:	00 00       	nop
    14f6:	0f 90       	pop	r0
    14f8:	df 91       	pop	r29
    14fa:	cf 91       	pop	r28
    14fc:	08 95       	ret

000014fe <Stuur_LCD_Character>:

void Stuur_LCD_Character(unsigned char LCD_character)//character naar de LCD sturen
{
    14fe:	cf 93       	push	r28
    1500:	df 93       	push	r29
    1502:	cd b7       	in	r28, 0x3d	; 61
    1504:	de b7       	in	r29, 0x3e	; 62
    1506:	a3 97       	sbiw	r28, 0x23	; 35
    1508:	0f b6       	in	r0, 0x3f	; 63
    150a:	f8 94       	cli
    150c:	de bf       	out	0x3e, r29	; 62
    150e:	0f be       	out	0x3f, r0	; 63
    1510:	cd bf       	out	0x3d, r28	; 61
    1512:	8f 87       	std	Y+15, r24	; 0x0f

00001514 <.Loc.231>:
    Check_LCD_isbezig();
    1514:	0e 94 d8 08 	call	0x11b0	; 0x11b0 <Check_LCD_isbezig>

00001518 <.Loc.232>:
    LCDpoort = LCD_character;
    1518:	88 e2       	ldi	r24, 0x28	; 40
    151a:	90 e0       	ldi	r25, 0x00	; 0

0000151c <.Loc.233>:
    151c:	2f 85       	ldd	r18, Y+15	; 0x0f
    151e:	dc 01       	movw	r26, r24
    1520:	2c 93       	st	X, r18

00001522 <.Loc.234>:
    LCDControl &= ~(1 << ReadWrite);
    1522:	8b e2       	ldi	r24, 0x2B	; 43
    1524:	90 e0       	ldi	r25, 0x00	; 0
    1526:	fc 01       	movw	r30, r24
    1528:	20 81       	ld	r18, Z

0000152a <.Loc.235>:
    152a:	8b e2       	ldi	r24, 0x2B	; 43
    152c:	90 e0       	ldi	r25, 0x00	; 0

0000152e <.Loc.236>:
    152e:	2d 7f       	andi	r18, 0xFD	; 253
    1530:	dc 01       	movw	r26, r24
    1532:	2c 93       	st	X, r18

00001534 <.Loc.237>:
    LCDControl |= (1 << LCDRS);
    1534:	8b e2       	ldi	r24, 0x2B	; 43
    1536:	90 e0       	ldi	r25, 0x00	; 0
    1538:	fc 01       	movw	r30, r24
    153a:	20 81       	ld	r18, Z
    153c:	8b e2       	ldi	r24, 0x2B	; 43
    153e:	90 e0       	ldi	r25, 0x00	; 0

00001540 <.Loc.238>:
    1540:	21 60       	ori	r18, 0x01	; 1
    1542:	dc 01       	movw	r26, r24
    1544:	2c 93       	st	X, r18

00001546 <.Loc.239>:
    LCD_Aan_Uit();
    1546:	0e 94 04 09 	call	0x1208	; 0x1208 <LCD_Aan_Uit>

0000154a <.Loc.240>:
    LCDpoort = 0;
    154a:	88 e2       	ldi	r24, 0x28	; 40
    154c:	90 e0       	ldi	r25, 0x00	; 0

0000154e <.Loc.241>:
    154e:	fc 01       	movw	r30, r24
    1550:	10 82       	st	Z, r1
    1552:	80 e0       	ldi	r24, 0x00	; 0
    1554:	90 e0       	ldi	r25, 0x00	; 0
    1556:	a0 e2       	ldi	r26, 0x20	; 32
    1558:	b1 e4       	ldi	r27, 0x41	; 65
    155a:	89 83       	std	Y+1, r24	; 0x01
    155c:	9a 83       	std	Y+2, r25	; 0x02
    155e:	ab 83       	std	Y+3, r26	; 0x03
    1560:	bc 83       	std	Y+4, r27	; 0x04

00001562 <.LBB121>:
	__tmp = ((F_CPU) / 4e3) * __ms;
    1562:	20 e0       	ldi	r18, 0x00	; 0
    1564:	30 e0       	ldi	r19, 0x00	; 0
    1566:	4a e7       	ldi	r20, 0x7A	; 122
    1568:	55 e4       	ldi	r21, 0x45	; 69
    156a:	69 81       	ldd	r22, Y+1	; 0x01
    156c:	7a 81       	ldd	r23, Y+2	; 0x02
    156e:	8b 81       	ldd	r24, Y+3	; 0x03
    1570:	9c 81       	ldd	r25, Y+4	; 0x04
    1572:	0e 94 15 24 	call	0x482a	; 0x482a <__mulsf3>
    1576:	6c 8b       	std	Y+20, r22	; 0x14
    1578:	7d 8b       	std	Y+21, r23	; 0x15
    157a:	8e 8b       	std	Y+22, r24	; 0x16
    157c:	9f 8b       	std	Y+23, r25	; 0x17
    157e:	8c 89       	ldd	r24, Y+20	; 0x14
    1580:	9d 89       	ldd	r25, Y+21	; 0x15
    1582:	ae 89       	ldd	r26, Y+22	; 0x16
    1584:	bf 89       	ldd	r27, Y+23	; 0x17
    1586:	8d 83       	std	Y+5, r24	; 0x05
    1588:	9e 83       	std	Y+6, r25	; 0x06
    158a:	af 83       	std	Y+7, r26	; 0x07
    158c:	b8 87       	std	Y+8, r27	; 0x08

0000158e <.Loc.243>:
	if (__tmp < 1.0)
    158e:	20 e0       	ldi	r18, 0x00	; 0
    1590:	30 e0       	ldi	r19, 0x00	; 0
    1592:	40 e8       	ldi	r20, 0x80	; 128
    1594:	5f e3       	ldi	r21, 0x3F	; 63
    1596:	6d 81       	ldd	r22, Y+5	; 0x05
    1598:	7e 81       	ldd	r23, Y+6	; 0x06
    159a:	8f 81       	ldd	r24, Y+7	; 0x07
    159c:	98 85       	ldd	r25, Y+8	; 0x08
    159e:	0e 94 b8 22 	call	0x4570	; 0x4570 <__cmpsf2>
    15a2:	88 23       	and	r24, r24
    15a4:	2c f4       	brge	.+10     	; 0x15b0 <.L123>

000015a6 <.Loc.244>:
		__ticks = 1;
    15a6:	81 e0       	ldi	r24, 0x01	; 1
    15a8:	90 e0       	ldi	r25, 0x00	; 0
    15aa:	9a 87       	std	Y+10, r25	; 0x0a
    15ac:	89 87       	std	Y+9, r24	; 0x09
    15ae:	55 c0       	rjmp	.+170    	; 0x165a <.L115>

000015b0 <.L123>:
	else if (__tmp > 65535)
    15b0:	20 e0       	ldi	r18, 0x00	; 0
    15b2:	3f ef       	ldi	r19, 0xFF	; 255
    15b4:	4f e7       	ldi	r20, 0x7F	; 127
    15b6:	57 e4       	ldi	r21, 0x47	; 71
    15b8:	6d 81       	ldd	r22, Y+5	; 0x05
    15ba:	7e 81       	ldd	r23, Y+6	; 0x06
    15bc:	8f 81       	ldd	r24, Y+7	; 0x07
    15be:	98 85       	ldd	r25, Y+8	; 0x08
    15c0:	0e 94 10 24 	call	0x4820	; 0x4820 <__gesf2>
    15c4:	88 23       	and	r24, r24
    15c6:	d9 f1       	breq	.+118    	; 0x163e <.L124>
    15c8:	d4 f1       	brlt	.+116    	; 0x163e <.L124>

000015ca <.Loc.246>:
		__ticks = (uint16_t) (__ms * 10.0);
    15ca:	20 e0       	ldi	r18, 0x00	; 0
    15cc:	30 e0       	ldi	r19, 0x00	; 0
    15ce:	40 e2       	ldi	r20, 0x20	; 32
    15d0:	51 e4       	ldi	r21, 0x41	; 65
    15d2:	69 81       	ldd	r22, Y+1	; 0x01
    15d4:	7a 81       	ldd	r23, Y+2	; 0x02
    15d6:	8b 81       	ldd	r24, Y+3	; 0x03
    15d8:	9c 81       	ldd	r25, Y+4	; 0x04
    15da:	0e 94 15 24 	call	0x482a	; 0x482a <__mulsf3>
    15de:	68 8f       	std	Y+24, r22	; 0x18
    15e0:	79 8f       	std	Y+25, r23	; 0x19
    15e2:	8a 8f       	std	Y+26, r24	; 0x1a
    15e4:	9b 8f       	std	Y+27, r25	; 0x1b
    15e6:	88 8d       	ldd	r24, Y+24	; 0x18
    15e8:	99 8d       	ldd	r25, Y+25	; 0x19
    15ea:	aa 8d       	ldd	r26, Y+26	; 0x1a
    15ec:	bb 8d       	ldd	r27, Y+27	; 0x1b
    15ee:	88 8b       	std	Y+16, r24	; 0x10
    15f0:	99 8b       	std	Y+17, r25	; 0x11
    15f2:	aa 8b       	std	Y+18, r26	; 0x12
    15f4:	bb 8b       	std	Y+19, r27	; 0x13

000015f6 <.Loc.247>:
    15f6:	68 89       	ldd	r22, Y+16	; 0x10
    15f8:	79 89       	ldd	r23, Y+17	; 0x11
    15fa:	8a 89       	ldd	r24, Y+18	; 0x12
    15fc:	9b 89       	ldd	r25, Y+19	; 0x13
    15fe:	0e 94 2f 23 	call	0x465e	; 0x465e <__fixunssfsi>
    1602:	6c 8f       	std	Y+28, r22	; 0x1c
    1604:	7d 8f       	std	Y+29, r23	; 0x1d
    1606:	8e 8f       	std	Y+30, r24	; 0x1e
    1608:	9f 8f       	std	Y+31, r25	; 0x1f
    160a:	ac 8d       	ldd	r26, Y+28	; 0x1c
    160c:	bd 8d       	ldd	r27, Y+29	; 0x1d
    160e:	ba 87       	std	Y+10, r27	; 0x0a
    1610:	a9 87       	std	Y+9, r26	; 0x09

00001612 <.Loc.248>:
		while(__ticks)
    1612:	10 c0       	rjmp	.+32     	; 0x1634 <.L118>

00001614 <.L119>:
    1614:	80 e9       	ldi	r24, 0x90	; 144
    1616:	91 e0       	ldi	r25, 0x01	; 1
    1618:	9c 87       	std	Y+12, r25	; 0x0c
    161a:	8b 87       	std	Y+11, r24	; 0x0b

0000161c <.LBB123>:
	__asm__ volatile (
    161c:	8b 85       	ldd	r24, Y+11	; 0x0b
    161e:	9c 85       	ldd	r25, Y+12	; 0x0c

00001620 <.L1^B15>:
    1620:	01 97       	sbiw	r24, 0x01	; 1
    1622:	f1 f7       	brne	.-4      	; 0x1620 <.L1^B15>
    1624:	9c 87       	std	Y+12, r25	; 0x0c
    1626:	8b 87       	std	Y+11, r24	; 0x0b

00001628 <.Loc.250>:
	...

0000162a <.LBE123>:
			__ticks --;
    162a:	89 85       	ldd	r24, Y+9	; 0x09
    162c:	9a 85       	ldd	r25, Y+10	; 0x0a
    162e:	01 97       	sbiw	r24, 0x01	; 1
    1630:	9a 87       	std	Y+10, r25	; 0x0a
    1632:	89 87       	std	Y+9, r24	; 0x09

00001634 <.L118>:
		while(__ticks)
    1634:	89 85       	ldd	r24, Y+9	; 0x09
    1636:	9a 85       	ldd	r25, Y+10	; 0x0a
    1638:	00 97       	sbiw	r24, 0x00	; 0
    163a:	61 f7       	brne	.-40     	; 0x1614 <.L119>

0000163c <.Loc.253>:
		return;
    163c:	19 c0       	rjmp	.+50     	; 0x1670 <.L120>

0000163e <.L124>:
		__ticks = (uint16_t)__tmp;
    163e:	6d 81       	ldd	r22, Y+5	; 0x05
    1640:	7e 81       	ldd	r23, Y+6	; 0x06
    1642:	8f 81       	ldd	r24, Y+7	; 0x07
    1644:	98 85       	ldd	r25, Y+8	; 0x08
    1646:	0e 94 2f 23 	call	0x465e	; 0x465e <__fixunssfsi>
    164a:	68 a3       	std	Y+32, r22	; 0x20
    164c:	79 a3       	std	Y+33, r23	; 0x21
    164e:	8a a3       	std	Y+34, r24	; 0x22
    1650:	9b a3       	std	Y+35, r25	; 0x23
    1652:	e8 a1       	ldd	r30, Y+32	; 0x20
    1654:	f9 a1       	ldd	r31, Y+33	; 0x21
    1656:	fa 87       	std	Y+10, r31	; 0x0a
    1658:	e9 87       	std	Y+9, r30	; 0x09

0000165a <.L115>:
    165a:	89 85       	ldd	r24, Y+9	; 0x09
    165c:	9a 85       	ldd	r25, Y+10	; 0x0a
    165e:	9e 87       	std	Y+14, r25	; 0x0e
    1660:	8d 87       	std	Y+13, r24	; 0x0d

00001662 <.LBB125>:
    1662:	8d 85       	ldd	r24, Y+13	; 0x0d
    1664:	9e 85       	ldd	r25, Y+14	; 0x0e

00001666 <.L1^B16>:
    1666:	01 97       	sbiw	r24, 0x01	; 1
    1668:	f1 f7       	brne	.-4      	; 0x1666 <.L1^B16>
    166a:	9e 87       	std	Y+14, r25	; 0x0e
    166c:	8d 87       	std	Y+13, r24	; 0x0d

0000166e <.Loc.256>:
	...

00001670 <.L120>:
    _delay_ms(10);
}
    1670:	00 00       	nop
    1672:	a3 96       	adiw	r28, 0x23	; 35
    1674:	0f b6       	in	r0, 0x3f	; 63
    1676:	f8 94       	cli
    1678:	de bf       	out	0x3e, r29	; 62
    167a:	0f be       	out	0x3f, r0	; 63
    167c:	cd bf       	out	0x3d, r28	; 61
    167e:	df 91       	pop	r29
    1680:	cf 91       	pop	r28
    1682:	08 95       	ret

00001684 <Stuur_LCD_String>:

void Stuur_LCD_String(char *stringcharacters)//dit is zodat je characters in string kunnen sturen
{
    1684:	cf 93       	push	r28
    1686:	df 93       	push	r29
    1688:	0f 92       	push	r0
    168a:	0f 92       	push	r0
    168c:	cd b7       	in	r28, 0x3d	; 61
    168e:	de b7       	in	r29, 0x3e	; 62
    1690:	9a 83       	std	Y+2, r25	; 0x02
    1692:	89 83       	std	Y+1, r24	; 0x01

00001694 <.Loc.259>:
    while(*stringcharacters > 0)
    1694:	0b c0       	rjmp	.+22     	; 0x16ac <.L126>

00001696 <.L127>:
    {
        Stuur_LCD_Character(*stringcharacters++);
    1696:	89 81       	ldd	r24, Y+1	; 0x01
    1698:	9a 81       	ldd	r25, Y+2	; 0x02
    169a:	9c 01       	movw	r18, r24
    169c:	2f 5f       	subi	r18, 0xFF	; 255
    169e:	3f 4f       	sbci	r19, 0xFF	; 255
    16a0:	3a 83       	std	Y+2, r19	; 0x02
    16a2:	29 83       	std	Y+1, r18	; 0x01

000016a4 <.Loc.261>:
    16a4:	fc 01       	movw	r30, r24
    16a6:	80 81       	ld	r24, Z

000016a8 <.Loc.262>:
    16a8:	0e 94 7f 0a 	call	0x14fe	; 0x14fe <Stuur_LCD_Character>

000016ac <.L126>:
    while(*stringcharacters > 0)
    16ac:	89 81       	ldd	r24, Y+1	; 0x01
    16ae:	9a 81       	ldd	r25, Y+2	; 0x02
    16b0:	fc 01       	movw	r30, r24
    16b2:	80 81       	ld	r24, Z

000016b4 <.Loc.264>:
    16b4:	88 23       	and	r24, r24
    16b6:	09 f0       	breq	.+2      	; 0x16ba <.Loc.265>

000016b8 <L0^A>:
    16b8:	74 f7       	brge	.-36     	; 0x1696 <.L127>

000016ba <.Loc.265>:
    }
}
    16ba:	00 00       	nop
    16bc:	00 00       	nop
    16be:	0f 90       	pop	r0
    16c0:	0f 90       	pop	r0
    16c2:	df 91       	pop	r29
    16c4:	cf 91       	pop	r28
    16c6:	08 95       	ret

000016c8 <LCD_Naar_Locatie>:

void LCD_Naar_Locatie(uint8_t x, uint8_t y)//opdracht voor cursor verplaatsing maken
{
    16c8:	cf 93       	push	r28
    16ca:	df 93       	push	r29
    16cc:	0f 92       	push	r0
    16ce:	0f 92       	push	r0
    16d0:	cd b7       	in	r28, 0x3d	; 61
    16d2:	de b7       	in	r29, 0x3e	; 62
    16d4:	89 83       	std	Y+1, r24	; 0x01
    16d6:	6a 83       	std	Y+2, r22	; 0x02

000016d8 <.Loc.267>:
    Stuur_LCD_Opdracht(0x80 + LCD_Pos_Eerste_Vakje[y-1] + (x-1));
    16d8:	8a 81       	ldd	r24, Y+2	; 0x02
    16da:	88 2f       	mov	r24, r24
    16dc:	90 e0       	ldi	r25, 0x00	; 0
    16de:	01 97       	sbiw	r24, 0x01	; 1

000016e0 <.Loc.268>:
    16e0:	80 50       	subi	r24, 0x00	; 0
    16e2:	9e 4f       	sbci	r25, 0xFE	; 254
    16e4:	fc 01       	movw	r30, r24
    16e6:	80 81       	ld	r24, Z
    16e8:	98 2f       	mov	r25, r24

000016ea <.Loc.269>:
    16ea:	89 81       	ldd	r24, Y+1	; 0x01
    16ec:	89 0f       	add	r24, r25

000016ee <.Loc.270>:
    16ee:	81 58       	subi	r24, 0x81	; 129
    16f0:	0e 94 5e 0a 	call	0x14bc	; 0x14bc <Stuur_LCD_Opdracht>

000016f4 <.Loc.271>:
}
    16f4:	00 00       	nop
    16f6:	0f 90       	pop	r0
    16f8:	0f 90       	pop	r0
    16fa:	df 91       	pop	r29
    16fc:	cf 91       	pop	r28
    16fe:	08 95       	ret

00001700 <LCD_Scherm_Leeg>:

void LCD_Scherm_Leeg(void)//Maakt het scherm leeg
{
    1700:	cf 93       	push	r28
    1702:	df 93       	push	r29
    1704:	cd b7       	in	r28, 0x3d	; 61
    1706:	de b7       	in	r29, 0x3e	; 62
    1708:	a2 97       	sbiw	r28, 0x22	; 34
    170a:	0f b6       	in	r0, 0x3f	; 63
    170c:	f8 94       	cli
    170e:	de bf       	out	0x3e, r29	; 62
    1710:	0f be       	out	0x3f, r0	; 63
    1712:	cd bf       	out	0x3d, r28	; 61

00001714 <.Loc.273>:
    Stuur_LCD_Opdracht(0x01);//Leeg scherm 0x01
    1714:	81 e0       	ldi	r24, 0x01	; 1
    1716:	0e 94 5e 0a 	call	0x14bc	; 0x14bc <Stuur_LCD_Opdracht>
    171a:	80 e0       	ldi	r24, 0x00	; 0
    171c:	90 e0       	ldi	r25, 0x00	; 0
    171e:	a0 e0       	ldi	r26, 0x00	; 0
    1720:	b0 e4       	ldi	r27, 0x40	; 64
    1722:	89 83       	std	Y+1, r24	; 0x01
    1724:	9a 83       	std	Y+2, r25	; 0x02
    1726:	ab 83       	std	Y+3, r26	; 0x03
    1728:	bc 83       	std	Y+4, r27	; 0x04

0000172a <.LBB127>:
	__tmp = ((F_CPU) / 4e3) * __ms;
    172a:	20 e0       	ldi	r18, 0x00	; 0
    172c:	30 e0       	ldi	r19, 0x00	; 0
    172e:	4a e7       	ldi	r20, 0x7A	; 122
    1730:	55 e4       	ldi	r21, 0x45	; 69
    1732:	69 81       	ldd	r22, Y+1	; 0x01
    1734:	7a 81       	ldd	r23, Y+2	; 0x02
    1736:	8b 81       	ldd	r24, Y+3	; 0x03
    1738:	9c 81       	ldd	r25, Y+4	; 0x04
    173a:	0e 94 15 24 	call	0x482a	; 0x482a <__mulsf3>
    173e:	6b 8b       	std	Y+19, r22	; 0x13
    1740:	7c 8b       	std	Y+20, r23	; 0x14
    1742:	8d 8b       	std	Y+21, r24	; 0x15
    1744:	9e 8b       	std	Y+22, r25	; 0x16
    1746:	8b 89       	ldd	r24, Y+19	; 0x13
    1748:	9c 89       	ldd	r25, Y+20	; 0x14
    174a:	ad 89       	ldd	r26, Y+21	; 0x15
    174c:	be 89       	ldd	r27, Y+22	; 0x16
    174e:	8d 83       	std	Y+5, r24	; 0x05
    1750:	9e 83       	std	Y+6, r25	; 0x06
    1752:	af 83       	std	Y+7, r26	; 0x07
    1754:	b8 87       	std	Y+8, r27	; 0x08

00001756 <.Loc.275>:
	if (__tmp < 1.0)
    1756:	20 e0       	ldi	r18, 0x00	; 0
    1758:	30 e0       	ldi	r19, 0x00	; 0
    175a:	40 e8       	ldi	r20, 0x80	; 128
    175c:	5f e3       	ldi	r21, 0x3F	; 63
    175e:	6d 81       	ldd	r22, Y+5	; 0x05
    1760:	7e 81       	ldd	r23, Y+6	; 0x06
    1762:	8f 81       	ldd	r24, Y+7	; 0x07
    1764:	98 85       	ldd	r25, Y+8	; 0x08
    1766:	0e 94 b8 22 	call	0x4570	; 0x4570 <__cmpsf2>
    176a:	88 23       	and	r24, r24
    176c:	2c f4       	brge	.+10     	; 0x1778 <.L140>

0000176e <.Loc.276>:
		__ticks = 1;
    176e:	81 e0       	ldi	r24, 0x01	; 1
    1770:	90 e0       	ldi	r25, 0x00	; 0
    1772:	9a 87       	std	Y+10, r25	; 0x0a
    1774:	89 87       	std	Y+9, r24	; 0x09
    1776:	55 c0       	rjmp	.+170    	; 0x1822 <.L132>

00001778 <.L140>:
	else if (__tmp > 65535)
    1778:	20 e0       	ldi	r18, 0x00	; 0
    177a:	3f ef       	ldi	r19, 0xFF	; 255
    177c:	4f e7       	ldi	r20, 0x7F	; 127
    177e:	57 e4       	ldi	r21, 0x47	; 71
    1780:	6d 81       	ldd	r22, Y+5	; 0x05
    1782:	7e 81       	ldd	r23, Y+6	; 0x06
    1784:	8f 81       	ldd	r24, Y+7	; 0x07
    1786:	98 85       	ldd	r25, Y+8	; 0x08
    1788:	0e 94 10 24 	call	0x4820	; 0x4820 <__gesf2>
    178c:	88 23       	and	r24, r24
    178e:	d9 f1       	breq	.+118    	; 0x1806 <.L141>
    1790:	d4 f1       	brlt	.+116    	; 0x1806 <.L141>

00001792 <.Loc.278>:
		__ticks = (uint16_t) (__ms * 10.0);
    1792:	20 e0       	ldi	r18, 0x00	; 0
    1794:	30 e0       	ldi	r19, 0x00	; 0
    1796:	40 e2       	ldi	r20, 0x20	; 32
    1798:	51 e4       	ldi	r21, 0x41	; 65
    179a:	69 81       	ldd	r22, Y+1	; 0x01
    179c:	7a 81       	ldd	r23, Y+2	; 0x02
    179e:	8b 81       	ldd	r24, Y+3	; 0x03
    17a0:	9c 81       	ldd	r25, Y+4	; 0x04
    17a2:	0e 94 15 24 	call	0x482a	; 0x482a <__mulsf3>
    17a6:	6f 8b       	std	Y+23, r22	; 0x17
    17a8:	78 8f       	std	Y+24, r23	; 0x18
    17aa:	89 8f       	std	Y+25, r24	; 0x19
    17ac:	9a 8f       	std	Y+26, r25	; 0x1a
    17ae:	8f 89       	ldd	r24, Y+23	; 0x17
    17b0:	98 8d       	ldd	r25, Y+24	; 0x18
    17b2:	a9 8d       	ldd	r26, Y+25	; 0x19
    17b4:	ba 8d       	ldd	r27, Y+26	; 0x1a
    17b6:	8f 87       	std	Y+15, r24	; 0x0f
    17b8:	98 8b       	std	Y+16, r25	; 0x10
    17ba:	a9 8b       	std	Y+17, r26	; 0x11
    17bc:	ba 8b       	std	Y+18, r27	; 0x12

000017be <.Loc.279>:
    17be:	6f 85       	ldd	r22, Y+15	; 0x0f
    17c0:	78 89       	ldd	r23, Y+16	; 0x10
    17c2:	89 89       	ldd	r24, Y+17	; 0x11
    17c4:	9a 89       	ldd	r25, Y+18	; 0x12
    17c6:	0e 94 2f 23 	call	0x465e	; 0x465e <__fixunssfsi>
    17ca:	6b 8f       	std	Y+27, r22	; 0x1b
    17cc:	7c 8f       	std	Y+28, r23	; 0x1c
    17ce:	8d 8f       	std	Y+29, r24	; 0x1d
    17d0:	9e 8f       	std	Y+30, r25	; 0x1e
    17d2:	ab 8d       	ldd	r26, Y+27	; 0x1b
    17d4:	bc 8d       	ldd	r27, Y+28	; 0x1c
    17d6:	ba 87       	std	Y+10, r27	; 0x0a
    17d8:	a9 87       	std	Y+9, r26	; 0x09

000017da <.Loc.280>:
		while(__ticks)
    17da:	10 c0       	rjmp	.+32     	; 0x17fc <.L135>

000017dc <.L136>:
    17dc:	80 e9       	ldi	r24, 0x90	; 144
    17de:	91 e0       	ldi	r25, 0x01	; 1
    17e0:	9c 87       	std	Y+12, r25	; 0x0c
    17e2:	8b 87       	std	Y+11, r24	; 0x0b

000017e4 <.LBB129>:
    17e4:	8b 85       	ldd	r24, Y+11	; 0x0b
    17e6:	9c 85       	ldd	r25, Y+12	; 0x0c

000017e8 <.L1^B17>:
    17e8:	01 97       	sbiw	r24, 0x01	; 1
    17ea:	f1 f7       	brne	.-4      	; 0x17e8 <.L1^B17>
    17ec:	9c 87       	std	Y+12, r25	; 0x0c
    17ee:	8b 87       	std	Y+11, r24	; 0x0b

000017f0 <.Loc.282>:
	...

000017f2 <.LBE129>:
			__ticks --;
    17f2:	89 85       	ldd	r24, Y+9	; 0x09
    17f4:	9a 85       	ldd	r25, Y+10	; 0x0a
    17f6:	01 97       	sbiw	r24, 0x01	; 1
    17f8:	9a 87       	std	Y+10, r25	; 0x0a
    17fa:	89 87       	std	Y+9, r24	; 0x09

000017fc <.L135>:
		while(__ticks)
    17fc:	89 85       	ldd	r24, Y+9	; 0x09
    17fe:	9a 85       	ldd	r25, Y+10	; 0x0a
    1800:	00 97       	sbiw	r24, 0x00	; 0
    1802:	61 f7       	brne	.-40     	; 0x17dc <.L136>

00001804 <.Loc.285>:
		return;
    1804:	19 c0       	rjmp	.+50     	; 0x1838 <.L137>

00001806 <.L141>:
		__ticks = (uint16_t)__tmp;
    1806:	6d 81       	ldd	r22, Y+5	; 0x05
    1808:	7e 81       	ldd	r23, Y+6	; 0x06
    180a:	8f 81       	ldd	r24, Y+7	; 0x07
    180c:	98 85       	ldd	r25, Y+8	; 0x08
    180e:	0e 94 2f 23 	call	0x465e	; 0x465e <__fixunssfsi>
    1812:	6f 8f       	std	Y+31, r22	; 0x1f
    1814:	78 a3       	std	Y+32, r23	; 0x20
    1816:	89 a3       	std	Y+33, r24	; 0x21
    1818:	9a a3       	std	Y+34, r25	; 0x22
    181a:	8f 8d       	ldd	r24, Y+31	; 0x1f
    181c:	98 a1       	ldd	r25, Y+32	; 0x20
    181e:	9a 87       	std	Y+10, r25	; 0x0a
    1820:	89 87       	std	Y+9, r24	; 0x09

00001822 <.L132>:
    1822:	89 85       	ldd	r24, Y+9	; 0x09
    1824:	9a 85       	ldd	r25, Y+10	; 0x0a
    1826:	9e 87       	std	Y+14, r25	; 0x0e
    1828:	8d 87       	std	Y+13, r24	; 0x0d

0000182a <.LBB131>:
    182a:	8d 85       	ldd	r24, Y+13	; 0x0d
    182c:	9e 85       	ldd	r25, Y+14	; 0x0e

0000182e <.L1^B18>:
    182e:	01 97       	sbiw	r24, 0x01	; 1
    1830:	f1 f7       	brne	.-4      	; 0x182e <.L1^B18>
    1832:	9e 87       	std	Y+14, r25	; 0x0e
    1834:	8d 87       	std	Y+13, r24	; 0x0d

00001836 <.Loc.288>:
	...

00001838 <.L137>:
    _delay_ms(2);//altijd 2ms delay na scherm leegmaken
}
    1838:	00 00       	nop
    183a:	a2 96       	adiw	r28, 0x22	; 34
    183c:	0f b6       	in	r0, 0x3f	; 63
    183e:	f8 94       	cli
    1840:	de bf       	out	0x3e, r29	; 62
    1842:	0f be       	out	0x3f, r0	; 63
    1844:	cd bf       	out	0x3d, r28	; 61
    1846:	df 91       	pop	r29
    1848:	cf 91       	pop	r28
    184a:	08 95       	ret

0000184c <init>:
#include <stdio.h>

int buzz = 0;

void init(void)
{
    184c:	cf 93       	push	r28
    184e:	df 93       	push	r29
    1850:	cd b7       	in	r28, 0x3d	; 61
    1852:	de b7       	in	r29, 0x3e	; 62

00001854 <.Loc.1>:
    init_timer5();                                      // init timer 5
    1854:	0e 94 29 04 	call	0x852	; 0x852 <init_timer5>

00001858 <.Loc.2>:
	init_h_bridge();									// init h brug
    1858:	0e 94 4d 02 	call	0x49a	; 0x49a <init_h_bridge>

0000185c <.Loc.3>:
	init_servo();                                       // init Servo
    185c:	0e 94 a2 20 	call	0x4144	; 0x4144 <init_servo>

00001860 <.Loc.4>:
	init_LCDenBluetooth();                              // init LCD en Bluetooth
    1860:	0e 94 bf 04 	call	0x97e	; 0x97e <init_LCDenBluetooth>

00001864 <.Loc.5>:
	init_Registers();                                   // init registers
    1864:	0e 94 54 04 	call	0x8a8	; 0x8a8 <init_Registers>

00001868 <.Loc.6>:
	sei();											    // enable global interrupts
    1868:	78 94       	sei

0000186a <.Loc.7>:
}
    186a:	00 00       	nop
    186c:	df 91       	pop	r29
    186e:	cf 91       	pop	r28
    1870:	08 95       	ret

00001872 <main>:

int main(void)
{
    1872:	0f 93       	push	r16
    1874:	1f 93       	push	r17
    1876:	cf 93       	push	r28
    1878:	df 93       	push	r29
    187a:	cd b7       	in	r28, 0x3d	; 61
    187c:	de b7       	in	r29, 0x3e	; 62
    187e:	c4 54       	subi	r28, 0x44	; 68
    1880:	d2 40       	sbci	r29, 0x02	; 2
    1882:	0f b6       	in	r0, 0x3f	; 63
    1884:	f8 94       	cli
    1886:	de bf       	out	0x3e, r29	; 62
    1888:	0f be       	out	0x3f, r0	; 63
    188a:	cd bf       	out	0x3d, r28	; 61

0000188c <.Loc.9>:
	init();				                                // run init function
    188c:	0e 94 26 0c 	call	0x184c	; 0x184c <init>

00001890 <.Loc.10>:

	int status = 0;						                // status voor de switch case statement
    1890:	1a 82       	std	Y+2, r1	; 0x02
    1892:	19 82       	std	Y+1, r1	; 0x01

00001894 <.Loc.11>:

    knipperLichten(0);
    1894:	80 e0       	ldi	r24, 0x00	; 0
    1896:	0e 94 e4 03 	call	0x7c8	; 0x7c8 <knipperLichten>

0000189a <.Loc.12>:
    h_bridge_set_percentage(0);
    189a:	80 e0       	ldi	r24, 0x00	; 0
    189c:	0e 94 cc 02 	call	0x598	; 0x598 <h_bridge_set_percentage>

000018a0 <.Loc.13>:
    h_bridge_set_percentage2(0);
    18a0:	80 e0       	ldi	r24, 0x00	; 0
    18a2:	0e 94 16 03 	call	0x62c	; 0x62c <h_bridge_set_percentage2>

000018a6 <.L179>:

	while (1)
	{
        if (buzz >= 8)                              // buzzer gaat 8 keer aan en uit door timer 5
    18a6:	80 91 92 02 	lds	r24, 0x0292	; 0x800292 <buzz>
    18aa:	90 91 93 02 	lds	r25, 0x0293	; 0x800293 <buzz+0x1>

000018ae <.Loc.15>:
    18ae:	87 30       	cpi	r24, 0x07	; 7
    18b0:	91 05       	cpc	r25, r1
    18b2:	71 f0       	breq	.+28     	; 0x18d0 <.L3>
    18b4:	6c f0       	brlt	.+26     	; 0x18d0 <.L3>

000018b6 <.Loc.16>:
        {
            buzzer(0);                              // na 8 keer stopt de buzzer
    18b6:	80 e0       	ldi	r24, 0x00	; 0
    18b8:	0e 94 b8 03 	call	0x770	; 0x770 <buzzer>

000018bc <.Loc.17>:
            if (TIMSK5 == 0x00)                     // als timer 5 uit staat
    18bc:	83 e7       	ldi	r24, 0x73	; 115
    18be:	90 e0       	ldi	r25, 0x00	; 0
    18c0:	dc 01       	movw	r26, r24
    18c2:	8c 91       	ld	r24, X

000018c4 <.Loc.18>:
    18c4:	88 23       	and	r24, r24
    18c6:	21 f4       	brne	.+8      	; 0x18d0 <.L3>

000018c8 <.Loc.19>:
            {
                buzz = 0;                           // wordt de buzzer gereset en kan opnieuw aangezet worden
    18c8:	10 92 93 02 	sts	0x0293, r1	; 0x800293 <buzz+0x1>
    18cc:	10 92 92 02 	sts	0x0292, r1	; 0x800292 <buzz>

000018d0 <.L3>:
            }
        }
        if (((PINF & (1<<PF4)) == 0) || (Bluetooth_Getal == 6))//((PINF & (1<<PF4)) == 0)                // nood stop indrukken
    18d0:	8f e2       	ldi	r24, 0x2F	; 47
    18d2:	90 e0       	ldi	r25, 0x00	; 0
    18d4:	fc 01       	movw	r30, r24
    18d6:	80 81       	ld	r24, Z

000018d8 <.Loc.21>:
    18d8:	88 2f       	mov	r24, r24
    18da:	90 e0       	ldi	r25, 0x00	; 0
    18dc:	80 71       	andi	r24, 0x10	; 16
    18de:	99 27       	eor	r25, r25

000018e0 <.Loc.22>:
    18e0:	00 97       	sbiw	r24, 0x00	; 0
    18e2:	41 f0       	breq	.+16     	; 0x18f4 <.L4>

000018e4 <.Loc.23>:
    18e4:	80 91 90 02 	lds	r24, 0x0290	; 0x800290 <Bluetooth_Getal>
    18e8:	90 91 91 02 	lds	r25, 0x0291	; 0x800291 <Bluetooth_Getal+0x1>

000018ec <.Loc.24>:
    18ec:	86 30       	cpi	r24, 0x06	; 6
    18ee:	91 05       	cpc	r25, r1
    18f0:	09 f0       	breq	.+2      	; 0x18f4 <.L4>

000018f2 <L0^A>:
    18f2:	cc c0       	rjmp	.+408    	; 0x1a8c <.L5>

000018f4 <.L4>:
    18f4:	80 e0       	ldi	r24, 0x00	; 0
    18f6:	90 e0       	ldi	r25, 0x00	; 0
    18f8:	a0 ea       	ldi	r26, 0xA0	; 160
    18fa:	b1 e4       	ldi	r27, 0x41	; 65
    18fc:	8b 83       	std	Y+3, r24	; 0x03
    18fe:	9c 83       	std	Y+4, r25	; 0x04
    1900:	ad 83       	std	Y+5, r26	; 0x05
    1902:	be 83       	std	Y+6, r27	; 0x06

00001904 <.LBB108>:
	__tmp = ((F_CPU) / 4e3) * __ms;
    1904:	20 e0       	ldi	r18, 0x00	; 0
    1906:	30 e0       	ldi	r19, 0x00	; 0
    1908:	4a e7       	ldi	r20, 0x7A	; 122
    190a:	55 e4       	ldi	r21, 0x45	; 69
    190c:	6b 81       	ldd	r22, Y+3	; 0x03
    190e:	7c 81       	ldd	r23, Y+4	; 0x04
    1910:	8d 81       	ldd	r24, Y+5	; 0x05
    1912:	9e 81       	ldd	r25, Y+6	; 0x06
    1914:	0e 94 15 24 	call	0x482a	; 0x482a <__mulsf3>
    1918:	cb 5c       	subi	r28, 0xCB	; 203
    191a:	de 4f       	sbci	r29, 0xFE	; 254
    191c:	68 83       	st	Y, r22
    191e:	79 83       	std	Y+1, r23	; 0x01
    1920:	8a 83       	std	Y+2, r24	; 0x02
    1922:	9b 83       	std	Y+3, r25	; 0x03
    1924:	c5 53       	subi	r28, 0x35	; 53
    1926:	d1 40       	sbci	r29, 0x01	; 1
    1928:	cb 5c       	subi	r28, 0xCB	; 203
    192a:	de 4f       	sbci	r29, 0xFE	; 254
    192c:	88 81       	ld	r24, Y
    192e:	99 81       	ldd	r25, Y+1	; 0x01
    1930:	aa 81       	ldd	r26, Y+2	; 0x02
    1932:	bb 81       	ldd	r27, Y+3	; 0x03
    1934:	c5 53       	subi	r28, 0x35	; 53
    1936:	d1 40       	sbci	r29, 0x01	; 1
    1938:	8f 83       	std	Y+7, r24	; 0x07
    193a:	98 87       	std	Y+8, r25	; 0x08
    193c:	a9 87       	std	Y+9, r26	; 0x09
    193e:	ba 87       	std	Y+10, r27	; 0x0a

00001940 <.Loc.26>:
	if (__tmp < 1.0)
    1940:	20 e0       	ldi	r18, 0x00	; 0
    1942:	30 e0       	ldi	r19, 0x00	; 0
    1944:	40 e8       	ldi	r20, 0x80	; 128
    1946:	5f e3       	ldi	r21, 0x3F	; 63
    1948:	6f 81       	ldd	r22, Y+7	; 0x07
    194a:	78 85       	ldd	r23, Y+8	; 0x08
    194c:	89 85       	ldd	r24, Y+9	; 0x09
    194e:	9a 85       	ldd	r25, Y+10	; 0x0a
    1950:	0e 94 b8 22 	call	0x4570	; 0x4570 <__cmpsf2>
    1954:	88 23       	and	r24, r24
    1956:	2c f4       	brge	.+10     	; 0x1962 <.L214>

00001958 <.Loc.27>:
		__ticks = 1;
    1958:	81 e0       	ldi	r24, 0x01	; 1
    195a:	90 e0       	ldi	r25, 0x00	; 0
    195c:	9c 87       	std	Y+12, r25	; 0x0c
    195e:	8b 87       	std	Y+11, r24	; 0x0b
    1960:	76 c0       	rjmp	.+236    	; 0x1a4e <.L8>

00001962 <.L214>:
	else if (__tmp > 65535)
    1962:	20 e0       	ldi	r18, 0x00	; 0
    1964:	3f ef       	ldi	r19, 0xFF	; 255
    1966:	4f e7       	ldi	r20, 0x7F	; 127
    1968:	57 e4       	ldi	r21, 0x47	; 71
    196a:	6f 81       	ldd	r22, Y+7	; 0x07
    196c:	78 85       	ldd	r23, Y+8	; 0x08
    196e:	89 85       	ldd	r24, Y+9	; 0x09
    1970:	9a 85       	ldd	r25, Y+10	; 0x0a
    1972:	0e 94 10 24 	call	0x4820	; 0x4820 <__gesf2>
    1976:	88 23       	and	r24, r24
    1978:	09 f0       	breq	.+2      	; 0x197c <L0^A>

0000197a <L0^A>:
    197a:	0c f4       	brge	.+2      	; 0x197e <.Loc.29>

0000197c <L0^A>:
    197c:	52 c0       	rjmp	.+164    	; 0x1a22 <.L215>

0000197e <.Loc.29>:
		__ticks = (uint16_t) (__ms * 10.0);
    197e:	20 e0       	ldi	r18, 0x00	; 0
    1980:	30 e0       	ldi	r19, 0x00	; 0
    1982:	40 e2       	ldi	r20, 0x20	; 32
    1984:	51 e4       	ldi	r21, 0x41	; 65
    1986:	6b 81       	ldd	r22, Y+3	; 0x03
    1988:	7c 81       	ldd	r23, Y+4	; 0x04
    198a:	8d 81       	ldd	r24, Y+5	; 0x05
    198c:	9e 81       	ldd	r25, Y+6	; 0x06
    198e:	0e 94 15 24 	call	0x482a	; 0x482a <__mulsf3>
    1992:	c7 5c       	subi	r28, 0xC7	; 199
    1994:	de 4f       	sbci	r29, 0xFE	; 254
    1996:	68 83       	st	Y, r22
    1998:	79 83       	std	Y+1, r23	; 0x01
    199a:	8a 83       	std	Y+2, r24	; 0x02
    199c:	9b 83       	std	Y+3, r25	; 0x03
    199e:	c9 53       	subi	r28, 0x39	; 57
    19a0:	d1 40       	sbci	r29, 0x01	; 1
    19a2:	c7 5c       	subi	r28, 0xC7	; 199
    19a4:	de 4f       	sbci	r29, 0xFE	; 254
    19a6:	88 81       	ld	r24, Y
    19a8:	99 81       	ldd	r25, Y+1	; 0x01
    19aa:	aa 81       	ldd	r26, Y+2	; 0x02
    19ac:	bb 81       	ldd	r27, Y+3	; 0x03
    19ae:	c9 53       	subi	r28, 0x39	; 57
    19b0:	d1 40       	sbci	r29, 0x01	; 1
    19b2:	cf 50       	subi	r28, 0x0F	; 15
    19b4:	df 4f       	sbci	r29, 0xFF	; 255
    19b6:	88 83       	st	Y, r24
    19b8:	99 83       	std	Y+1, r25	; 0x01
    19ba:	aa 83       	std	Y+2, r26	; 0x02
    19bc:	bb 83       	std	Y+3, r27	; 0x03
    19be:	c1 5f       	subi	r28, 0xF1	; 241
    19c0:	d0 40       	sbci	r29, 0x00	; 0

000019c2 <.Loc.30>:
    19c2:	cf 50       	subi	r28, 0x0F	; 15
    19c4:	df 4f       	sbci	r29, 0xFF	; 255
    19c6:	68 81       	ld	r22, Y
    19c8:	79 81       	ldd	r23, Y+1	; 0x01
    19ca:	8a 81       	ldd	r24, Y+2	; 0x02
    19cc:	9b 81       	ldd	r25, Y+3	; 0x03
    19ce:	c1 5f       	subi	r28, 0xF1	; 241
    19d0:	d0 40       	sbci	r29, 0x00	; 0
    19d2:	0e 94 2f 23 	call	0x465e	; 0x465e <__fixunssfsi>
    19d6:	c3 5c       	subi	r28, 0xC3	; 195
    19d8:	de 4f       	sbci	r29, 0xFE	; 254
    19da:	68 83       	st	Y, r22
    19dc:	79 83       	std	Y+1, r23	; 0x01
    19de:	8a 83       	std	Y+2, r24	; 0x02
    19e0:	9b 83       	std	Y+3, r25	; 0x03
    19e2:	cd 53       	subi	r28, 0x3D	; 61
    19e4:	d1 40       	sbci	r29, 0x01	; 1
    19e6:	c3 5c       	subi	r28, 0xC3	; 195
    19e8:	de 4f       	sbci	r29, 0xFE	; 254
    19ea:	a8 81       	ld	r26, Y
    19ec:	b9 81       	ldd	r27, Y+1	; 0x01
    19ee:	cd 53       	subi	r28, 0x3D	; 61
    19f0:	d1 40       	sbci	r29, 0x01	; 1
    19f2:	bc 87       	std	Y+12, r27	; 0x0c
    19f4:	ab 87       	std	Y+11, r26	; 0x0b

000019f6 <.Loc.31>:
		while(__ticks)
    19f6:	10 c0       	rjmp	.+32     	; 0x1a18 <.L11>

000019f8 <.L12>:
    19f8:	80 e9       	ldi	r24, 0x90	; 144
    19fa:	91 e0       	ldi	r25, 0x01	; 1
    19fc:	9e 87       	std	Y+14, r25	; 0x0e
    19fe:	8d 87       	std	Y+13, r24	; 0x0d

00001a00 <.LBB110>:
    1a00:	8d 85       	ldd	r24, Y+13	; 0x0d
    1a02:	9e 85       	ldd	r25, Y+14	; 0x0e

00001a04 <.L1^B1>:
    1a04:	01 97       	sbiw	r24, 0x01	; 1
    1a06:	f1 f7       	brne	.-4      	; 0x1a04 <.L1^B1>
    1a08:	9e 87       	std	Y+14, r25	; 0x0e
    1a0a:	8d 87       	std	Y+13, r24	; 0x0d

00001a0c <.Loc.33>:
	...

00001a0e <.LBE110>:
			__ticks --;
    1a0e:	8b 85       	ldd	r24, Y+11	; 0x0b
    1a10:	9c 85       	ldd	r25, Y+12	; 0x0c
    1a12:	01 97       	sbiw	r24, 0x01	; 1
    1a14:	9c 87       	std	Y+12, r25	; 0x0c
    1a16:	8b 87       	std	Y+11, r24	; 0x0b

00001a18 <.L11>:
		while(__ticks)
    1a18:	8b 85       	ldd	r24, Y+11	; 0x0b
    1a1a:	9c 85       	ldd	r25, Y+12	; 0x0c
    1a1c:	00 97       	sbiw	r24, 0x00	; 0
    1a1e:	61 f7       	brne	.-40     	; 0x19f8 <.L12>

00001a20 <.Loc.36>:
		return;
    1a20:	21 c0       	rjmp	.+66     	; 0x1a64 <.L13>

00001a22 <.L215>:
		__ticks = (uint16_t)__tmp;
    1a22:	6f 81       	ldd	r22, Y+7	; 0x07
    1a24:	78 85       	ldd	r23, Y+8	; 0x08
    1a26:	89 85       	ldd	r24, Y+9	; 0x09
    1a28:	9a 85       	ldd	r25, Y+10	; 0x0a
    1a2a:	0e 94 2f 23 	call	0x465e	; 0x465e <__fixunssfsi>
    1a2e:	cf 5b       	subi	r28, 0xBF	; 191
    1a30:	de 4f       	sbci	r29, 0xFE	; 254
    1a32:	68 83       	st	Y, r22
    1a34:	79 83       	std	Y+1, r23	; 0x01
    1a36:	8a 83       	std	Y+2, r24	; 0x02
    1a38:	9b 83       	std	Y+3, r25	; 0x03
    1a3a:	c1 54       	subi	r28, 0x41	; 65
    1a3c:	d1 40       	sbci	r29, 0x01	; 1
    1a3e:	cf 5b       	subi	r28, 0xBF	; 191
    1a40:	de 4f       	sbci	r29, 0xFE	; 254
    1a42:	e8 81       	ld	r30, Y
    1a44:	f9 81       	ldd	r31, Y+1	; 0x01
    1a46:	c1 54       	subi	r28, 0x41	; 65
    1a48:	d1 40       	sbci	r29, 0x01	; 1
    1a4a:	fc 87       	std	Y+12, r31	; 0x0c
    1a4c:	eb 87       	std	Y+11, r30	; 0x0b

00001a4e <.L8>:
    1a4e:	8b 85       	ldd	r24, Y+11	; 0x0b
    1a50:	9c 85       	ldd	r25, Y+12	; 0x0c
    1a52:	98 8b       	std	Y+16, r25	; 0x10
    1a54:	8f 87       	std	Y+15, r24	; 0x0f

00001a56 <.LBB112>:
    1a56:	8f 85       	ldd	r24, Y+15	; 0x0f
    1a58:	98 89       	ldd	r25, Y+16	; 0x10

00001a5a <.L1^B2>:
    1a5a:	01 97       	sbiw	r24, 0x01	; 1
    1a5c:	f1 f7       	brne	.-4      	; 0x1a5a <.L1^B2>
    1a5e:	98 8b       	std	Y+16, r25	; 0x10
    1a60:	8f 87       	std	Y+15, r24	; 0x0f

00001a62 <.Loc.39>:
	...

00001a64 <.L13>:
        {
            DEBOUNCE;
            PORTF &= ~(1<<PF7);                     // als de noodstop is ingedrukt brandt het ledje
    1a64:	81 e3       	ldi	r24, 0x31	; 49
    1a66:	90 e0       	ldi	r25, 0x00	; 0
    1a68:	dc 01       	movw	r26, r24
    1a6a:	2c 91       	ld	r18, X

00001a6c <.Loc.41>:
    1a6c:	81 e3       	ldi	r24, 0x31	; 49
    1a6e:	90 e0       	ldi	r25, 0x00	; 0

00001a70 <.Loc.42>:
    1a70:	2f 77       	andi	r18, 0x7F	; 127
    1a72:	fc 01       	movw	r30, r24
    1a74:	20 83       	st	Z, r18

00001a76 <.Loc.43>:
            buzzer(1);
    1a76:	81 e0       	ldi	r24, 0x01	; 1
    1a78:	0e 94 b8 03 	call	0x770	; 0x770 <buzzer>

00001a7c <.Loc.44>:
            Bluetooth_Getal = 20;
    1a7c:	84 e1       	ldi	r24, 0x14	; 20
    1a7e:	90 e0       	ldi	r25, 0x00	; 0
    1a80:	90 93 91 02 	sts	0x0291, r25	; 0x800291 <Bluetooth_Getal+0x1>
    1a84:	80 93 90 02 	sts	0x0290, r24	; 0x800290 <Bluetooth_Getal>

00001a88 <.Loc.45>:
            status = 0;
    1a88:	1a 82       	std	Y+2, r1	; 0x02
    1a8a:	19 82       	std	Y+1, r1	; 0x01

00001a8c <.L5>:
        }
		switch(status)
    1a8c:	89 81       	ldd	r24, Y+1	; 0x01
    1a8e:	9a 81       	ldd	r25, Y+2	; 0x02
    1a90:	09 2e       	mov	r0, r25
    1a92:	00 0c       	add	r0, r0
    1a94:	aa 0b       	sbc	r26, r26
    1a96:	bb 0b       	sbc	r27, r27
    1a98:	8c 30       	cpi	r24, 0x0C	; 12
    1a9a:	91 05       	cpc	r25, r1
    1a9c:	a1 05       	cpc	r26, r1
    1a9e:	b1 05       	cpc	r27, r1
    1aa0:	11 f0       	breq	.+4      	; 0x1aa6 <L0^A+0x2>

00001aa2 <L0^A>:
    1aa2:	08 f0       	brcs	.+2      	; 0x1aa6 <L0^A+0x2>

00001aa4 <L0^A>:
    1aa4:	00 cf       	rjmp	.-512    	; 0x18a6 <.L179>
    1aa6:	fc 01       	movw	r30, r24
    1aa8:	88 27       	eor	r24, r24
    1aaa:	ec 57       	subi	r30, 0x7C	; 124
    1aac:	fb 4d       	sbci	r31, 0xDB	; 219
    1aae:	8f 4f       	sbci	r24, 0xFF	; 255
    1ab0:	0c 94 f3 21 	jmp	0x43e6	; 0x43e6 <__tablejump2__>

00001ab4 <.L28>:
		{
        case 0: // nood_toestand

            knipperLichten(1);
    1ab4:	81 e0       	ldi	r24, 0x01	; 1
    1ab6:	0e 94 e4 03 	call	0x7c8	; 0x7c8 <knipperLichten>

00001aba <.Loc.48>:
            h_bridge_set_percentage(0);
    1aba:	80 e0       	ldi	r24, 0x00	; 0
    1abc:	0e 94 cc 02 	call	0x598	; 0x598 <h_bridge_set_percentage>

00001ac0 <.Loc.49>:
            h_bridge_set_percentage2(0);
    1ac0:	80 e0       	ldi	r24, 0x00	; 0
    1ac2:	0e 94 16 03 	call	0x62c	; 0x62c <h_bridge_set_percentage2>

00001ac6 <.Loc.50>:

            LCD_Scherm_Leeg();
    1ac6:	0e 94 80 0b 	call	0x1700	; 0x1700 <LCD_Scherm_Leeg>

00001aca <.Loc.51>:
            LCD_Naar_Locatie(1, 1);
    1aca:	61 e0       	ldi	r22, 0x01	; 1
    1acc:	81 e0       	ldi	r24, 0x01	; 1
    1ace:	0e 94 64 0b 	call	0x16c8	; 0x16c8 <LCD_Naar_Locatie>

00001ad2 <.Loc.52>:
            Stuur_LCD_String("Noodtoestand");
    1ad2:	82 e0       	ldi	r24, 0x02	; 2
    1ad4:	92 e0       	ldi	r25, 0x02	; 2
    1ad6:	0e 94 42 0b 	call	0x1684	; 0x1684 <Stuur_LCD_String>

00001ada <.Loc.53>:

            if (((PINF & (1<<PF4)) != 0) && (Bluetooth_Getal == 7))//((PINF & (1<<PF4)) != 0)     //Noodstop loslaten
    1ada:	8f e2       	ldi	r24, 0x2F	; 47
    1adc:	90 e0       	ldi	r25, 0x00	; 0
    1ade:	dc 01       	movw	r26, r24
    1ae0:	8c 91       	ld	r24, X

00001ae2 <.Loc.54>:
    1ae2:	88 2f       	mov	r24, r24
    1ae4:	90 e0       	ldi	r25, 0x00	; 0
    1ae6:	80 71       	andi	r24, 0x10	; 16
    1ae8:	99 27       	eor	r25, r25

00001aea <.Loc.55>:
    1aea:	00 97       	sbiw	r24, 0x00	; 0
    1aec:	11 f4       	brne	.+4      	; 0x1af2 <.Loc.56>

00001aee <L0^A>:
    1aee:	0c 94 4c 1f 	jmp	0x3e98	; 0x3e98 <.L248>

00001af2 <.Loc.56>:
    1af2:	80 91 90 02 	lds	r24, 0x0290	; 0x800290 <Bluetooth_Getal>
    1af6:	90 91 91 02 	lds	r25, 0x0291	; 0x800291 <Bluetooth_Getal+0x1>

00001afa <.Loc.57>:
    1afa:	87 30       	cpi	r24, 0x07	; 7
    1afc:	91 05       	cpc	r25, r1
    1afe:	11 f0       	breq	.+4      	; 0x1b04 <L0^A+0x4>

00001b00 <L0^A>:
    1b00:	0c 94 4c 1f 	jmp	0x3e98	; 0x3e98 <.L248>
    1b04:	80 e0       	ldi	r24, 0x00	; 0
    1b06:	90 e0       	ldi	r25, 0x00	; 0
    1b08:	a0 ea       	ldi	r26, 0xA0	; 160
    1b0a:	b1 e4       	ldi	r27, 0x41	; 65
    1b0c:	89 8b       	std	Y+17, r24	; 0x11
    1b0e:	9a 8b       	std	Y+18, r25	; 0x12
    1b10:	ab 8b       	std	Y+19, r26	; 0x13
    1b12:	bc 8b       	std	Y+20, r27	; 0x14

00001b14 <.LBB114>:
	__tmp = ((F_CPU) / 4e3) * __ms;
    1b14:	20 e0       	ldi	r18, 0x00	; 0
    1b16:	30 e0       	ldi	r19, 0x00	; 0
    1b18:	4a e7       	ldi	r20, 0x7A	; 122
    1b1a:	55 e4       	ldi	r21, 0x45	; 69
    1b1c:	69 89       	ldd	r22, Y+17	; 0x11
    1b1e:	7a 89       	ldd	r23, Y+18	; 0x12
    1b20:	8b 89       	ldd	r24, Y+19	; 0x13
    1b22:	9c 89       	ldd	r25, Y+20	; 0x14
    1b24:	0e 94 15 24 	call	0x482a	; 0x482a <__mulsf3>
    1b28:	cb 5b       	subi	r28, 0xBB	; 187
    1b2a:	de 4f       	sbci	r29, 0xFE	; 254
    1b2c:	68 83       	st	Y, r22
    1b2e:	79 83       	std	Y+1, r23	; 0x01
    1b30:	8a 83       	std	Y+2, r24	; 0x02
    1b32:	9b 83       	std	Y+3, r25	; 0x03
    1b34:	c5 54       	subi	r28, 0x45	; 69
    1b36:	d1 40       	sbci	r29, 0x01	; 1
    1b38:	cb 5b       	subi	r28, 0xBB	; 187
    1b3a:	de 4f       	sbci	r29, 0xFE	; 254
    1b3c:	88 81       	ld	r24, Y
    1b3e:	99 81       	ldd	r25, Y+1	; 0x01
    1b40:	aa 81       	ldd	r26, Y+2	; 0x02
    1b42:	bb 81       	ldd	r27, Y+3	; 0x03
    1b44:	c5 54       	subi	r28, 0x45	; 69
    1b46:	d1 40       	sbci	r29, 0x01	; 1
    1b48:	8d 8b       	std	Y+21, r24	; 0x15
    1b4a:	9e 8b       	std	Y+22, r25	; 0x16
    1b4c:	af 8b       	std	Y+23, r26	; 0x17
    1b4e:	b8 8f       	std	Y+24, r27	; 0x18

00001b50 <.Loc.59>:
	if (__tmp < 1.0)
    1b50:	20 e0       	ldi	r18, 0x00	; 0
    1b52:	30 e0       	ldi	r19, 0x00	; 0
    1b54:	40 e8       	ldi	r20, 0x80	; 128
    1b56:	5f e3       	ldi	r21, 0x3F	; 63
    1b58:	6d 89       	ldd	r22, Y+21	; 0x15
    1b5a:	7e 89       	ldd	r23, Y+22	; 0x16
    1b5c:	8f 89       	ldd	r24, Y+23	; 0x17
    1b5e:	98 8d       	ldd	r25, Y+24	; 0x18
    1b60:	0e 94 b8 22 	call	0x4570	; 0x4570 <__cmpsf2>
    1b64:	88 23       	and	r24, r24
    1b66:	2c f4       	brge	.+10     	; 0x1b72 <.L216>

00001b68 <.Loc.60>:
		__ticks = 1;
    1b68:	81 e0       	ldi	r24, 0x01	; 1
    1b6a:	90 e0       	ldi	r25, 0x00	; 0
    1b6c:	9a 8f       	std	Y+26, r25	; 0x1a
    1b6e:	89 8f       	std	Y+25, r24	; 0x19
    1b70:	76 c0       	rjmp	.+236    	; 0x1c5e <.L32>

00001b72 <.L216>:
	else if (__tmp > 65535)
    1b72:	20 e0       	ldi	r18, 0x00	; 0
    1b74:	3f ef       	ldi	r19, 0xFF	; 255
    1b76:	4f e7       	ldi	r20, 0x7F	; 127
    1b78:	57 e4       	ldi	r21, 0x47	; 71
    1b7a:	6d 89       	ldd	r22, Y+21	; 0x15
    1b7c:	7e 89       	ldd	r23, Y+22	; 0x16
    1b7e:	8f 89       	ldd	r24, Y+23	; 0x17
    1b80:	98 8d       	ldd	r25, Y+24	; 0x18
    1b82:	0e 94 10 24 	call	0x4820	; 0x4820 <__gesf2>
    1b86:	88 23       	and	r24, r24
    1b88:	09 f0       	breq	.+2      	; 0x1b8c <L0^A>

00001b8a <L0^A>:
    1b8a:	0c f4       	brge	.+2      	; 0x1b8e <.Loc.62>

00001b8c <L0^A>:
    1b8c:	52 c0       	rjmp	.+164    	; 0x1c32 <.L217>

00001b8e <.Loc.62>:
		__ticks = (uint16_t) (__ms * 10.0);
    1b8e:	20 e0       	ldi	r18, 0x00	; 0
    1b90:	30 e0       	ldi	r19, 0x00	; 0
    1b92:	40 e2       	ldi	r20, 0x20	; 32
    1b94:	51 e4       	ldi	r21, 0x41	; 65
    1b96:	69 89       	ldd	r22, Y+17	; 0x11
    1b98:	7a 89       	ldd	r23, Y+18	; 0x12
    1b9a:	8b 89       	ldd	r24, Y+19	; 0x13
    1b9c:	9c 89       	ldd	r25, Y+20	; 0x14
    1b9e:	0e 94 15 24 	call	0x482a	; 0x482a <__mulsf3>
    1ba2:	c7 5b       	subi	r28, 0xB7	; 183
    1ba4:	de 4f       	sbci	r29, 0xFE	; 254
    1ba6:	68 83       	st	Y, r22
    1ba8:	79 83       	std	Y+1, r23	; 0x01
    1baa:	8a 83       	std	Y+2, r24	; 0x02
    1bac:	9b 83       	std	Y+3, r25	; 0x03
    1bae:	c9 54       	subi	r28, 0x49	; 73
    1bb0:	d1 40       	sbci	r29, 0x01	; 1
    1bb2:	c7 5b       	subi	r28, 0xB7	; 183
    1bb4:	de 4f       	sbci	r29, 0xFE	; 254
    1bb6:	88 81       	ld	r24, Y
    1bb8:	99 81       	ldd	r25, Y+1	; 0x01
    1bba:	aa 81       	ldd	r26, Y+2	; 0x02
    1bbc:	bb 81       	ldd	r27, Y+3	; 0x03
    1bbe:	c9 54       	subi	r28, 0x49	; 73
    1bc0:	d1 40       	sbci	r29, 0x01	; 1
    1bc2:	cb 50       	subi	r28, 0x0B	; 11
    1bc4:	df 4f       	sbci	r29, 0xFF	; 255
    1bc6:	88 83       	st	Y, r24
    1bc8:	99 83       	std	Y+1, r25	; 0x01
    1bca:	aa 83       	std	Y+2, r26	; 0x02
    1bcc:	bb 83       	std	Y+3, r27	; 0x03
    1bce:	c5 5f       	subi	r28, 0xF5	; 245
    1bd0:	d0 40       	sbci	r29, 0x00	; 0

00001bd2 <.Loc.63>:
    1bd2:	cb 50       	subi	r28, 0x0B	; 11
    1bd4:	df 4f       	sbci	r29, 0xFF	; 255
    1bd6:	68 81       	ld	r22, Y
    1bd8:	79 81       	ldd	r23, Y+1	; 0x01
    1bda:	8a 81       	ldd	r24, Y+2	; 0x02
    1bdc:	9b 81       	ldd	r25, Y+3	; 0x03
    1bde:	c5 5f       	subi	r28, 0xF5	; 245
    1be0:	d0 40       	sbci	r29, 0x00	; 0
    1be2:	0e 94 2f 23 	call	0x465e	; 0x465e <__fixunssfsi>
    1be6:	c3 5b       	subi	r28, 0xB3	; 179
    1be8:	de 4f       	sbci	r29, 0xFE	; 254
    1bea:	68 83       	st	Y, r22
    1bec:	79 83       	std	Y+1, r23	; 0x01
    1bee:	8a 83       	std	Y+2, r24	; 0x02
    1bf0:	9b 83       	std	Y+3, r25	; 0x03
    1bf2:	cd 54       	subi	r28, 0x4D	; 77
    1bf4:	d1 40       	sbci	r29, 0x01	; 1
    1bf6:	c3 5b       	subi	r28, 0xB3	; 179
    1bf8:	de 4f       	sbci	r29, 0xFE	; 254
    1bfa:	a8 81       	ld	r26, Y
    1bfc:	b9 81       	ldd	r27, Y+1	; 0x01
    1bfe:	cd 54       	subi	r28, 0x4D	; 77
    1c00:	d1 40       	sbci	r29, 0x01	; 1
    1c02:	ba 8f       	std	Y+26, r27	; 0x1a
    1c04:	a9 8f       	std	Y+25, r26	; 0x19

00001c06 <.Loc.64>:
		while(__ticks)
    1c06:	10 c0       	rjmp	.+32     	; 0x1c28 <.L35>

00001c08 <.L36>:
    1c08:	80 e9       	ldi	r24, 0x90	; 144
    1c0a:	91 e0       	ldi	r25, 0x01	; 1
    1c0c:	9c 8f       	std	Y+28, r25	; 0x1c
    1c0e:	8b 8f       	std	Y+27, r24	; 0x1b

00001c10 <.LBB116>:
    1c10:	8b 8d       	ldd	r24, Y+27	; 0x1b
    1c12:	9c 8d       	ldd	r25, Y+28	; 0x1c

00001c14 <.L1^B3>:
    1c14:	01 97       	sbiw	r24, 0x01	; 1
    1c16:	f1 f7       	brne	.-4      	; 0x1c14 <.L1^B3>
    1c18:	9c 8f       	std	Y+28, r25	; 0x1c
    1c1a:	8b 8f       	std	Y+27, r24	; 0x1b

00001c1c <.Loc.66>:
	...

00001c1e <.LBE116>:
			__ticks --;
    1c1e:	89 8d       	ldd	r24, Y+25	; 0x19
    1c20:	9a 8d       	ldd	r25, Y+26	; 0x1a
    1c22:	01 97       	sbiw	r24, 0x01	; 1
    1c24:	9a 8f       	std	Y+26, r25	; 0x1a
    1c26:	89 8f       	std	Y+25, r24	; 0x19

00001c28 <.L35>:
		while(__ticks)
    1c28:	89 8d       	ldd	r24, Y+25	; 0x19
    1c2a:	9a 8d       	ldd	r25, Y+26	; 0x1a
    1c2c:	00 97       	sbiw	r24, 0x00	; 0
    1c2e:	61 f7       	brne	.-40     	; 0x1c08 <.L36>

00001c30 <.Loc.69>:
		return;
    1c30:	21 c0       	rjmp	.+66     	; 0x1c74 <.L37>

00001c32 <.L217>:
		__ticks = (uint16_t)__tmp;
    1c32:	6d 89       	ldd	r22, Y+21	; 0x15
    1c34:	7e 89       	ldd	r23, Y+22	; 0x16
    1c36:	8f 89       	ldd	r24, Y+23	; 0x17
    1c38:	98 8d       	ldd	r25, Y+24	; 0x18
    1c3a:	0e 94 2f 23 	call	0x465e	; 0x465e <__fixunssfsi>
    1c3e:	cf 5a       	subi	r28, 0xAF	; 175
    1c40:	de 4f       	sbci	r29, 0xFE	; 254
    1c42:	68 83       	st	Y, r22
    1c44:	79 83       	std	Y+1, r23	; 0x01
    1c46:	8a 83       	std	Y+2, r24	; 0x02
    1c48:	9b 83       	std	Y+3, r25	; 0x03
    1c4a:	c1 55       	subi	r28, 0x51	; 81
    1c4c:	d1 40       	sbci	r29, 0x01	; 1
    1c4e:	cf 5a       	subi	r28, 0xAF	; 175
    1c50:	de 4f       	sbci	r29, 0xFE	; 254
    1c52:	e8 81       	ld	r30, Y
    1c54:	f9 81       	ldd	r31, Y+1	; 0x01
    1c56:	c1 55       	subi	r28, 0x51	; 81
    1c58:	d1 40       	sbci	r29, 0x01	; 1
    1c5a:	fa 8f       	std	Y+26, r31	; 0x1a
    1c5c:	e9 8f       	std	Y+25, r30	; 0x19

00001c5e <.L32>:
    1c5e:	89 8d       	ldd	r24, Y+25	; 0x19
    1c60:	9a 8d       	ldd	r25, Y+26	; 0x1a
    1c62:	9e 8f       	std	Y+30, r25	; 0x1e
    1c64:	8d 8f       	std	Y+29, r24	; 0x1d

00001c66 <.LBB118>:
    1c66:	8d 8d       	ldd	r24, Y+29	; 0x1d
    1c68:	9e 8d       	ldd	r25, Y+30	; 0x1e

00001c6a <.L1^B4>:
    1c6a:	01 97       	sbiw	r24, 0x01	; 1
    1c6c:	f1 f7       	brne	.-4      	; 0x1c6a <.L1^B4>
    1c6e:	9e 8f       	std	Y+30, r25	; 0x1e
    1c70:	8d 8f       	std	Y+29, r24	; 0x1d

00001c72 <.Loc.72>:
	...

00001c74 <.L37>:
            {
                DEBOUNCE;
                PORTF |= (1<<PF7);
    1c74:	81 e3       	ldi	r24, 0x31	; 49
    1c76:	90 e0       	ldi	r25, 0x00	; 0
    1c78:	dc 01       	movw	r26, r24
    1c7a:	2c 91       	ld	r18, X
    1c7c:	81 e3       	ldi	r24, 0x31	; 49
    1c7e:	90 e0       	ldi	r25, 0x00	; 0

00001c80 <.Loc.74>:
    1c80:	20 68       	ori	r18, 0x80	; 128
    1c82:	fc 01       	movw	r30, r24
    1c84:	20 83       	st	Z, r18

00001c86 <.Loc.75>:
                Bluetooth_Getal = 20;                  // als de noodstop weer wordt losgelaten gaat het ledje uit
    1c86:	84 e1       	ldi	r24, 0x14	; 20
    1c88:	90 e0       	ldi	r25, 0x00	; 0
    1c8a:	90 93 91 02 	sts	0x0291, r25	; 0x800291 <Bluetooth_Getal+0x1>
    1c8e:	80 93 90 02 	sts	0x0290, r24	; 0x800290 <Bluetooth_Getal>

00001c92 <.Loc.76>:
                status = 1;
    1c92:	81 e0       	ldi	r24, 0x01	; 1
    1c94:	90 e0       	ldi	r25, 0x00	; 0
    1c96:	9a 83       	std	Y+2, r25	; 0x02
    1c98:	89 83       	std	Y+1, r24	; 0x01

00001c9a <.Loc.77>:
            }
            break;
    1c9a:	0c 94 4c 1f 	jmp	0x3e98	; 0x3e98 <.L248>

00001c9e <.L27>:

        case 1: // init_state
            knipperLichten(0);          // uit
    1c9e:	80 e0       	ldi	r24, 0x00	; 0
    1ca0:	0e 94 e4 03 	call	0x7c8	; 0x7c8 <knipperLichten>

00001ca4 <.Loc.79>:
            set_servo_direction(0);     // ingeklapt
    1ca4:	80 e0       	ldi	r24, 0x00	; 0
    1ca6:	0e 94 08 04 	call	0x810	; 0x810 <set_servo_direction>

00001caa <.Loc.80>:
            h_bridge_set_percentage(0);
    1caa:	80 e0       	ldi	r24, 0x00	; 0
    1cac:	0e 94 cc 02 	call	0x598	; 0x598 <h_bridge_set_percentage>

00001cb0 <.Loc.81>:
            h_bridge_set_percentage2(0);
    1cb0:	80 e0       	ldi	r24, 0x00	; 0
    1cb2:	0e 94 16 03 	call	0x62c	; 0x62c <h_bridge_set_percentage2>

00001cb6 <.Loc.82>:

            LCD_Scherm_Leeg();
    1cb6:	0e 94 80 0b 	call	0x1700	; 0x1700 <LCD_Scherm_Leeg>

00001cba <.Loc.83>:
           	LCD_Naar_Locatie(1, 1);
    1cba:	61 e0       	ldi	r22, 0x01	; 1
    1cbc:	81 e0       	ldi	r24, 0x01	; 1
    1cbe:	0e 94 64 0b 	call	0x16c8	; 0x16c8 <LCD_Naar_Locatie>

00001cc2 <.Loc.84>:
	    	Stuur_LCD_String("Opstarten");
    1cc2:	8f e0       	ldi	r24, 0x0F	; 15
    1cc4:	92 e0       	ldi	r25, 0x02	; 2
    1cc6:	0e 94 42 0b 	call	0x1684	; 0x1684 <Stuur_LCD_String>

00001cca <.Loc.85>:

            if (((PINF & (1<<in_uit_klappen)) == 0) || (Bluetooth_Getal == 8))//((PINF & (1<<in_uit_klappen)) == 0)
    1cca:	8f e2       	ldi	r24, 0x2F	; 47
    1ccc:	90 e0       	ldi	r25, 0x00	; 0
    1cce:	dc 01       	movw	r26, r24
    1cd0:	8c 91       	ld	r24, X

00001cd2 <.Loc.86>:
    1cd2:	88 2f       	mov	r24, r24
    1cd4:	90 e0       	ldi	r25, 0x00	; 0
    1cd6:	88 70       	andi	r24, 0x08	; 8
    1cd8:	99 27       	eor	r25, r25

00001cda <.Loc.87>:
    1cda:	00 97       	sbiw	r24, 0x00	; 0
    1cdc:	49 f0       	breq	.+18     	; 0x1cf0 <.L38>

00001cde <.Loc.88>:
    1cde:	80 91 90 02 	lds	r24, 0x0290	; 0x800290 <Bluetooth_Getal>
    1ce2:	90 91 91 02 	lds	r25, 0x0291	; 0x800291 <Bluetooth_Getal+0x1>

00001ce6 <.Loc.89>:
    1ce6:	88 30       	cpi	r24, 0x08	; 8
    1ce8:	91 05       	cpc	r25, r1
    1cea:	11 f0       	breq	.+4      	; 0x1cf0 <.L38>

00001cec <L0^A>:
    1cec:	0c 94 4f 1f 	jmp	0x3e9e	; 0x3e9e <.L249>

00001cf0 <.L38>:
    1cf0:	80 e0       	ldi	r24, 0x00	; 0
    1cf2:	90 e0       	ldi	r25, 0x00	; 0
    1cf4:	a0 ea       	ldi	r26, 0xA0	; 160
    1cf6:	b1 e4       	ldi	r27, 0x41	; 65
    1cf8:	8f 8f       	std	Y+31, r24	; 0x1f
    1cfa:	98 a3       	std	Y+32, r25	; 0x20
    1cfc:	a9 a3       	std	Y+33, r26	; 0x21
    1cfe:	ba a3       	std	Y+34, r27	; 0x22

00001d00 <.LBB120>:
	__tmp = ((F_CPU) / 4e3) * __ms;
    1d00:	20 e0       	ldi	r18, 0x00	; 0
    1d02:	30 e0       	ldi	r19, 0x00	; 0
    1d04:	4a e7       	ldi	r20, 0x7A	; 122
    1d06:	55 e4       	ldi	r21, 0x45	; 69
    1d08:	6f 8d       	ldd	r22, Y+31	; 0x1f
    1d0a:	78 a1       	ldd	r23, Y+32	; 0x20
    1d0c:	89 a1       	ldd	r24, Y+33	; 0x21
    1d0e:	9a a1       	ldd	r25, Y+34	; 0x22
    1d10:	0e 94 15 24 	call	0x482a	; 0x482a <__mulsf3>
    1d14:	cb 5a       	subi	r28, 0xAB	; 171
    1d16:	de 4f       	sbci	r29, 0xFE	; 254
    1d18:	68 83       	st	Y, r22
    1d1a:	79 83       	std	Y+1, r23	; 0x01
    1d1c:	8a 83       	std	Y+2, r24	; 0x02
    1d1e:	9b 83       	std	Y+3, r25	; 0x03
    1d20:	c5 55       	subi	r28, 0x55	; 85
    1d22:	d1 40       	sbci	r29, 0x01	; 1
    1d24:	cb 5a       	subi	r28, 0xAB	; 171
    1d26:	de 4f       	sbci	r29, 0xFE	; 254
    1d28:	88 81       	ld	r24, Y
    1d2a:	99 81       	ldd	r25, Y+1	; 0x01
    1d2c:	aa 81       	ldd	r26, Y+2	; 0x02
    1d2e:	bb 81       	ldd	r27, Y+3	; 0x03
    1d30:	c5 55       	subi	r28, 0x55	; 85
    1d32:	d1 40       	sbci	r29, 0x01	; 1
    1d34:	8b a3       	std	Y+35, r24	; 0x23
    1d36:	9c a3       	std	Y+36, r25	; 0x24
    1d38:	ad a3       	std	Y+37, r26	; 0x25
    1d3a:	be a3       	std	Y+38, r27	; 0x26

00001d3c <.Loc.91>:
	if (__tmp < 1.0)
    1d3c:	20 e0       	ldi	r18, 0x00	; 0
    1d3e:	30 e0       	ldi	r19, 0x00	; 0
    1d40:	40 e8       	ldi	r20, 0x80	; 128
    1d42:	5f e3       	ldi	r21, 0x3F	; 63
    1d44:	6b a1       	ldd	r22, Y+35	; 0x23
    1d46:	7c a1       	ldd	r23, Y+36	; 0x24
    1d48:	8d a1       	ldd	r24, Y+37	; 0x25
    1d4a:	9e a1       	ldd	r25, Y+38	; 0x26
    1d4c:	0e 94 b8 22 	call	0x4570	; 0x4570 <__cmpsf2>
    1d50:	88 23       	and	r24, r24
    1d52:	2c f4       	brge	.+10     	; 0x1d5e <.L218>

00001d54 <.Loc.92>:
		__ticks = 1;
    1d54:	81 e0       	ldi	r24, 0x01	; 1
    1d56:	90 e0       	ldi	r25, 0x00	; 0
    1d58:	98 a7       	std	Y+40, r25	; 0x28
    1d5a:	8f a3       	std	Y+39, r24	; 0x27
    1d5c:	76 c0       	rjmp	.+236    	; 0x1e4a <.L42>

00001d5e <.L218>:
	else if (__tmp > 65535)
    1d5e:	20 e0       	ldi	r18, 0x00	; 0
    1d60:	3f ef       	ldi	r19, 0xFF	; 255
    1d62:	4f e7       	ldi	r20, 0x7F	; 127
    1d64:	57 e4       	ldi	r21, 0x47	; 71
    1d66:	6b a1       	ldd	r22, Y+35	; 0x23
    1d68:	7c a1       	ldd	r23, Y+36	; 0x24
    1d6a:	8d a1       	ldd	r24, Y+37	; 0x25
    1d6c:	9e a1       	ldd	r25, Y+38	; 0x26
    1d6e:	0e 94 10 24 	call	0x4820	; 0x4820 <__gesf2>
    1d72:	88 23       	and	r24, r24
    1d74:	09 f0       	breq	.+2      	; 0x1d78 <L0^A>

00001d76 <L0^A>:
    1d76:	0c f4       	brge	.+2      	; 0x1d7a <.Loc.94>

00001d78 <L0^A>:
    1d78:	52 c0       	rjmp	.+164    	; 0x1e1e <.L219>

00001d7a <.Loc.94>:
		__ticks = (uint16_t) (__ms * 10.0);
    1d7a:	20 e0       	ldi	r18, 0x00	; 0
    1d7c:	30 e0       	ldi	r19, 0x00	; 0
    1d7e:	40 e2       	ldi	r20, 0x20	; 32
    1d80:	51 e4       	ldi	r21, 0x41	; 65
    1d82:	6f 8d       	ldd	r22, Y+31	; 0x1f
    1d84:	78 a1       	ldd	r23, Y+32	; 0x20
    1d86:	89 a1       	ldd	r24, Y+33	; 0x21
    1d88:	9a a1       	ldd	r25, Y+34	; 0x22
    1d8a:	0e 94 15 24 	call	0x482a	; 0x482a <__mulsf3>
    1d8e:	c7 5a       	subi	r28, 0xA7	; 167
    1d90:	de 4f       	sbci	r29, 0xFE	; 254
    1d92:	68 83       	st	Y, r22
    1d94:	79 83       	std	Y+1, r23	; 0x01
    1d96:	8a 83       	std	Y+2, r24	; 0x02
    1d98:	9b 83       	std	Y+3, r25	; 0x03
    1d9a:	c9 55       	subi	r28, 0x59	; 89
    1d9c:	d1 40       	sbci	r29, 0x01	; 1
    1d9e:	c7 5a       	subi	r28, 0xA7	; 167
    1da0:	de 4f       	sbci	r29, 0xFE	; 254
    1da2:	88 81       	ld	r24, Y
    1da4:	99 81       	ldd	r25, Y+1	; 0x01
    1da6:	aa 81       	ldd	r26, Y+2	; 0x02
    1da8:	bb 81       	ldd	r27, Y+3	; 0x03
    1daa:	c9 55       	subi	r28, 0x59	; 89
    1dac:	d1 40       	sbci	r29, 0x01	; 1
    1dae:	c7 50       	subi	r28, 0x07	; 7
    1db0:	df 4f       	sbci	r29, 0xFF	; 255
    1db2:	88 83       	st	Y, r24
    1db4:	99 83       	std	Y+1, r25	; 0x01
    1db6:	aa 83       	std	Y+2, r26	; 0x02
    1db8:	bb 83       	std	Y+3, r27	; 0x03
    1dba:	c9 5f       	subi	r28, 0xF9	; 249
    1dbc:	d0 40       	sbci	r29, 0x00	; 0

00001dbe <.Loc.95>:
    1dbe:	c7 50       	subi	r28, 0x07	; 7
    1dc0:	df 4f       	sbci	r29, 0xFF	; 255
    1dc2:	68 81       	ld	r22, Y
    1dc4:	79 81       	ldd	r23, Y+1	; 0x01
    1dc6:	8a 81       	ldd	r24, Y+2	; 0x02
    1dc8:	9b 81       	ldd	r25, Y+3	; 0x03
    1dca:	c9 5f       	subi	r28, 0xF9	; 249
    1dcc:	d0 40       	sbci	r29, 0x00	; 0
    1dce:	0e 94 2f 23 	call	0x465e	; 0x465e <__fixunssfsi>
    1dd2:	c3 5a       	subi	r28, 0xA3	; 163
    1dd4:	de 4f       	sbci	r29, 0xFE	; 254
    1dd6:	68 83       	st	Y, r22
    1dd8:	79 83       	std	Y+1, r23	; 0x01
    1dda:	8a 83       	std	Y+2, r24	; 0x02
    1ddc:	9b 83       	std	Y+3, r25	; 0x03
    1dde:	cd 55       	subi	r28, 0x5D	; 93
    1de0:	d1 40       	sbci	r29, 0x01	; 1
    1de2:	c3 5a       	subi	r28, 0xA3	; 163
    1de4:	de 4f       	sbci	r29, 0xFE	; 254
    1de6:	a8 81       	ld	r26, Y
    1de8:	b9 81       	ldd	r27, Y+1	; 0x01
    1dea:	cd 55       	subi	r28, 0x5D	; 93
    1dec:	d1 40       	sbci	r29, 0x01	; 1
    1dee:	b8 a7       	std	Y+40, r27	; 0x28
    1df0:	af a3       	std	Y+39, r26	; 0x27

00001df2 <.Loc.96>:
		while(__ticks)
    1df2:	10 c0       	rjmp	.+32     	; 0x1e14 <.L45>

00001df4 <.L46>:
    1df4:	80 e9       	ldi	r24, 0x90	; 144
    1df6:	91 e0       	ldi	r25, 0x01	; 1
    1df8:	9a a7       	std	Y+42, r25	; 0x2a
    1dfa:	89 a7       	std	Y+41, r24	; 0x29

00001dfc <.LBB122>:
    1dfc:	89 a5       	ldd	r24, Y+41	; 0x29
    1dfe:	9a a5       	ldd	r25, Y+42	; 0x2a

00001e00 <.L1^B5>:
    1e00:	01 97       	sbiw	r24, 0x01	; 1
    1e02:	f1 f7       	brne	.-4      	; 0x1e00 <.L1^B5>
    1e04:	9a a7       	std	Y+42, r25	; 0x2a
    1e06:	89 a7       	std	Y+41, r24	; 0x29

00001e08 <.Loc.98>:
	...

00001e0a <.LBE122>:
			__ticks --;
    1e0a:	8f a1       	ldd	r24, Y+39	; 0x27
    1e0c:	98 a5       	ldd	r25, Y+40	; 0x28
    1e0e:	01 97       	sbiw	r24, 0x01	; 1
    1e10:	98 a7       	std	Y+40, r25	; 0x28
    1e12:	8f a3       	std	Y+39, r24	; 0x27

00001e14 <.L45>:
		while(__ticks)
    1e14:	8f a1       	ldd	r24, Y+39	; 0x27
    1e16:	98 a5       	ldd	r25, Y+40	; 0x28
    1e18:	00 97       	sbiw	r24, 0x00	; 0
    1e1a:	61 f7       	brne	.-40     	; 0x1df4 <.L46>

00001e1c <.Loc.101>:
		return;
    1e1c:	21 c0       	rjmp	.+66     	; 0x1e60 <.L47>

00001e1e <.L219>:
		__ticks = (uint16_t)__tmp;
    1e1e:	6b a1       	ldd	r22, Y+35	; 0x23
    1e20:	7c a1       	ldd	r23, Y+36	; 0x24
    1e22:	8d a1       	ldd	r24, Y+37	; 0x25
    1e24:	9e a1       	ldd	r25, Y+38	; 0x26
    1e26:	0e 94 2f 23 	call	0x465e	; 0x465e <__fixunssfsi>
    1e2a:	cf 59       	subi	r28, 0x9F	; 159
    1e2c:	de 4f       	sbci	r29, 0xFE	; 254
    1e2e:	68 83       	st	Y, r22
    1e30:	79 83       	std	Y+1, r23	; 0x01
    1e32:	8a 83       	std	Y+2, r24	; 0x02
    1e34:	9b 83       	std	Y+3, r25	; 0x03
    1e36:	c1 56       	subi	r28, 0x61	; 97
    1e38:	d1 40       	sbci	r29, 0x01	; 1
    1e3a:	cf 59       	subi	r28, 0x9F	; 159
    1e3c:	de 4f       	sbci	r29, 0xFE	; 254
    1e3e:	e8 81       	ld	r30, Y
    1e40:	f9 81       	ldd	r31, Y+1	; 0x01
    1e42:	c1 56       	subi	r28, 0x61	; 97
    1e44:	d1 40       	sbci	r29, 0x01	; 1
    1e46:	f8 a7       	std	Y+40, r31	; 0x28
    1e48:	ef a3       	std	Y+39, r30	; 0x27

00001e4a <.L42>:
    1e4a:	8f a1       	ldd	r24, Y+39	; 0x27
    1e4c:	98 a5       	ldd	r25, Y+40	; 0x28
    1e4e:	9c a7       	std	Y+44, r25	; 0x2c
    1e50:	8b a7       	std	Y+43, r24	; 0x2b

00001e52 <.LBB124>:
    1e52:	8b a5       	ldd	r24, Y+43	; 0x2b
    1e54:	9c a5       	ldd	r25, Y+44	; 0x2c

00001e56 <.L1^B6>:
    1e56:	01 97       	sbiw	r24, 0x01	; 1
    1e58:	f1 f7       	brne	.-4      	; 0x1e56 <.L1^B6>
    1e5a:	9c a7       	std	Y+44, r25	; 0x2c
    1e5c:	8b a7       	std	Y+43, r24	; 0x2b

00001e5e <.Loc.104>:
	...

00001e60 <.L47>:
            {
                DEBOUNCE;
                Bluetooth_Getal = 20;
    1e60:	84 e1       	ldi	r24, 0x14	; 20
    1e62:	90 e0       	ldi	r25, 0x00	; 0
    1e64:	90 93 91 02 	sts	0x0291, r25	; 0x800291 <Bluetooth_Getal+0x1>
    1e68:	80 93 90 02 	sts	0x0290, r24	; 0x800290 <Bluetooth_Getal>

00001e6c <.Loc.106>:
                status = 2;
    1e6c:	82 e0       	ldi	r24, 0x02	; 2
    1e6e:	90 e0       	ldi	r25, 0x00	; 0
    1e70:	9a 83       	std	Y+2, r25	; 0x02
    1e72:	89 83       	std	Y+1, r24	; 0x01

00001e74 <.Loc.107>:
            }
            break;
    1e74:	0c 94 4f 1f 	jmp	0x3e9e	; 0x3e9e <.L249>

00001e78 <.L26>:

        case 2: // wacht
            h_bridge_set_percentage(80);    // kleine motor
    1e78:	80 e5       	ldi	r24, 0x50	; 80
    1e7a:	0e 94 cc 02 	call	0x598	; 0x598 <h_bridge_set_percentage>

00001e7e <.Loc.109>:
            knipperLichten(1);
    1e7e:	81 e0       	ldi	r24, 0x01	; 1
    1e80:	0e 94 e4 03 	call	0x7c8	; 0x7c8 <knipperLichten>

00001e84 <.Loc.110>:
            buzzer(1);
    1e84:	81 e0       	ldi	r24, 0x01	; 1
    1e86:	0e 94 b8 03 	call	0x770	; 0x770 <buzzer>

00001e8a <.Loc.111>:

            LCD_Scherm_Leeg();
    1e8a:	0e 94 80 0b 	call	0x1700	; 0x1700 <LCD_Scherm_Leeg>

00001e8e <.Loc.112>:
           	LCD_Naar_Locatie(1, 1);
    1e8e:	61 e0       	ldi	r22, 0x01	; 1
    1e90:	81 e0       	ldi	r24, 0x01	; 1
    1e92:	0e 94 64 0b 	call	0x16c8	; 0x16c8 <LCD_Naar_Locatie>

00001e96 <.Loc.113>:
	    	Stuur_LCD_String("Uitklappen");
    1e96:	89 e1       	ldi	r24, 0x19	; 25
    1e98:	92 e0       	ldi	r25, 0x02	; 2
    1e9a:	0e 94 42 0b 	call	0x1684	; 0x1684 <Stuur_LCD_String>

00001e9e <.Loc.114>:

            if ((PINA & (1<<uitgeklapt_switch)) == 0)
    1e9e:	80 e2       	ldi	r24, 0x20	; 32
    1ea0:	90 e0       	ldi	r25, 0x00	; 0
    1ea2:	dc 01       	movw	r26, r24
    1ea4:	8c 91       	ld	r24, X

00001ea6 <.Loc.115>:
    1ea6:	88 23       	and	r24, r24
    1ea8:	14 f4       	brge	.+4      	; 0x1eae <L0^A+0x4>

00001eaa <L0^A>:
    1eaa:	0c 94 52 1f 	jmp	0x3ea4	; 0x3ea4 <.L250>
    1eae:	80 e0       	ldi	r24, 0x00	; 0
    1eb0:	90 e0       	ldi	r25, 0x00	; 0
    1eb2:	a0 ea       	ldi	r26, 0xA0	; 160
    1eb4:	b1 e4       	ldi	r27, 0x41	; 65
    1eb6:	8d a7       	std	Y+45, r24	; 0x2d
    1eb8:	9e a7       	std	Y+46, r25	; 0x2e
    1eba:	af a7       	std	Y+47, r26	; 0x2f
    1ebc:	b8 ab       	std	Y+48, r27	; 0x30

00001ebe <.LBB126>:
	__tmp = ((F_CPU) / 4e3) * __ms;
    1ebe:	20 e0       	ldi	r18, 0x00	; 0
    1ec0:	30 e0       	ldi	r19, 0x00	; 0
    1ec2:	4a e7       	ldi	r20, 0x7A	; 122
    1ec4:	55 e4       	ldi	r21, 0x45	; 69
    1ec6:	6d a5       	ldd	r22, Y+45	; 0x2d
    1ec8:	7e a5       	ldd	r23, Y+46	; 0x2e
    1eca:	8f a5       	ldd	r24, Y+47	; 0x2f
    1ecc:	98 a9       	ldd	r25, Y+48	; 0x30
    1ece:	0e 94 15 24 	call	0x482a	; 0x482a <__mulsf3>
    1ed2:	cb 59       	subi	r28, 0x9B	; 155
    1ed4:	de 4f       	sbci	r29, 0xFE	; 254
    1ed6:	68 83       	st	Y, r22
    1ed8:	79 83       	std	Y+1, r23	; 0x01
    1eda:	8a 83       	std	Y+2, r24	; 0x02
    1edc:	9b 83       	std	Y+3, r25	; 0x03
    1ede:	c5 56       	subi	r28, 0x65	; 101
    1ee0:	d1 40       	sbci	r29, 0x01	; 1
    1ee2:	cb 59       	subi	r28, 0x9B	; 155
    1ee4:	de 4f       	sbci	r29, 0xFE	; 254
    1ee6:	88 81       	ld	r24, Y
    1ee8:	99 81       	ldd	r25, Y+1	; 0x01
    1eea:	aa 81       	ldd	r26, Y+2	; 0x02
    1eec:	bb 81       	ldd	r27, Y+3	; 0x03
    1eee:	c5 56       	subi	r28, 0x65	; 101
    1ef0:	d1 40       	sbci	r29, 0x01	; 1
    1ef2:	89 ab       	std	Y+49, r24	; 0x31
    1ef4:	9a ab       	std	Y+50, r25	; 0x32
    1ef6:	ab ab       	std	Y+51, r26	; 0x33
    1ef8:	bc ab       	std	Y+52, r27	; 0x34

00001efa <.Loc.117>:
	if (__tmp < 1.0)
    1efa:	20 e0       	ldi	r18, 0x00	; 0
    1efc:	30 e0       	ldi	r19, 0x00	; 0
    1efe:	40 e8       	ldi	r20, 0x80	; 128
    1f00:	5f e3       	ldi	r21, 0x3F	; 63
    1f02:	69 a9       	ldd	r22, Y+49	; 0x31
    1f04:	7a a9       	ldd	r23, Y+50	; 0x32
    1f06:	8b a9       	ldd	r24, Y+51	; 0x33
    1f08:	9c a9       	ldd	r25, Y+52	; 0x34
    1f0a:	0e 94 b8 22 	call	0x4570	; 0x4570 <__cmpsf2>
    1f0e:	88 23       	and	r24, r24
    1f10:	2c f4       	brge	.+10     	; 0x1f1c <.L220>

00001f12 <.Loc.118>:
		__ticks = 1;
    1f12:	81 e0       	ldi	r24, 0x01	; 1
    1f14:	90 e0       	ldi	r25, 0x00	; 0
    1f16:	9e ab       	std	Y+54, r25	; 0x36
    1f18:	8d ab       	std	Y+53, r24	; 0x35
    1f1a:	76 c0       	rjmp	.+236    	; 0x2008 <.L51>

00001f1c <.L220>:
	else if (__tmp > 65535)
    1f1c:	20 e0       	ldi	r18, 0x00	; 0
    1f1e:	3f ef       	ldi	r19, 0xFF	; 255
    1f20:	4f e7       	ldi	r20, 0x7F	; 127
    1f22:	57 e4       	ldi	r21, 0x47	; 71
    1f24:	69 a9       	ldd	r22, Y+49	; 0x31
    1f26:	7a a9       	ldd	r23, Y+50	; 0x32
    1f28:	8b a9       	ldd	r24, Y+51	; 0x33
    1f2a:	9c a9       	ldd	r25, Y+52	; 0x34
    1f2c:	0e 94 10 24 	call	0x4820	; 0x4820 <__gesf2>
    1f30:	88 23       	and	r24, r24
    1f32:	09 f0       	breq	.+2      	; 0x1f36 <L0^A>

00001f34 <L0^A>:
    1f34:	0c f4       	brge	.+2      	; 0x1f38 <.Loc.120>

00001f36 <L0^A>:
    1f36:	52 c0       	rjmp	.+164    	; 0x1fdc <.L221>

00001f38 <.Loc.120>:
		__ticks = (uint16_t) (__ms * 10.0);
    1f38:	20 e0       	ldi	r18, 0x00	; 0
    1f3a:	30 e0       	ldi	r19, 0x00	; 0
    1f3c:	40 e2       	ldi	r20, 0x20	; 32
    1f3e:	51 e4       	ldi	r21, 0x41	; 65
    1f40:	6d a5       	ldd	r22, Y+45	; 0x2d
    1f42:	7e a5       	ldd	r23, Y+46	; 0x2e
    1f44:	8f a5       	ldd	r24, Y+47	; 0x2f
    1f46:	98 a9       	ldd	r25, Y+48	; 0x30
    1f48:	0e 94 15 24 	call	0x482a	; 0x482a <__mulsf3>
    1f4c:	c7 59       	subi	r28, 0x97	; 151
    1f4e:	de 4f       	sbci	r29, 0xFE	; 254
    1f50:	68 83       	st	Y, r22
    1f52:	79 83       	std	Y+1, r23	; 0x01
    1f54:	8a 83       	std	Y+2, r24	; 0x02
    1f56:	9b 83       	std	Y+3, r25	; 0x03
    1f58:	c9 56       	subi	r28, 0x69	; 105
    1f5a:	d1 40       	sbci	r29, 0x01	; 1
    1f5c:	c7 59       	subi	r28, 0x97	; 151
    1f5e:	de 4f       	sbci	r29, 0xFE	; 254
    1f60:	88 81       	ld	r24, Y
    1f62:	99 81       	ldd	r25, Y+1	; 0x01
    1f64:	aa 81       	ldd	r26, Y+2	; 0x02
    1f66:	bb 81       	ldd	r27, Y+3	; 0x03
    1f68:	c9 56       	subi	r28, 0x69	; 105
    1f6a:	d1 40       	sbci	r29, 0x01	; 1
    1f6c:	c3 50       	subi	r28, 0x03	; 3
    1f6e:	df 4f       	sbci	r29, 0xFF	; 255
    1f70:	88 83       	st	Y, r24
    1f72:	99 83       	std	Y+1, r25	; 0x01
    1f74:	aa 83       	std	Y+2, r26	; 0x02
    1f76:	bb 83       	std	Y+3, r27	; 0x03
    1f78:	cd 5f       	subi	r28, 0xFD	; 253
    1f7a:	d0 40       	sbci	r29, 0x00	; 0

00001f7c <.Loc.121>:
    1f7c:	c3 50       	subi	r28, 0x03	; 3
    1f7e:	df 4f       	sbci	r29, 0xFF	; 255
    1f80:	68 81       	ld	r22, Y
    1f82:	79 81       	ldd	r23, Y+1	; 0x01
    1f84:	8a 81       	ldd	r24, Y+2	; 0x02
    1f86:	9b 81       	ldd	r25, Y+3	; 0x03
    1f88:	cd 5f       	subi	r28, 0xFD	; 253
    1f8a:	d0 40       	sbci	r29, 0x00	; 0
    1f8c:	0e 94 2f 23 	call	0x465e	; 0x465e <__fixunssfsi>
    1f90:	c3 59       	subi	r28, 0x93	; 147
    1f92:	de 4f       	sbci	r29, 0xFE	; 254
    1f94:	68 83       	st	Y, r22
    1f96:	79 83       	std	Y+1, r23	; 0x01
    1f98:	8a 83       	std	Y+2, r24	; 0x02
    1f9a:	9b 83       	std	Y+3, r25	; 0x03
    1f9c:	cd 56       	subi	r28, 0x6D	; 109
    1f9e:	d1 40       	sbci	r29, 0x01	; 1
    1fa0:	c3 59       	subi	r28, 0x93	; 147
    1fa2:	de 4f       	sbci	r29, 0xFE	; 254
    1fa4:	a8 81       	ld	r26, Y
    1fa6:	b9 81       	ldd	r27, Y+1	; 0x01
    1fa8:	cd 56       	subi	r28, 0x6D	; 109
    1faa:	d1 40       	sbci	r29, 0x01	; 1
    1fac:	be ab       	std	Y+54, r27	; 0x36
    1fae:	ad ab       	std	Y+53, r26	; 0x35

00001fb0 <.Loc.122>:
		while(__ticks)
    1fb0:	10 c0       	rjmp	.+32     	; 0x1fd2 <.L54>

00001fb2 <.L55>:
    1fb2:	80 e9       	ldi	r24, 0x90	; 144
    1fb4:	91 e0       	ldi	r25, 0x01	; 1
    1fb6:	98 af       	std	Y+56, r25	; 0x38
    1fb8:	8f ab       	std	Y+55, r24	; 0x37

00001fba <.LBB128>:
    1fba:	8f a9       	ldd	r24, Y+55	; 0x37
    1fbc:	98 ad       	ldd	r25, Y+56	; 0x38

00001fbe <.L1^B7>:
    1fbe:	01 97       	sbiw	r24, 0x01	; 1
    1fc0:	f1 f7       	brne	.-4      	; 0x1fbe <.L1^B7>
    1fc2:	98 af       	std	Y+56, r25	; 0x38
    1fc4:	8f ab       	std	Y+55, r24	; 0x37

00001fc6 <.Loc.124>:
	...

00001fc8 <.LBE128>:
			__ticks --;
    1fc8:	8d a9       	ldd	r24, Y+53	; 0x35
    1fca:	9e a9       	ldd	r25, Y+54	; 0x36
    1fcc:	01 97       	sbiw	r24, 0x01	; 1
    1fce:	9e ab       	std	Y+54, r25	; 0x36
    1fd0:	8d ab       	std	Y+53, r24	; 0x35

00001fd2 <.L54>:
		while(__ticks)
    1fd2:	8d a9       	ldd	r24, Y+53	; 0x35
    1fd4:	9e a9       	ldd	r25, Y+54	; 0x36
    1fd6:	00 97       	sbiw	r24, 0x00	; 0
    1fd8:	61 f7       	brne	.-40     	; 0x1fb2 <.L55>

00001fda <.Loc.127>:
		return;
    1fda:	21 c0       	rjmp	.+66     	; 0x201e <.L56>

00001fdc <.L221>:
		__ticks = (uint16_t)__tmp;
    1fdc:	69 a9       	ldd	r22, Y+49	; 0x31
    1fde:	7a a9       	ldd	r23, Y+50	; 0x32
    1fe0:	8b a9       	ldd	r24, Y+51	; 0x33
    1fe2:	9c a9       	ldd	r25, Y+52	; 0x34
    1fe4:	0e 94 2f 23 	call	0x465e	; 0x465e <__fixunssfsi>
    1fe8:	cf 58       	subi	r28, 0x8F	; 143
    1fea:	de 4f       	sbci	r29, 0xFE	; 254
    1fec:	68 83       	st	Y, r22
    1fee:	79 83       	std	Y+1, r23	; 0x01
    1ff0:	8a 83       	std	Y+2, r24	; 0x02
    1ff2:	9b 83       	std	Y+3, r25	; 0x03
    1ff4:	c1 57       	subi	r28, 0x71	; 113
    1ff6:	d1 40       	sbci	r29, 0x01	; 1
    1ff8:	cf 58       	subi	r28, 0x8F	; 143
    1ffa:	de 4f       	sbci	r29, 0xFE	; 254
    1ffc:	e8 81       	ld	r30, Y
    1ffe:	f9 81       	ldd	r31, Y+1	; 0x01
    2000:	c1 57       	subi	r28, 0x71	; 113
    2002:	d1 40       	sbci	r29, 0x01	; 1
    2004:	fe ab       	std	Y+54, r31	; 0x36
    2006:	ed ab       	std	Y+53, r30	; 0x35

00002008 <.L51>:
    2008:	8d a9       	ldd	r24, Y+53	; 0x35
    200a:	9e a9       	ldd	r25, Y+54	; 0x36
    200c:	9a af       	std	Y+58, r25	; 0x3a
    200e:	89 af       	std	Y+57, r24	; 0x39

00002010 <.LBB130>:
    2010:	89 ad       	ldd	r24, Y+57	; 0x39
    2012:	9a ad       	ldd	r25, Y+58	; 0x3a

00002014 <.L1^B8>:
    2014:	01 97       	sbiw	r24, 0x01	; 1
    2016:	f1 f7       	brne	.-4      	; 0x2014 <.L1^B8>
    2018:	9a af       	std	Y+58, r25	; 0x3a
    201a:	89 af       	std	Y+57, r24	; 0x39

0000201c <.Loc.130>:
	...

0000201e <.L56>:
            {
                DEBOUNCE;
                status = 3;
    201e:	83 e0       	ldi	r24, 0x03	; 3
    2020:	90 e0       	ldi	r25, 0x00	; 0
    2022:	9a 83       	std	Y+2, r25	; 0x02
    2024:	89 83       	std	Y+1, r24	; 0x01

00002026 <.Loc.132>:
            }
            break;
    2026:	0c 94 52 1f 	jmp	0x3ea4	; 0x3ea4 <.L250>

0000202a <.L25>:

        case 3: // stijger_plaatsen
            h_bridge_set_percentage(0);
    202a:	80 e0       	ldi	r24, 0x00	; 0
    202c:	0e 94 cc 02 	call	0x598	; 0x598 <h_bridge_set_percentage>

00002030 <.Loc.134>:
            knipperLichten(0);
    2030:	80 e0       	ldi	r24, 0x00	; 0
    2032:	0e 94 e4 03 	call	0x7c8	; 0x7c8 <knipperLichten>

00002036 <.Loc.135>:

            LCD_Scherm_Leeg();
    2036:	0e 94 80 0b 	call	0x1700	; 0x1700 <LCD_Scherm_Leeg>

0000203a <.Loc.136>:
           	LCD_Naar_Locatie(1, 1);
    203a:	61 e0       	ldi	r22, 0x01	; 1
    203c:	81 e0       	ldi	r24, 0x01	; 1
    203e:	0e 94 64 0b 	call	0x16c8	; 0x16c8 <LCD_Naar_Locatie>

00002042 <.Loc.137>:
	    	Stuur_LCD_String("Plaats steiger");
    2042:	84 e2       	ldi	r24, 0x24	; 36
    2044:	92 e0       	ldi	r25, 0x02	; 2
    2046:	0e 94 42 0b 	call	0x1684	; 0x1684 <Stuur_LCD_String>

0000204a <.Loc.138>:

            if (((PINF & (1<<in_uit_klappen)) == 0) || (Bluetooth_Getal == 8)) //((PINF & (1<<in_uit_klappen)) == 0)        //Weer inklappen
    204a:	8f e2       	ldi	r24, 0x2F	; 47
    204c:	90 e0       	ldi	r25, 0x00	; 0
    204e:	dc 01       	movw	r26, r24
    2050:	8c 91       	ld	r24, X

00002052 <.Loc.139>:
    2052:	88 2f       	mov	r24, r24
    2054:	90 e0       	ldi	r25, 0x00	; 0
    2056:	88 70       	andi	r24, 0x08	; 8
    2058:	99 27       	eor	r25, r25

0000205a <.Loc.140>:
    205a:	00 97       	sbiw	r24, 0x00	; 0
    205c:	41 f0       	breq	.+16     	; 0x206e <.L57>

0000205e <.Loc.141>:
    205e:	80 91 90 02 	lds	r24, 0x0290	; 0x800290 <Bluetooth_Getal>
    2062:	90 91 91 02 	lds	r25, 0x0291	; 0x800291 <Bluetooth_Getal+0x1>

00002066 <.Loc.142>:
    2066:	88 30       	cpi	r24, 0x08	; 8
    2068:	91 05       	cpc	r25, r1
    206a:	09 f0       	breq	.+2      	; 0x206e <.L57>

0000206c <L0^A>:
    206c:	00 c1       	rjmp	.+512    	; 0x226e <.L58>

0000206e <.L57>:
    206e:	80 e0       	ldi	r24, 0x00	; 0
    2070:	90 e0       	ldi	r25, 0x00	; 0
    2072:	a0 ea       	ldi	r26, 0xA0	; 160
    2074:	b1 e4       	ldi	r27, 0x41	; 65
    2076:	8b af       	std	Y+59, r24	; 0x3b
    2078:	9c af       	std	Y+60, r25	; 0x3c
    207a:	ad af       	std	Y+61, r26	; 0x3d
    207c:	be af       	std	Y+62, r27	; 0x3e

0000207e <.LBB132>:
	__tmp = ((F_CPU) / 4e3) * __ms;
    207e:	8e 01       	movw	r16, r28
    2080:	01 5c       	subi	r16, 0xC1	; 193
    2082:	1f 4f       	sbci	r17, 0xFF	; 255
    2084:	20 e0       	ldi	r18, 0x00	; 0
    2086:	30 e0       	ldi	r19, 0x00	; 0
    2088:	4a e7       	ldi	r20, 0x7A	; 122
    208a:	55 e4       	ldi	r21, 0x45	; 69
    208c:	6b ad       	ldd	r22, Y+59	; 0x3b
    208e:	7c ad       	ldd	r23, Y+60	; 0x3c
    2090:	8d ad       	ldd	r24, Y+61	; 0x3d
    2092:	9e ad       	ldd	r25, Y+62	; 0x3e
    2094:	0e 94 15 24 	call	0x482a	; 0x482a <__mulsf3>
    2098:	cb 58       	subi	r28, 0x8B	; 139
    209a:	de 4f       	sbci	r29, 0xFE	; 254
    209c:	68 83       	st	Y, r22
    209e:	79 83       	std	Y+1, r23	; 0x01
    20a0:	8a 83       	std	Y+2, r24	; 0x02
    20a2:	9b 83       	std	Y+3, r25	; 0x03
    20a4:	c5 57       	subi	r28, 0x75	; 117
    20a6:	d1 40       	sbci	r29, 0x01	; 1
    20a8:	cb 58       	subi	r28, 0x8B	; 139
    20aa:	de 4f       	sbci	r29, 0xFE	; 254
    20ac:	88 81       	ld	r24, Y
    20ae:	99 81       	ldd	r25, Y+1	; 0x01
    20b0:	aa 81       	ldd	r26, Y+2	; 0x02
    20b2:	bb 81       	ldd	r27, Y+3	; 0x03
    20b4:	c5 57       	subi	r28, 0x75	; 117
    20b6:	d1 40       	sbci	r29, 0x01	; 1
    20b8:	f8 01       	movw	r30, r16
    20ba:	80 83       	st	Z, r24
    20bc:	91 83       	std	Z+1, r25	; 0x01
    20be:	a2 83       	std	Z+2, r26	; 0x02
    20c0:	b3 83       	std	Z+3, r27	; 0x03

000020c2 <.Loc.144>:
	if (__tmp < 1.0)
    20c2:	ce 01       	movw	r24, r28
    20c4:	cf 96       	adiw	r24, 0x3f	; 63
    20c6:	20 e0       	ldi	r18, 0x00	; 0
    20c8:	30 e0       	ldi	r19, 0x00	; 0
    20ca:	40 e8       	ldi	r20, 0x80	; 128
    20cc:	5f e3       	ldi	r21, 0x3F	; 63
    20ce:	dc 01       	movw	r26, r24
    20d0:	6d 91       	ld	r22, X+
    20d2:	7d 91       	ld	r23, X+
    20d4:	8d 91       	ld	r24, X+
    20d6:	9c 91       	ld	r25, X
    20d8:	0e 94 b8 22 	call	0x4570	; 0x4570 <__cmpsf2>
    20dc:	88 23       	and	r24, r24
    20de:	4c f4       	brge	.+18     	; 0x20f2 <.L222>

000020e0 <.Loc.145>:
		__ticks = 1;
    20e0:	ce 01       	movw	r24, r28
    20e2:	8d 5b       	subi	r24, 0xBD	; 189
    20e4:	9f 4f       	sbci	r25, 0xFF	; 255
    20e6:	21 e0       	ldi	r18, 0x01	; 1
    20e8:	30 e0       	ldi	r19, 0x00	; 0
    20ea:	fc 01       	movw	r30, r24
    20ec:	31 83       	std	Z+1, r19	; 0x01
    20ee:	20 83       	st	Z, r18
    20f0:	9f c0       	rjmp	.+318    	; 0x2230 <.L61>

000020f2 <.L222>:
	else if (__tmp > 65535)
    20f2:	ce 01       	movw	r24, r28
    20f4:	cf 96       	adiw	r24, 0x3f	; 63
    20f6:	20 e0       	ldi	r18, 0x00	; 0
    20f8:	3f ef       	ldi	r19, 0xFF	; 255
    20fa:	4f e7       	ldi	r20, 0x7F	; 127
    20fc:	57 e4       	ldi	r21, 0x47	; 71
    20fe:	dc 01       	movw	r26, r24
    2100:	6d 91       	ld	r22, X+
    2102:	7d 91       	ld	r23, X+
    2104:	8d 91       	ld	r24, X+
    2106:	9c 91       	ld	r25, X
    2108:	0e 94 10 24 	call	0x4820	; 0x4820 <__gesf2>
    210c:	88 23       	and	r24, r24
    210e:	09 f0       	breq	.+2      	; 0x2112 <L0^A>

00002110 <L0^A>:
    2110:	0c f4       	brge	.+2      	; 0x2114 <.Loc.147>

00002112 <L0^A>:
    2112:	71 c0       	rjmp	.+226    	; 0x21f6 <.L223>

00002114 <.Loc.147>:
		__ticks = (uint16_t) (__ms * 10.0);
    2114:	20 e0       	ldi	r18, 0x00	; 0
    2116:	30 e0       	ldi	r19, 0x00	; 0
    2118:	40 e2       	ldi	r20, 0x20	; 32
    211a:	51 e4       	ldi	r21, 0x41	; 65
    211c:	6b ad       	ldd	r22, Y+59	; 0x3b
    211e:	7c ad       	ldd	r23, Y+60	; 0x3c
    2120:	8d ad       	ldd	r24, Y+61	; 0x3d
    2122:	9e ad       	ldd	r25, Y+62	; 0x3e
    2124:	0e 94 15 24 	call	0x482a	; 0x482a <__mulsf3>
    2128:	c7 58       	subi	r28, 0x87	; 135
    212a:	de 4f       	sbci	r29, 0xFE	; 254
    212c:	68 83       	st	Y, r22
    212e:	79 83       	std	Y+1, r23	; 0x01
    2130:	8a 83       	std	Y+2, r24	; 0x02
    2132:	9b 83       	std	Y+3, r25	; 0x03
    2134:	c9 57       	subi	r28, 0x79	; 121
    2136:	d1 40       	sbci	r29, 0x01	; 1
    2138:	c7 58       	subi	r28, 0x87	; 135
    213a:	de 4f       	sbci	r29, 0xFE	; 254
    213c:	88 81       	ld	r24, Y
    213e:	99 81       	ldd	r25, Y+1	; 0x01
    2140:	aa 81       	ldd	r26, Y+2	; 0x02
    2142:	bb 81       	ldd	r27, Y+3	; 0x03
    2144:	c9 57       	subi	r28, 0x79	; 121
    2146:	d1 40       	sbci	r29, 0x01	; 1
    2148:	cf 5f       	subi	r28, 0xFF	; 255
    214a:	de 4f       	sbci	r29, 0xFE	; 254
    214c:	88 83       	st	Y, r24
    214e:	99 83       	std	Y+1, r25	; 0x01
    2150:	aa 83       	std	Y+2, r26	; 0x02
    2152:	bb 83       	std	Y+3, r27	; 0x03
    2154:	c1 50       	subi	r28, 0x01	; 1
    2156:	d1 40       	sbci	r29, 0x01	; 1

00002158 <.Loc.148>:
    2158:	8e 01       	movw	r16, r28
    215a:	0d 5b       	subi	r16, 0xBD	; 189
    215c:	1f 4f       	sbci	r17, 0xFF	; 255
    215e:	cf 5f       	subi	r28, 0xFF	; 255
    2160:	de 4f       	sbci	r29, 0xFE	; 254
    2162:	68 81       	ld	r22, Y
    2164:	79 81       	ldd	r23, Y+1	; 0x01
    2166:	8a 81       	ldd	r24, Y+2	; 0x02
    2168:	9b 81       	ldd	r25, Y+3	; 0x03
    216a:	c1 50       	subi	r28, 0x01	; 1
    216c:	d1 40       	sbci	r29, 0x01	; 1
    216e:	0e 94 2f 23 	call	0x465e	; 0x465e <__fixunssfsi>
    2172:	c3 58       	subi	r28, 0x83	; 131
    2174:	de 4f       	sbci	r29, 0xFE	; 254
    2176:	68 83       	st	Y, r22
    2178:	79 83       	std	Y+1, r23	; 0x01
    217a:	8a 83       	std	Y+2, r24	; 0x02
    217c:	9b 83       	std	Y+3, r25	; 0x03
    217e:	cd 57       	subi	r28, 0x7D	; 125
    2180:	d1 40       	sbci	r29, 0x01	; 1
    2182:	c3 58       	subi	r28, 0x83	; 131
    2184:	de 4f       	sbci	r29, 0xFE	; 254
    2186:	e8 81       	ld	r30, Y
    2188:	f9 81       	ldd	r31, Y+1	; 0x01
    218a:	cd 57       	subi	r28, 0x7D	; 125
    218c:	d1 40       	sbci	r29, 0x01	; 1
    218e:	d8 01       	movw	r26, r16
    2190:	11 96       	adiw	r26, 0x01	; 1
    2192:	fc 93       	st	X, r31
    2194:	ee 93       	st	-X, r30

00002196 <.Loc.149>:
		while(__ticks)
    2196:	26 c0       	rjmp	.+76     	; 0x21e4 <.L64>

00002198 <.L65>:
    2198:	ce 01       	movw	r24, r28
    219a:	8b 5b       	subi	r24, 0xBB	; 187
    219c:	9f 4f       	sbci	r25, 0xFF	; 255
    219e:	20 e9       	ldi	r18, 0x90	; 144
    21a0:	31 e0       	ldi	r19, 0x01	; 1
    21a2:	dc 01       	movw	r26, r24
    21a4:	2d 93       	st	X+, r18
    21a6:	3c 93       	st	X, r19

000021a8 <.LBB134>:
    21a8:	ce 01       	movw	r24, r28
    21aa:	8b 5b       	subi	r24, 0xBB	; 187
    21ac:	9f 4f       	sbci	r25, 0xFF	; 255
    21ae:	fc 01       	movw	r30, r24
    21b0:	80 81       	ld	r24, Z
    21b2:	91 81       	ldd	r25, Z+1	; 0x01

000021b4 <.L1^B9>:
    21b4:	01 97       	sbiw	r24, 0x01	; 1
    21b6:	f1 f7       	brne	.-4      	; 0x21b4 <.L1^B9>
    21b8:	9e 01       	movw	r18, r28
    21ba:	2b 5b       	subi	r18, 0xBB	; 187
    21bc:	3f 4f       	sbci	r19, 0xFF	; 255
    21be:	d9 01       	movw	r26, r18
    21c0:	8d 93       	st	X+, r24
    21c2:	9c 93       	st	X, r25

000021c4 <.Loc.151>:
	...

000021c6 <.LBE134>:
			__ticks --;
    21c6:	ce 01       	movw	r24, r28
    21c8:	8d 5b       	subi	r24, 0xBD	; 189
    21ca:	9f 4f       	sbci	r25, 0xFF	; 255
    21cc:	9e 01       	movw	r18, r28
    21ce:	2d 5b       	subi	r18, 0xBD	; 189
    21d0:	3f 4f       	sbci	r19, 0xFF	; 255
    21d2:	f9 01       	movw	r30, r18
    21d4:	20 81       	ld	r18, Z
    21d6:	31 81       	ldd	r19, Z+1	; 0x01
    21d8:	21 50       	subi	r18, 0x01	; 1
    21da:	31 09       	sbc	r19, r1
    21dc:	dc 01       	movw	r26, r24
    21de:	11 96       	adiw	r26, 0x01	; 1
    21e0:	3c 93       	st	X, r19
    21e2:	2e 93       	st	-X, r18

000021e4 <.L64>:
		while(__ticks)
    21e4:	ce 01       	movw	r24, r28
    21e6:	8d 5b       	subi	r24, 0xBD	; 189
    21e8:	9f 4f       	sbci	r25, 0xFF	; 255
    21ea:	fc 01       	movw	r30, r24
    21ec:	80 81       	ld	r24, Z
    21ee:	91 81       	ldd	r25, Z+1	; 0x01
    21f0:	00 97       	sbiw	r24, 0x00	; 0
    21f2:	91 f6       	brne	.-92     	; 0x2198 <.L65>

000021f4 <.Loc.154>:
		return;
    21f4:	38 c0       	rjmp	.+112    	; 0x2266 <.L66>

000021f6 <.L223>:
		__ticks = (uint16_t)__tmp;
    21f6:	8e 01       	movw	r16, r28
    21f8:	0d 5b       	subi	r16, 0xBD	; 189
    21fa:	1f 4f       	sbci	r17, 0xFF	; 255
    21fc:	ce 01       	movw	r24, r28
    21fe:	cf 96       	adiw	r24, 0x3f	; 63
    2200:	dc 01       	movw	r26, r24
    2202:	6d 91       	ld	r22, X+
    2204:	7d 91       	ld	r23, X+
    2206:	8d 91       	ld	r24, X+
    2208:	9c 91       	ld	r25, X
    220a:	0e 94 2f 23 	call	0x465e	; 0x465e <__fixunssfsi>
    220e:	cf 57       	subi	r28, 0x7F	; 127
    2210:	de 4f       	sbci	r29, 0xFE	; 254
    2212:	68 83       	st	Y, r22
    2214:	79 83       	std	Y+1, r23	; 0x01
    2216:	8a 83       	std	Y+2, r24	; 0x02
    2218:	9b 83       	std	Y+3, r25	; 0x03
    221a:	c1 58       	subi	r28, 0x81	; 129
    221c:	d1 40       	sbci	r29, 0x01	; 1
    221e:	cf 57       	subi	r28, 0x7F	; 127
    2220:	de 4f       	sbci	r29, 0xFE	; 254
    2222:	88 81       	ld	r24, Y
    2224:	99 81       	ldd	r25, Y+1	; 0x01
    2226:	c1 58       	subi	r28, 0x81	; 129
    2228:	d1 40       	sbci	r29, 0x01	; 1
    222a:	f8 01       	movw	r30, r16
    222c:	91 83       	std	Z+1, r25	; 0x01
    222e:	80 83       	st	Z, r24

00002230 <.L61>:
    2230:	ce 01       	movw	r24, r28
    2232:	89 5b       	subi	r24, 0xB9	; 185
    2234:	9f 4f       	sbci	r25, 0xFF	; 255
    2236:	9e 01       	movw	r18, r28
    2238:	2d 5b       	subi	r18, 0xBD	; 189
    223a:	3f 4f       	sbci	r19, 0xFF	; 255
    223c:	d9 01       	movw	r26, r18
    223e:	2d 91       	ld	r18, X+
    2240:	3c 91       	ld	r19, X
    2242:	fc 01       	movw	r30, r24
    2244:	31 83       	std	Z+1, r19	; 0x01
    2246:	20 83       	st	Z, r18

00002248 <.LBB136>:
    2248:	ce 01       	movw	r24, r28
    224a:	89 5b       	subi	r24, 0xB9	; 185
    224c:	9f 4f       	sbci	r25, 0xFF	; 255
    224e:	dc 01       	movw	r26, r24
    2250:	8d 91       	ld	r24, X+
    2252:	9c 91       	ld	r25, X

00002254 <.L1^B10>:
    2254:	01 97       	sbiw	r24, 0x01	; 1
    2256:	f1 f7       	brne	.-4      	; 0x2254 <.L1^B10>
    2258:	9e 01       	movw	r18, r28
    225a:	29 5b       	subi	r18, 0xB9	; 185
    225c:	3f 4f       	sbci	r19, 0xFF	; 255
    225e:	f9 01       	movw	r30, r18
    2260:	91 83       	std	Z+1, r25	; 0x01
    2262:	80 83       	st	Z, r24

00002264 <.Loc.157>:
	...

00002266 <.L66>:
            {
                DEBOUNCE;
                status = 12;
    2266:	8c e0       	ldi	r24, 0x0C	; 12
    2268:	90 e0       	ldi	r25, 0x00	; 0
    226a:	9a 83       	std	Y+2, r25	; 0x02
    226c:	89 83       	std	Y+1, r24	; 0x01

0000226e <.L58>:
            }
            if (((PINF & (1<<opbouw_knop)) == 0) || (Bluetooth_Getal == 3))//((PINF & (1<<opbouw_knop)) == 0)       //Opbouwen
    226e:	8f e2       	ldi	r24, 0x2F	; 47
    2270:	90 e0       	ldi	r25, 0x00	; 0
    2272:	dc 01       	movw	r26, r24
    2274:	8c 91       	ld	r24, X

00002276 <.Loc.160>:
    2276:	88 2f       	mov	r24, r24
    2278:	90 e0       	ldi	r25, 0x00	; 0
    227a:	81 70       	andi	r24, 0x01	; 1
    227c:	99 27       	eor	r25, r25

0000227e <.Loc.161>:
    227e:	00 97       	sbiw	r24, 0x00	; 0
    2280:	49 f0       	breq	.+18     	; 0x2294 <.L67>

00002282 <.Loc.162>:
    2282:	80 91 90 02 	lds	r24, 0x0290	; 0x800290 <Bluetooth_Getal>
    2286:	90 91 91 02 	lds	r25, 0x0291	; 0x800291 <Bluetooth_Getal+0x1>

0000228a <.Loc.163>:
    228a:	83 30       	cpi	r24, 0x03	; 3
    228c:	91 05       	cpc	r25, r1
    228e:	11 f0       	breq	.+4      	; 0x2294 <.L67>

00002290 <L0^A>:
    2290:	0c 94 55 1f 	jmp	0x3eaa	; 0x3eaa <.L251>

00002294 <.L67>:
    2294:	9e 01       	movw	r18, r28
    2296:	27 5b       	subi	r18, 0xB7	; 183
    2298:	3f 4f       	sbci	r19, 0xFF	; 255
    229a:	80 e0       	ldi	r24, 0x00	; 0
    229c:	90 e0       	ldi	r25, 0x00	; 0
    229e:	a0 ea       	ldi	r26, 0xA0	; 160
    22a0:	b1 e4       	ldi	r27, 0x41	; 65
    22a2:	f9 01       	movw	r30, r18
    22a4:	80 83       	st	Z, r24
    22a6:	91 83       	std	Z+1, r25	; 0x01
    22a8:	a2 83       	std	Z+2, r26	; 0x02
    22aa:	b3 83       	std	Z+3, r27	; 0x03

000022ac <.LBB138>:
	__tmp = ((F_CPU) / 4e3) * __ms;
    22ac:	8e 01       	movw	r16, r28
    22ae:	03 5b       	subi	r16, 0xB3	; 179
    22b0:	1f 4f       	sbci	r17, 0xFF	; 255
    22b2:	ce 01       	movw	r24, r28
    22b4:	87 5b       	subi	r24, 0xB7	; 183
    22b6:	9f 4f       	sbci	r25, 0xFF	; 255
    22b8:	20 e0       	ldi	r18, 0x00	; 0
    22ba:	30 e0       	ldi	r19, 0x00	; 0
    22bc:	4a e7       	ldi	r20, 0x7A	; 122
    22be:	55 e4       	ldi	r21, 0x45	; 69
    22c0:	dc 01       	movw	r26, r24
    22c2:	6d 91       	ld	r22, X+
    22c4:	7d 91       	ld	r23, X+
    22c6:	8d 91       	ld	r24, X+
    22c8:	9c 91       	ld	r25, X
    22ca:	0e 94 15 24 	call	0x482a	; 0x482a <__mulsf3>
    22ce:	cb 57       	subi	r28, 0x7B	; 123
    22d0:	de 4f       	sbci	r29, 0xFE	; 254
    22d2:	68 83       	st	Y, r22
    22d4:	79 83       	std	Y+1, r23	; 0x01
    22d6:	8a 83       	std	Y+2, r24	; 0x02
    22d8:	9b 83       	std	Y+3, r25	; 0x03
    22da:	c5 58       	subi	r28, 0x85	; 133
    22dc:	d1 40       	sbci	r29, 0x01	; 1
    22de:	cb 57       	subi	r28, 0x7B	; 123
    22e0:	de 4f       	sbci	r29, 0xFE	; 254
    22e2:	88 81       	ld	r24, Y
    22e4:	99 81       	ldd	r25, Y+1	; 0x01
    22e6:	aa 81       	ldd	r26, Y+2	; 0x02
    22e8:	bb 81       	ldd	r27, Y+3	; 0x03
    22ea:	c5 58       	subi	r28, 0x85	; 133
    22ec:	d1 40       	sbci	r29, 0x01	; 1
    22ee:	f8 01       	movw	r30, r16
    22f0:	80 83       	st	Z, r24
    22f2:	91 83       	std	Z+1, r25	; 0x01
    22f4:	a2 83       	std	Z+2, r26	; 0x02
    22f6:	b3 83       	std	Z+3, r27	; 0x03

000022f8 <.Loc.165>:
	if (__tmp < 1.0)
    22f8:	ce 01       	movw	r24, r28
    22fa:	83 5b       	subi	r24, 0xB3	; 179
    22fc:	9f 4f       	sbci	r25, 0xFF	; 255
    22fe:	20 e0       	ldi	r18, 0x00	; 0
    2300:	30 e0       	ldi	r19, 0x00	; 0
    2302:	40 e8       	ldi	r20, 0x80	; 128
    2304:	5f e3       	ldi	r21, 0x3F	; 63
    2306:	dc 01       	movw	r26, r24
    2308:	6d 91       	ld	r22, X+
    230a:	7d 91       	ld	r23, X+
    230c:	8d 91       	ld	r24, X+
    230e:	9c 91       	ld	r25, X
    2310:	0e 94 b8 22 	call	0x4570	; 0x4570 <__cmpsf2>
    2314:	88 23       	and	r24, r24
    2316:	4c f4       	brge	.+18     	; 0x232a <.L224>

00002318 <.Loc.166>:
		__ticks = 1;
    2318:	ce 01       	movw	r24, r28
    231a:	8f 5a       	subi	r24, 0xAF	; 175
    231c:	9f 4f       	sbci	r25, 0xFF	; 255
    231e:	21 e0       	ldi	r18, 0x01	; 1
    2320:	30 e0       	ldi	r19, 0x00	; 0
    2322:	fc 01       	movw	r30, r24
    2324:	31 83       	std	Z+1, r19	; 0x01
    2326:	20 83       	st	Z, r18
    2328:	a5 c0       	rjmp	.+330    	; 0x2474 <.L71>

0000232a <.L224>:
	else if (__tmp > 65535)
    232a:	ce 01       	movw	r24, r28
    232c:	83 5b       	subi	r24, 0xB3	; 179
    232e:	9f 4f       	sbci	r25, 0xFF	; 255
    2330:	20 e0       	ldi	r18, 0x00	; 0
    2332:	3f ef       	ldi	r19, 0xFF	; 255
    2334:	4f e7       	ldi	r20, 0x7F	; 127
    2336:	57 e4       	ldi	r21, 0x47	; 71
    2338:	dc 01       	movw	r26, r24
    233a:	6d 91       	ld	r22, X+
    233c:	7d 91       	ld	r23, X+
    233e:	8d 91       	ld	r24, X+
    2340:	9c 91       	ld	r25, X
    2342:	0e 94 10 24 	call	0x4820	; 0x4820 <__gesf2>
    2346:	88 23       	and	r24, r24
    2348:	09 f0       	breq	.+2      	; 0x234c <L0^A>

0000234a <L0^A>:
    234a:	0c f4       	brge	.+2      	; 0x234e <.Loc.168>

0000234c <L0^A>:
    234c:	75 c0       	rjmp	.+234    	; 0x2438 <.L225>

0000234e <.Loc.168>:
		__ticks = (uint16_t) (__ms * 10.0);
    234e:	ce 01       	movw	r24, r28
    2350:	87 5b       	subi	r24, 0xB7	; 183
    2352:	9f 4f       	sbci	r25, 0xFF	; 255
    2354:	20 e0       	ldi	r18, 0x00	; 0
    2356:	30 e0       	ldi	r19, 0x00	; 0
    2358:	40 e2       	ldi	r20, 0x20	; 32
    235a:	51 e4       	ldi	r21, 0x41	; 65
    235c:	fc 01       	movw	r30, r24
    235e:	60 81       	ld	r22, Z
    2360:	71 81       	ldd	r23, Z+1	; 0x01
    2362:	82 81       	ldd	r24, Z+2	; 0x02
    2364:	93 81       	ldd	r25, Z+3	; 0x03
    2366:	0e 94 15 24 	call	0x482a	; 0x482a <__mulsf3>
    236a:	c7 57       	subi	r28, 0x77	; 119
    236c:	de 4f       	sbci	r29, 0xFE	; 254
    236e:	68 83       	st	Y, r22
    2370:	79 83       	std	Y+1, r23	; 0x01
    2372:	8a 83       	std	Y+2, r24	; 0x02
    2374:	9b 83       	std	Y+3, r25	; 0x03
    2376:	c9 58       	subi	r28, 0x89	; 137
    2378:	d1 40       	sbci	r29, 0x01	; 1
    237a:	c7 57       	subi	r28, 0x77	; 119
    237c:	de 4f       	sbci	r29, 0xFE	; 254
    237e:	88 81       	ld	r24, Y
    2380:	99 81       	ldd	r25, Y+1	; 0x01
    2382:	aa 81       	ldd	r26, Y+2	; 0x02
    2384:	bb 81       	ldd	r27, Y+3	; 0x03
    2386:	c9 58       	subi	r28, 0x89	; 137
    2388:	d1 40       	sbci	r29, 0x01	; 1
    238a:	cb 5f       	subi	r28, 0xFB	; 251
    238c:	de 4f       	sbci	r29, 0xFE	; 254
    238e:	88 83       	st	Y, r24
    2390:	99 83       	std	Y+1, r25	; 0x01
    2392:	aa 83       	std	Y+2, r26	; 0x02
    2394:	bb 83       	std	Y+3, r27	; 0x03
    2396:	c5 50       	subi	r28, 0x05	; 5
    2398:	d1 40       	sbci	r29, 0x01	; 1

0000239a <.Loc.169>:
    239a:	8e 01       	movw	r16, r28
    239c:	0f 5a       	subi	r16, 0xAF	; 175
    239e:	1f 4f       	sbci	r17, 0xFF	; 255
    23a0:	cb 5f       	subi	r28, 0xFB	; 251
    23a2:	de 4f       	sbci	r29, 0xFE	; 254
    23a4:	68 81       	ld	r22, Y
    23a6:	79 81       	ldd	r23, Y+1	; 0x01
    23a8:	8a 81       	ldd	r24, Y+2	; 0x02
    23aa:	9b 81       	ldd	r25, Y+3	; 0x03
    23ac:	c5 50       	subi	r28, 0x05	; 5
    23ae:	d1 40       	sbci	r29, 0x01	; 1
    23b0:	0e 94 2f 23 	call	0x465e	; 0x465e <__fixunssfsi>
    23b4:	c3 57       	subi	r28, 0x73	; 115
    23b6:	de 4f       	sbci	r29, 0xFE	; 254
    23b8:	68 83       	st	Y, r22
    23ba:	79 83       	std	Y+1, r23	; 0x01
    23bc:	8a 83       	std	Y+2, r24	; 0x02
    23be:	9b 83       	std	Y+3, r25	; 0x03
    23c0:	cd 58       	subi	r28, 0x8D	; 141
    23c2:	d1 40       	sbci	r29, 0x01	; 1
    23c4:	c3 57       	subi	r28, 0x73	; 115
    23c6:	de 4f       	sbci	r29, 0xFE	; 254
    23c8:	e8 81       	ld	r30, Y
    23ca:	f9 81       	ldd	r31, Y+1	; 0x01
    23cc:	cd 58       	subi	r28, 0x8D	; 141
    23ce:	d1 40       	sbci	r29, 0x01	; 1
    23d0:	d8 01       	movw	r26, r16
    23d2:	11 96       	adiw	r26, 0x01	; 1
    23d4:	fc 93       	st	X, r31
    23d6:	ee 93       	st	-X, r30

000023d8 <.Loc.170>:
		while(__ticks)
    23d8:	26 c0       	rjmp	.+76     	; 0x2426 <.L74>

000023da <.L75>:
    23da:	ce 01       	movw	r24, r28
    23dc:	8d 5a       	subi	r24, 0xAD	; 173
    23de:	9f 4f       	sbci	r25, 0xFF	; 255
    23e0:	20 e9       	ldi	r18, 0x90	; 144
    23e2:	31 e0       	ldi	r19, 0x01	; 1
    23e4:	dc 01       	movw	r26, r24
    23e6:	2d 93       	st	X+, r18
    23e8:	3c 93       	st	X, r19

000023ea <.LBB140>:
    23ea:	ce 01       	movw	r24, r28
    23ec:	8d 5a       	subi	r24, 0xAD	; 173
    23ee:	9f 4f       	sbci	r25, 0xFF	; 255
    23f0:	fc 01       	movw	r30, r24
    23f2:	80 81       	ld	r24, Z
    23f4:	91 81       	ldd	r25, Z+1	; 0x01

000023f6 <.L1^B11>:
    23f6:	01 97       	sbiw	r24, 0x01	; 1
    23f8:	f1 f7       	brne	.-4      	; 0x23f6 <.L1^B11>
    23fa:	9e 01       	movw	r18, r28
    23fc:	2d 5a       	subi	r18, 0xAD	; 173
    23fe:	3f 4f       	sbci	r19, 0xFF	; 255
    2400:	d9 01       	movw	r26, r18
    2402:	8d 93       	st	X+, r24
    2404:	9c 93       	st	X, r25

00002406 <.Loc.172>:
	...

00002408 <.LBE140>:
			__ticks --;
    2408:	ce 01       	movw	r24, r28
    240a:	8f 5a       	subi	r24, 0xAF	; 175
    240c:	9f 4f       	sbci	r25, 0xFF	; 255
    240e:	9e 01       	movw	r18, r28
    2410:	2f 5a       	subi	r18, 0xAF	; 175
    2412:	3f 4f       	sbci	r19, 0xFF	; 255
    2414:	f9 01       	movw	r30, r18
    2416:	20 81       	ld	r18, Z
    2418:	31 81       	ldd	r19, Z+1	; 0x01
    241a:	21 50       	subi	r18, 0x01	; 1
    241c:	31 09       	sbc	r19, r1
    241e:	dc 01       	movw	r26, r24
    2420:	11 96       	adiw	r26, 0x01	; 1
    2422:	3c 93       	st	X, r19
    2424:	2e 93       	st	-X, r18

00002426 <.L74>:
		while(__ticks)
    2426:	ce 01       	movw	r24, r28
    2428:	8f 5a       	subi	r24, 0xAF	; 175
    242a:	9f 4f       	sbci	r25, 0xFF	; 255
    242c:	fc 01       	movw	r30, r24
    242e:	80 81       	ld	r24, Z
    2430:	91 81       	ldd	r25, Z+1	; 0x01
    2432:	00 97       	sbiw	r24, 0x00	; 0
    2434:	91 f6       	brne	.-92     	; 0x23da <.L75>

00002436 <.Loc.175>:
		return;
    2436:	3a c0       	rjmp	.+116    	; 0x24ac <.L76>

00002438 <.L225>:
		__ticks = (uint16_t)__tmp;
    2438:	8e 01       	movw	r16, r28
    243a:	0f 5a       	subi	r16, 0xAF	; 175
    243c:	1f 4f       	sbci	r17, 0xFF	; 255
    243e:	ce 01       	movw	r24, r28
    2440:	83 5b       	subi	r24, 0xB3	; 179
    2442:	9f 4f       	sbci	r25, 0xFF	; 255
    2444:	dc 01       	movw	r26, r24
    2446:	6d 91       	ld	r22, X+
    2448:	7d 91       	ld	r23, X+
    244a:	8d 91       	ld	r24, X+
    244c:	9c 91       	ld	r25, X
    244e:	0e 94 2f 23 	call	0x465e	; 0x465e <__fixunssfsi>
    2452:	cf 56       	subi	r28, 0x6F	; 111
    2454:	de 4f       	sbci	r29, 0xFE	; 254
    2456:	68 83       	st	Y, r22
    2458:	79 83       	std	Y+1, r23	; 0x01
    245a:	8a 83       	std	Y+2, r24	; 0x02
    245c:	9b 83       	std	Y+3, r25	; 0x03
    245e:	c1 59       	subi	r28, 0x91	; 145
    2460:	d1 40       	sbci	r29, 0x01	; 1
    2462:	cf 56       	subi	r28, 0x6F	; 111
    2464:	de 4f       	sbci	r29, 0xFE	; 254
    2466:	88 81       	ld	r24, Y
    2468:	99 81       	ldd	r25, Y+1	; 0x01
    246a:	c1 59       	subi	r28, 0x91	; 145
    246c:	d1 40       	sbci	r29, 0x01	; 1
    246e:	f8 01       	movw	r30, r16
    2470:	91 83       	std	Z+1, r25	; 0x01
    2472:	80 83       	st	Z, r24

00002474 <.L71>:
    2474:	ce 01       	movw	r24, r28
    2476:	8b 5a       	subi	r24, 0xAB	; 171
    2478:	9f 4f       	sbci	r25, 0xFF	; 255
    247a:	9e 01       	movw	r18, r28
    247c:	2f 5a       	subi	r18, 0xAF	; 175
    247e:	3f 4f       	sbci	r19, 0xFF	; 255
    2480:	d9 01       	movw	r26, r18
    2482:	2d 91       	ld	r18, X+
    2484:	3c 91       	ld	r19, X
    2486:	fc 01       	movw	r30, r24
    2488:	31 83       	std	Z+1, r19	; 0x01
    248a:	20 83       	st	Z, r18

0000248c <.LBB142>:
    248c:	ce 01       	movw	r24, r28
    248e:	8b 5a       	subi	r24, 0xAB	; 171
    2490:	9f 4f       	sbci	r25, 0xFF	; 255
    2492:	dc 01       	movw	r26, r24
    2494:	8d 91       	ld	r24, X+
    2496:	9c 91       	ld	r25, X
    2498:	11 97       	sbiw	r26, 0x01	; 1

0000249a <.L1^B12>:
    249a:	01 97       	sbiw	r24, 0x01	; 1
    249c:	f1 f7       	brne	.-4      	; 0x249a <.L1^B12>
    249e:	9e 01       	movw	r18, r28
    24a0:	2b 5a       	subi	r18, 0xAB	; 171
    24a2:	3f 4f       	sbci	r19, 0xFF	; 255
    24a4:	f9 01       	movw	r30, r18
    24a6:	91 83       	std	Z+1, r25	; 0x01
    24a8:	80 83       	st	Z, r24

000024aa <.Loc.178>:
	...

000024ac <.L76>:
            {
                DEBOUNCE;
                status = 4;
    24ac:	84 e0       	ldi	r24, 0x04	; 4
    24ae:	90 e0       	ldi	r25, 0x00	; 0
    24b0:	9a 83       	std	Y+2, r25	; 0x02
    24b2:	89 83       	std	Y+1, r24	; 0x01

000024b4 <.Loc.180>:
            }
            break;
    24b4:	0c 94 55 1f 	jmp	0x3eaa	; 0x3eaa <.L251>

000024b8 <.L24>:

        case 4: // opbouwen
            set_servo_direction(1); // uitgeklapt
    24b8:	81 e0       	ldi	r24, 0x01	; 1
    24ba:	0e 94 08 04 	call	0x810	; 0x810 <set_servo_direction>

000024be <.Loc.182>:
            buzzer(1); // aan
    24be:	81 e0       	ldi	r24, 0x01	; 1
    24c0:	0e 94 b8 03 	call	0x770	; 0x770 <buzzer>

000024c4 <.Loc.183>:
            knipperLichten(1); // aan
    24c4:	81 e0       	ldi	r24, 0x01	; 1
    24c6:	0e 94 e4 03 	call	0x7c8	; 0x7c8 <knipperLichten>

000024ca <.Loc.184>:

            LCD_Scherm_Leeg();
    24ca:	0e 94 80 0b 	call	0x1700	; 0x1700 <LCD_Scherm_Leeg>

000024ce <.Loc.185>:
           	LCD_Naar_Locatie(1, 1);
    24ce:	61 e0       	ldi	r22, 0x01	; 1
    24d0:	81 e0       	ldi	r24, 0x01	; 1
    24d2:	0e 94 64 0b 	call	0x16c8	; 0x16c8 <LCD_Naar_Locatie>

000024d6 <.Loc.186>:
	    	Stuur_LCD_String("Opbouwen");
    24d6:	83 e3       	ldi	r24, 0x33	; 51
    24d8:	92 e0       	ldi	r25, 0x02	; 2
    24da:	0e 94 42 0b 	call	0x1684	; 0x1684 <Stuur_LCD_String>
    24de:	9e 01       	movw	r18, r28
    24e0:	29 5a       	subi	r18, 0xA9	; 169
    24e2:	3f 4f       	sbci	r19, 0xFF	; 255
    24e4:	80 e0       	ldi	r24, 0x00	; 0
    24e6:	90 e0       	ldi	r25, 0x00	; 0
    24e8:	aa ef       	ldi	r26, 0xFA	; 250
    24ea:	b3 e4       	ldi	r27, 0x43	; 67
    24ec:	f9 01       	movw	r30, r18
    24ee:	80 83       	st	Z, r24
    24f0:	91 83       	std	Z+1, r25	; 0x01
    24f2:	a2 83       	std	Z+2, r26	; 0x02
    24f4:	b3 83       	std	Z+3, r27	; 0x03

000024f6 <.LBB144>:
	__tmp = ((F_CPU) / 4e3) * __ms;
    24f6:	8e 01       	movw	r16, r28
    24f8:	05 5a       	subi	r16, 0xA5	; 165
    24fa:	1f 4f       	sbci	r17, 0xFF	; 255
    24fc:	ce 01       	movw	r24, r28
    24fe:	89 5a       	subi	r24, 0xA9	; 169
    2500:	9f 4f       	sbci	r25, 0xFF	; 255
    2502:	20 e0       	ldi	r18, 0x00	; 0
    2504:	30 e0       	ldi	r19, 0x00	; 0
    2506:	4a e7       	ldi	r20, 0x7A	; 122
    2508:	55 e4       	ldi	r21, 0x45	; 69
    250a:	dc 01       	movw	r26, r24
    250c:	6d 91       	ld	r22, X+
    250e:	7d 91       	ld	r23, X+
    2510:	8d 91       	ld	r24, X+
    2512:	9c 91       	ld	r25, X
    2514:	0e 94 15 24 	call	0x482a	; 0x482a <__mulsf3>
    2518:	cb 56       	subi	r28, 0x6B	; 107
    251a:	de 4f       	sbci	r29, 0xFE	; 254
    251c:	68 83       	st	Y, r22
    251e:	79 83       	std	Y+1, r23	; 0x01
    2520:	8a 83       	std	Y+2, r24	; 0x02
    2522:	9b 83       	std	Y+3, r25	; 0x03
    2524:	c5 59       	subi	r28, 0x95	; 149
    2526:	d1 40       	sbci	r29, 0x01	; 1
    2528:	cb 56       	subi	r28, 0x6B	; 107
    252a:	de 4f       	sbci	r29, 0xFE	; 254
    252c:	88 81       	ld	r24, Y
    252e:	99 81       	ldd	r25, Y+1	; 0x01
    2530:	aa 81       	ldd	r26, Y+2	; 0x02
    2532:	bb 81       	ldd	r27, Y+3	; 0x03
    2534:	c5 59       	subi	r28, 0x95	; 149
    2536:	d1 40       	sbci	r29, 0x01	; 1
    2538:	f8 01       	movw	r30, r16
    253a:	80 83       	st	Z, r24
    253c:	91 83       	std	Z+1, r25	; 0x01
    253e:	a2 83       	std	Z+2, r26	; 0x02
    2540:	b3 83       	std	Z+3, r27	; 0x03

00002542 <.Loc.188>:
	if (__tmp < 1.0)
    2542:	ce 01       	movw	r24, r28
    2544:	85 5a       	subi	r24, 0xA5	; 165
    2546:	9f 4f       	sbci	r25, 0xFF	; 255
    2548:	20 e0       	ldi	r18, 0x00	; 0
    254a:	30 e0       	ldi	r19, 0x00	; 0
    254c:	40 e8       	ldi	r20, 0x80	; 128
    254e:	5f e3       	ldi	r21, 0x3F	; 63
    2550:	dc 01       	movw	r26, r24
    2552:	6d 91       	ld	r22, X+
    2554:	7d 91       	ld	r23, X+
    2556:	8d 91       	ld	r24, X+
    2558:	9c 91       	ld	r25, X
    255a:	0e 94 b8 22 	call	0x4570	; 0x4570 <__cmpsf2>
    255e:	88 23       	and	r24, r24
    2560:	4c f4       	brge	.+18     	; 0x2574 <.L226>

00002562 <.Loc.189>:
		__ticks = 1;
    2562:	ce 01       	movw	r24, r28
    2564:	81 5a       	subi	r24, 0xA1	; 161
    2566:	9f 4f       	sbci	r25, 0xFF	; 255
    2568:	21 e0       	ldi	r18, 0x01	; 1
    256a:	30 e0       	ldi	r19, 0x00	; 0
    256c:	fc 01       	movw	r30, r24
    256e:	31 83       	std	Z+1, r19	; 0x01
    2570:	20 83       	st	Z, r18
    2572:	a5 c0       	rjmp	.+330    	; 0x26be <.L79>

00002574 <.L226>:
	else if (__tmp > 65535)
    2574:	ce 01       	movw	r24, r28
    2576:	85 5a       	subi	r24, 0xA5	; 165
    2578:	9f 4f       	sbci	r25, 0xFF	; 255
    257a:	20 e0       	ldi	r18, 0x00	; 0
    257c:	3f ef       	ldi	r19, 0xFF	; 255
    257e:	4f e7       	ldi	r20, 0x7F	; 127
    2580:	57 e4       	ldi	r21, 0x47	; 71
    2582:	dc 01       	movw	r26, r24
    2584:	6d 91       	ld	r22, X+
    2586:	7d 91       	ld	r23, X+
    2588:	8d 91       	ld	r24, X+
    258a:	9c 91       	ld	r25, X
    258c:	0e 94 10 24 	call	0x4820	; 0x4820 <__gesf2>
    2590:	88 23       	and	r24, r24
    2592:	09 f0       	breq	.+2      	; 0x2596 <L0^A>

00002594 <L0^A>:
    2594:	0c f4       	brge	.+2      	; 0x2598 <.Loc.191>

00002596 <L0^A>:
    2596:	75 c0       	rjmp	.+234    	; 0x2682 <.L227>

00002598 <.Loc.191>:
		__ticks = (uint16_t) (__ms * 10.0);
    2598:	ce 01       	movw	r24, r28
    259a:	89 5a       	subi	r24, 0xA9	; 169
    259c:	9f 4f       	sbci	r25, 0xFF	; 255
    259e:	20 e0       	ldi	r18, 0x00	; 0
    25a0:	30 e0       	ldi	r19, 0x00	; 0
    25a2:	40 e2       	ldi	r20, 0x20	; 32
    25a4:	51 e4       	ldi	r21, 0x41	; 65
    25a6:	fc 01       	movw	r30, r24
    25a8:	60 81       	ld	r22, Z
    25aa:	71 81       	ldd	r23, Z+1	; 0x01
    25ac:	82 81       	ldd	r24, Z+2	; 0x02
    25ae:	93 81       	ldd	r25, Z+3	; 0x03
    25b0:	0e 94 15 24 	call	0x482a	; 0x482a <__mulsf3>
    25b4:	c7 56       	subi	r28, 0x67	; 103
    25b6:	de 4f       	sbci	r29, 0xFE	; 254
    25b8:	68 83       	st	Y, r22
    25ba:	79 83       	std	Y+1, r23	; 0x01
    25bc:	8a 83       	std	Y+2, r24	; 0x02
    25be:	9b 83       	std	Y+3, r25	; 0x03
    25c0:	c9 59       	subi	r28, 0x99	; 153
    25c2:	d1 40       	sbci	r29, 0x01	; 1
    25c4:	c7 56       	subi	r28, 0x67	; 103
    25c6:	de 4f       	sbci	r29, 0xFE	; 254
    25c8:	88 81       	ld	r24, Y
    25ca:	99 81       	ldd	r25, Y+1	; 0x01
    25cc:	aa 81       	ldd	r26, Y+2	; 0x02
    25ce:	bb 81       	ldd	r27, Y+3	; 0x03
    25d0:	c9 59       	subi	r28, 0x99	; 153
    25d2:	d1 40       	sbci	r29, 0x01	; 1
    25d4:	c7 5f       	subi	r28, 0xF7	; 247
    25d6:	de 4f       	sbci	r29, 0xFE	; 254
    25d8:	88 83       	st	Y, r24
    25da:	99 83       	std	Y+1, r25	; 0x01
    25dc:	aa 83       	std	Y+2, r26	; 0x02
    25de:	bb 83       	std	Y+3, r27	; 0x03
    25e0:	c9 50       	subi	r28, 0x09	; 9
    25e2:	d1 40       	sbci	r29, 0x01	; 1

000025e4 <.Loc.192>:
    25e4:	8e 01       	movw	r16, r28
    25e6:	01 5a       	subi	r16, 0xA1	; 161
    25e8:	1f 4f       	sbci	r17, 0xFF	; 255
    25ea:	c7 5f       	subi	r28, 0xF7	; 247
    25ec:	de 4f       	sbci	r29, 0xFE	; 254
    25ee:	68 81       	ld	r22, Y
    25f0:	79 81       	ldd	r23, Y+1	; 0x01
    25f2:	8a 81       	ldd	r24, Y+2	; 0x02
    25f4:	9b 81       	ldd	r25, Y+3	; 0x03
    25f6:	c9 50       	subi	r28, 0x09	; 9
    25f8:	d1 40       	sbci	r29, 0x01	; 1
    25fa:	0e 94 2f 23 	call	0x465e	; 0x465e <__fixunssfsi>
    25fe:	c3 56       	subi	r28, 0x63	; 99
    2600:	de 4f       	sbci	r29, 0xFE	; 254
    2602:	68 83       	st	Y, r22
    2604:	79 83       	std	Y+1, r23	; 0x01
    2606:	8a 83       	std	Y+2, r24	; 0x02
    2608:	9b 83       	std	Y+3, r25	; 0x03
    260a:	cd 59       	subi	r28, 0x9D	; 157
    260c:	d1 40       	sbci	r29, 0x01	; 1
    260e:	c3 56       	subi	r28, 0x63	; 99
    2610:	de 4f       	sbci	r29, 0xFE	; 254
    2612:	e8 81       	ld	r30, Y
    2614:	f9 81       	ldd	r31, Y+1	; 0x01
    2616:	cd 59       	subi	r28, 0x9D	; 157
    2618:	d1 40       	sbci	r29, 0x01	; 1
    261a:	d8 01       	movw	r26, r16
    261c:	11 96       	adiw	r26, 0x01	; 1
    261e:	fc 93       	st	X, r31
    2620:	ee 93       	st	-X, r30

00002622 <.Loc.193>:
		while(__ticks)
    2622:	26 c0       	rjmp	.+76     	; 0x2670 <.L82>

00002624 <.L83>:
    2624:	ce 01       	movw	r24, r28
    2626:	8f 59       	subi	r24, 0x9F	; 159
    2628:	9f 4f       	sbci	r25, 0xFF	; 255
    262a:	20 e9       	ldi	r18, 0x90	; 144
    262c:	31 e0       	ldi	r19, 0x01	; 1
    262e:	dc 01       	movw	r26, r24
    2630:	2d 93       	st	X+, r18
    2632:	3c 93       	st	X, r19

00002634 <.LBB146>:
    2634:	ce 01       	movw	r24, r28
    2636:	8f 59       	subi	r24, 0x9F	; 159
    2638:	9f 4f       	sbci	r25, 0xFF	; 255
    263a:	fc 01       	movw	r30, r24
    263c:	80 81       	ld	r24, Z
    263e:	91 81       	ldd	r25, Z+1	; 0x01

00002640 <.L1^B13>:
    2640:	01 97       	sbiw	r24, 0x01	; 1
    2642:	f1 f7       	brne	.-4      	; 0x2640 <.L1^B13>
    2644:	9e 01       	movw	r18, r28
    2646:	2f 59       	subi	r18, 0x9F	; 159
    2648:	3f 4f       	sbci	r19, 0xFF	; 255
    264a:	d9 01       	movw	r26, r18
    264c:	8d 93       	st	X+, r24
    264e:	9c 93       	st	X, r25

00002650 <.Loc.195>:
	...

00002652 <.LBE146>:
			__ticks --;
    2652:	ce 01       	movw	r24, r28
    2654:	81 5a       	subi	r24, 0xA1	; 161
    2656:	9f 4f       	sbci	r25, 0xFF	; 255
    2658:	9e 01       	movw	r18, r28
    265a:	21 5a       	subi	r18, 0xA1	; 161
    265c:	3f 4f       	sbci	r19, 0xFF	; 255
    265e:	f9 01       	movw	r30, r18
    2660:	20 81       	ld	r18, Z
    2662:	31 81       	ldd	r19, Z+1	; 0x01
    2664:	21 50       	subi	r18, 0x01	; 1
    2666:	31 09       	sbc	r19, r1
    2668:	dc 01       	movw	r26, r24
    266a:	11 96       	adiw	r26, 0x01	; 1
    266c:	3c 93       	st	X, r19
    266e:	2e 93       	st	-X, r18

00002670 <.L82>:
		while(__ticks)
    2670:	ce 01       	movw	r24, r28
    2672:	81 5a       	subi	r24, 0xA1	; 161
    2674:	9f 4f       	sbci	r25, 0xFF	; 255
    2676:	fc 01       	movw	r30, r24
    2678:	80 81       	ld	r24, Z
    267a:	91 81       	ldd	r25, Z+1	; 0x01
    267c:	00 97       	sbiw	r24, 0x00	; 0
    267e:	91 f6       	brne	.-92     	; 0x2624 <.L83>

00002680 <.Loc.198>:
		return;
    2680:	39 c0       	rjmp	.+114    	; 0x26f4 <.L84>

00002682 <.L227>:
		__ticks = (uint16_t)__tmp;
    2682:	8e 01       	movw	r16, r28
    2684:	01 5a       	subi	r16, 0xA1	; 161
    2686:	1f 4f       	sbci	r17, 0xFF	; 255
    2688:	ce 01       	movw	r24, r28
    268a:	85 5a       	subi	r24, 0xA5	; 165
    268c:	9f 4f       	sbci	r25, 0xFF	; 255
    268e:	dc 01       	movw	r26, r24
    2690:	6d 91       	ld	r22, X+
    2692:	7d 91       	ld	r23, X+
    2694:	8d 91       	ld	r24, X+
    2696:	9c 91       	ld	r25, X
    2698:	0e 94 2f 23 	call	0x465e	; 0x465e <__fixunssfsi>
    269c:	cf 55       	subi	r28, 0x5F	; 95
    269e:	de 4f       	sbci	r29, 0xFE	; 254
    26a0:	68 83       	st	Y, r22
    26a2:	79 83       	std	Y+1, r23	; 0x01
    26a4:	8a 83       	std	Y+2, r24	; 0x02
    26a6:	9b 83       	std	Y+3, r25	; 0x03
    26a8:	c1 5a       	subi	r28, 0xA1	; 161
    26aa:	d1 40       	sbci	r29, 0x01	; 1
    26ac:	cf 55       	subi	r28, 0x5F	; 95
    26ae:	de 4f       	sbci	r29, 0xFE	; 254
    26b0:	88 81       	ld	r24, Y
    26b2:	99 81       	ldd	r25, Y+1	; 0x01
    26b4:	c1 5a       	subi	r28, 0xA1	; 161
    26b6:	d1 40       	sbci	r29, 0x01	; 1
    26b8:	f8 01       	movw	r30, r16
    26ba:	91 83       	std	Z+1, r25	; 0x01
    26bc:	80 83       	st	Z, r24

000026be <.L79>:
    26be:	ce 01       	movw	r24, r28
    26c0:	8d 59       	subi	r24, 0x9D	; 157
    26c2:	9f 4f       	sbci	r25, 0xFF	; 255
    26c4:	9e 01       	movw	r18, r28
    26c6:	21 5a       	subi	r18, 0xA1	; 161
    26c8:	3f 4f       	sbci	r19, 0xFF	; 255
    26ca:	d9 01       	movw	r26, r18
    26cc:	2d 91       	ld	r18, X+
    26ce:	3c 91       	ld	r19, X
    26d0:	fc 01       	movw	r30, r24
    26d2:	31 83       	std	Z+1, r19	; 0x01
    26d4:	20 83       	st	Z, r18

000026d6 <.LBB148>:
    26d6:	ce 01       	movw	r24, r28
    26d8:	8d 59       	subi	r24, 0x9D	; 157
    26da:	9f 4f       	sbci	r25, 0xFF	; 255
    26dc:	dc 01       	movw	r26, r24
    26de:	8d 91       	ld	r24, X+
    26e0:	9c 91       	ld	r25, X

000026e2 <.L1^B14>:
    26e2:	01 97       	sbiw	r24, 0x01	; 1
    26e4:	f1 f7       	brne	.-4      	; 0x26e2 <.L1^B14>
    26e6:	9e 01       	movw	r18, r28
    26e8:	2d 59       	subi	r18, 0x9D	; 157
    26ea:	3f 4f       	sbci	r19, 0xFF	; 255
    26ec:	f9 01       	movw	r30, r18
    26ee:	91 83       	std	Z+1, r25	; 0x01
    26f0:	80 83       	st	Z, r24

000026f2 <.Loc.201>:
	...

000026f4 <.L84>:

            _delay_ms(500); // om te zorgen dat de servo's uit zijn voor de motor aan gaat

            h_bridge_set_percentage2(80);
    26f4:	80 e5       	ldi	r24, 0x50	; 80
    26f6:	0e 94 16 03 	call	0x62c	; 0x62c <h_bridge_set_percentage2>

000026fa <.Loc.203>:

            if ((PINA & (1<<top_switch)) == 0)
    26fa:	80 e2       	ldi	r24, 0x20	; 32
    26fc:	90 e0       	ldi	r25, 0x00	; 0
    26fe:	dc 01       	movw	r26, r24
    2700:	8c 91       	ld	r24, X

00002702 <.Loc.204>:
    2702:	88 2f       	mov	r24, r24
    2704:	90 e0       	ldi	r25, 0x00	; 0
    2706:	88 70       	andi	r24, 0x08	; 8
    2708:	99 27       	eor	r25, r25

0000270a <.Loc.205>:
    270a:	00 97       	sbiw	r24, 0x00	; 0
    270c:	11 f0       	breq	.+4      	; 0x2712 <L0^A+0x4>

0000270e <L0^A>:
    270e:	0c 94 58 1f 	jmp	0x3eb0	; 0x3eb0 <.L252>
    2712:	9e 01       	movw	r18, r28
    2714:	2b 59       	subi	r18, 0x9B	; 155
    2716:	3f 4f       	sbci	r19, 0xFF	; 255
    2718:	80 e0       	ldi	r24, 0x00	; 0
    271a:	90 e0       	ldi	r25, 0x00	; 0
    271c:	a0 ea       	ldi	r26, 0xA0	; 160
    271e:	b1 e4       	ldi	r27, 0x41	; 65
    2720:	f9 01       	movw	r30, r18
    2722:	80 83       	st	Z, r24
    2724:	91 83       	std	Z+1, r25	; 0x01
    2726:	a2 83       	std	Z+2, r26	; 0x02
    2728:	b3 83       	std	Z+3, r27	; 0x03

0000272a <.LBB150>:
	__tmp = ((F_CPU) / 4e3) * __ms;
    272a:	8e 01       	movw	r16, r28
    272c:	07 59       	subi	r16, 0x97	; 151
    272e:	1f 4f       	sbci	r17, 0xFF	; 255
    2730:	ce 01       	movw	r24, r28
    2732:	8b 59       	subi	r24, 0x9B	; 155
    2734:	9f 4f       	sbci	r25, 0xFF	; 255
    2736:	20 e0       	ldi	r18, 0x00	; 0
    2738:	30 e0       	ldi	r19, 0x00	; 0
    273a:	4a e7       	ldi	r20, 0x7A	; 122
    273c:	55 e4       	ldi	r21, 0x45	; 69
    273e:	dc 01       	movw	r26, r24
    2740:	6d 91       	ld	r22, X+
    2742:	7d 91       	ld	r23, X+
    2744:	8d 91       	ld	r24, X+
    2746:	9c 91       	ld	r25, X
    2748:	0e 94 15 24 	call	0x482a	; 0x482a <__mulsf3>
    274c:	cb 55       	subi	r28, 0x5B	; 91
    274e:	de 4f       	sbci	r29, 0xFE	; 254
    2750:	68 83       	st	Y, r22
    2752:	79 83       	std	Y+1, r23	; 0x01
    2754:	8a 83       	std	Y+2, r24	; 0x02
    2756:	9b 83       	std	Y+3, r25	; 0x03
    2758:	c5 5a       	subi	r28, 0xA5	; 165
    275a:	d1 40       	sbci	r29, 0x01	; 1
    275c:	cb 55       	subi	r28, 0x5B	; 91
    275e:	de 4f       	sbci	r29, 0xFE	; 254
    2760:	88 81       	ld	r24, Y
    2762:	99 81       	ldd	r25, Y+1	; 0x01
    2764:	aa 81       	ldd	r26, Y+2	; 0x02
    2766:	bb 81       	ldd	r27, Y+3	; 0x03
    2768:	c5 5a       	subi	r28, 0xA5	; 165
    276a:	d1 40       	sbci	r29, 0x01	; 1
    276c:	f8 01       	movw	r30, r16
    276e:	80 83       	st	Z, r24
    2770:	91 83       	std	Z+1, r25	; 0x01
    2772:	a2 83       	std	Z+2, r26	; 0x02
    2774:	b3 83       	std	Z+3, r27	; 0x03

00002776 <.Loc.207>:
	if (__tmp < 1.0)
    2776:	ce 01       	movw	r24, r28
    2778:	87 59       	subi	r24, 0x97	; 151
    277a:	9f 4f       	sbci	r25, 0xFF	; 255
    277c:	20 e0       	ldi	r18, 0x00	; 0
    277e:	30 e0       	ldi	r19, 0x00	; 0
    2780:	40 e8       	ldi	r20, 0x80	; 128
    2782:	5f e3       	ldi	r21, 0x3F	; 63
    2784:	dc 01       	movw	r26, r24
    2786:	6d 91       	ld	r22, X+
    2788:	7d 91       	ld	r23, X+
    278a:	8d 91       	ld	r24, X+
    278c:	9c 91       	ld	r25, X
    278e:	0e 94 b8 22 	call	0x4570	; 0x4570 <__cmpsf2>
    2792:	88 23       	and	r24, r24
    2794:	4c f4       	brge	.+18     	; 0x27a8 <.L228>

00002796 <.Loc.208>:
		__ticks = 1;
    2796:	ce 01       	movw	r24, r28
    2798:	83 59       	subi	r24, 0x93	; 147
    279a:	9f 4f       	sbci	r25, 0xFF	; 255
    279c:	21 e0       	ldi	r18, 0x01	; 1
    279e:	30 e0       	ldi	r19, 0x00	; 0
    27a0:	fc 01       	movw	r30, r24
    27a2:	31 83       	std	Z+1, r19	; 0x01
    27a4:	20 83       	st	Z, r18
    27a6:	a5 c0       	rjmp	.+330    	; 0x28f2 <.L88>

000027a8 <.L228>:
	else if (__tmp > 65535)
    27a8:	ce 01       	movw	r24, r28
    27aa:	87 59       	subi	r24, 0x97	; 151
    27ac:	9f 4f       	sbci	r25, 0xFF	; 255
    27ae:	20 e0       	ldi	r18, 0x00	; 0
    27b0:	3f ef       	ldi	r19, 0xFF	; 255
    27b2:	4f e7       	ldi	r20, 0x7F	; 127
    27b4:	57 e4       	ldi	r21, 0x47	; 71
    27b6:	dc 01       	movw	r26, r24
    27b8:	6d 91       	ld	r22, X+
    27ba:	7d 91       	ld	r23, X+
    27bc:	8d 91       	ld	r24, X+
    27be:	9c 91       	ld	r25, X
    27c0:	0e 94 10 24 	call	0x4820	; 0x4820 <__gesf2>
    27c4:	88 23       	and	r24, r24
    27c6:	09 f0       	breq	.+2      	; 0x27ca <L0^A>

000027c8 <L0^A>:
    27c8:	0c f4       	brge	.+2      	; 0x27cc <.Loc.210>

000027ca <L0^A>:
    27ca:	75 c0       	rjmp	.+234    	; 0x28b6 <.L229>

000027cc <.Loc.210>:
		__ticks = (uint16_t) (__ms * 10.0);
    27cc:	ce 01       	movw	r24, r28
    27ce:	8b 59       	subi	r24, 0x9B	; 155
    27d0:	9f 4f       	sbci	r25, 0xFF	; 255
    27d2:	20 e0       	ldi	r18, 0x00	; 0
    27d4:	30 e0       	ldi	r19, 0x00	; 0
    27d6:	40 e2       	ldi	r20, 0x20	; 32
    27d8:	51 e4       	ldi	r21, 0x41	; 65
    27da:	fc 01       	movw	r30, r24
    27dc:	60 81       	ld	r22, Z
    27de:	71 81       	ldd	r23, Z+1	; 0x01
    27e0:	82 81       	ldd	r24, Z+2	; 0x02
    27e2:	93 81       	ldd	r25, Z+3	; 0x03
    27e4:	0e 94 15 24 	call	0x482a	; 0x482a <__mulsf3>
    27e8:	c7 55       	subi	r28, 0x57	; 87
    27ea:	de 4f       	sbci	r29, 0xFE	; 254
    27ec:	68 83       	st	Y, r22
    27ee:	79 83       	std	Y+1, r23	; 0x01
    27f0:	8a 83       	std	Y+2, r24	; 0x02
    27f2:	9b 83       	std	Y+3, r25	; 0x03
    27f4:	c9 5a       	subi	r28, 0xA9	; 169
    27f6:	d1 40       	sbci	r29, 0x01	; 1
    27f8:	c7 55       	subi	r28, 0x57	; 87
    27fa:	de 4f       	sbci	r29, 0xFE	; 254
    27fc:	88 81       	ld	r24, Y
    27fe:	99 81       	ldd	r25, Y+1	; 0x01
    2800:	aa 81       	ldd	r26, Y+2	; 0x02
    2802:	bb 81       	ldd	r27, Y+3	; 0x03
    2804:	c9 5a       	subi	r28, 0xA9	; 169
    2806:	d1 40       	sbci	r29, 0x01	; 1
    2808:	c3 5f       	subi	r28, 0xF3	; 243
    280a:	de 4f       	sbci	r29, 0xFE	; 254
    280c:	88 83       	st	Y, r24
    280e:	99 83       	std	Y+1, r25	; 0x01
    2810:	aa 83       	std	Y+2, r26	; 0x02
    2812:	bb 83       	std	Y+3, r27	; 0x03
    2814:	cd 50       	subi	r28, 0x0D	; 13
    2816:	d1 40       	sbci	r29, 0x01	; 1

00002818 <.Loc.211>:
    2818:	8e 01       	movw	r16, r28
    281a:	03 59       	subi	r16, 0x93	; 147
    281c:	1f 4f       	sbci	r17, 0xFF	; 255
    281e:	c3 5f       	subi	r28, 0xF3	; 243
    2820:	de 4f       	sbci	r29, 0xFE	; 254
    2822:	68 81       	ld	r22, Y
    2824:	79 81       	ldd	r23, Y+1	; 0x01
    2826:	8a 81       	ldd	r24, Y+2	; 0x02
    2828:	9b 81       	ldd	r25, Y+3	; 0x03
    282a:	cd 50       	subi	r28, 0x0D	; 13
    282c:	d1 40       	sbci	r29, 0x01	; 1
    282e:	0e 94 2f 23 	call	0x465e	; 0x465e <__fixunssfsi>
    2832:	c3 55       	subi	r28, 0x53	; 83
    2834:	de 4f       	sbci	r29, 0xFE	; 254
    2836:	68 83       	st	Y, r22
    2838:	79 83       	std	Y+1, r23	; 0x01
    283a:	8a 83       	std	Y+2, r24	; 0x02
    283c:	9b 83       	std	Y+3, r25	; 0x03
    283e:	cd 5a       	subi	r28, 0xAD	; 173
    2840:	d1 40       	sbci	r29, 0x01	; 1
    2842:	c3 55       	subi	r28, 0x53	; 83
    2844:	de 4f       	sbci	r29, 0xFE	; 254
    2846:	e8 81       	ld	r30, Y
    2848:	f9 81       	ldd	r31, Y+1	; 0x01
    284a:	cd 5a       	subi	r28, 0xAD	; 173
    284c:	d1 40       	sbci	r29, 0x01	; 1
    284e:	d8 01       	movw	r26, r16
    2850:	11 96       	adiw	r26, 0x01	; 1
    2852:	fc 93       	st	X, r31
    2854:	ee 93       	st	-X, r30

00002856 <.Loc.212>:
		while(__ticks)
    2856:	26 c0       	rjmp	.+76     	; 0x28a4 <.L91>

00002858 <.L92>:
    2858:	ce 01       	movw	r24, r28
    285a:	81 59       	subi	r24, 0x91	; 145
    285c:	9f 4f       	sbci	r25, 0xFF	; 255
    285e:	20 e9       	ldi	r18, 0x90	; 144
    2860:	31 e0       	ldi	r19, 0x01	; 1
    2862:	dc 01       	movw	r26, r24
    2864:	2d 93       	st	X+, r18
    2866:	3c 93       	st	X, r19

00002868 <.LBB152>:
    2868:	ce 01       	movw	r24, r28
    286a:	81 59       	subi	r24, 0x91	; 145
    286c:	9f 4f       	sbci	r25, 0xFF	; 255
    286e:	fc 01       	movw	r30, r24
    2870:	80 81       	ld	r24, Z
    2872:	91 81       	ldd	r25, Z+1	; 0x01

00002874 <.L1^B15>:
    2874:	01 97       	sbiw	r24, 0x01	; 1
    2876:	f1 f7       	brne	.-4      	; 0x2874 <.L1^B15>
    2878:	9e 01       	movw	r18, r28
    287a:	21 59       	subi	r18, 0x91	; 145
    287c:	3f 4f       	sbci	r19, 0xFF	; 255
    287e:	d9 01       	movw	r26, r18
    2880:	8d 93       	st	X+, r24
    2882:	9c 93       	st	X, r25

00002884 <.Loc.214>:
	...

00002886 <.LBE152>:
			__ticks --;
    2886:	ce 01       	movw	r24, r28
    2888:	83 59       	subi	r24, 0x93	; 147
    288a:	9f 4f       	sbci	r25, 0xFF	; 255
    288c:	9e 01       	movw	r18, r28
    288e:	23 59       	subi	r18, 0x93	; 147
    2890:	3f 4f       	sbci	r19, 0xFF	; 255
    2892:	f9 01       	movw	r30, r18
    2894:	20 81       	ld	r18, Z
    2896:	31 81       	ldd	r19, Z+1	; 0x01
    2898:	21 50       	subi	r18, 0x01	; 1
    289a:	31 09       	sbc	r19, r1
    289c:	dc 01       	movw	r26, r24
    289e:	11 96       	adiw	r26, 0x01	; 1
    28a0:	3c 93       	st	X, r19
    28a2:	2e 93       	st	-X, r18

000028a4 <.L91>:
		while(__ticks)
    28a4:	ce 01       	movw	r24, r28
    28a6:	83 59       	subi	r24, 0x93	; 147
    28a8:	9f 4f       	sbci	r25, 0xFF	; 255
    28aa:	fc 01       	movw	r30, r24
    28ac:	80 81       	ld	r24, Z
    28ae:	91 81       	ldd	r25, Z+1	; 0x01
    28b0:	00 97       	sbiw	r24, 0x00	; 0
    28b2:	91 f6       	brne	.-92     	; 0x2858 <.L92>

000028b4 <.Loc.217>:
		return;
    28b4:	3a c0       	rjmp	.+116    	; 0x292a <.L93>

000028b6 <.L229>:
		__ticks = (uint16_t)__tmp;
    28b6:	8e 01       	movw	r16, r28
    28b8:	03 59       	subi	r16, 0x93	; 147
    28ba:	1f 4f       	sbci	r17, 0xFF	; 255
    28bc:	ce 01       	movw	r24, r28
    28be:	87 59       	subi	r24, 0x97	; 151
    28c0:	9f 4f       	sbci	r25, 0xFF	; 255
    28c2:	dc 01       	movw	r26, r24
    28c4:	6d 91       	ld	r22, X+
    28c6:	7d 91       	ld	r23, X+
    28c8:	8d 91       	ld	r24, X+
    28ca:	9c 91       	ld	r25, X
    28cc:	0e 94 2f 23 	call	0x465e	; 0x465e <__fixunssfsi>
    28d0:	cf 54       	subi	r28, 0x4F	; 79
    28d2:	de 4f       	sbci	r29, 0xFE	; 254
    28d4:	68 83       	st	Y, r22
    28d6:	79 83       	std	Y+1, r23	; 0x01
    28d8:	8a 83       	std	Y+2, r24	; 0x02
    28da:	9b 83       	std	Y+3, r25	; 0x03
    28dc:	c1 5b       	subi	r28, 0xB1	; 177
    28de:	d1 40       	sbci	r29, 0x01	; 1
    28e0:	cf 54       	subi	r28, 0x4F	; 79
    28e2:	de 4f       	sbci	r29, 0xFE	; 254
    28e4:	88 81       	ld	r24, Y
    28e6:	99 81       	ldd	r25, Y+1	; 0x01
    28e8:	c1 5b       	subi	r28, 0xB1	; 177
    28ea:	d1 40       	sbci	r29, 0x01	; 1
    28ec:	f8 01       	movw	r30, r16
    28ee:	91 83       	std	Z+1, r25	; 0x01
    28f0:	80 83       	st	Z, r24

000028f2 <.L88>:
    28f2:	ce 01       	movw	r24, r28
    28f4:	8f 58       	subi	r24, 0x8F	; 143
    28f6:	9f 4f       	sbci	r25, 0xFF	; 255
    28f8:	9e 01       	movw	r18, r28
    28fa:	23 59       	subi	r18, 0x93	; 147
    28fc:	3f 4f       	sbci	r19, 0xFF	; 255
    28fe:	d9 01       	movw	r26, r18
    2900:	2d 91       	ld	r18, X+
    2902:	3c 91       	ld	r19, X
    2904:	fc 01       	movw	r30, r24
    2906:	31 83       	std	Z+1, r19	; 0x01
    2908:	20 83       	st	Z, r18

0000290a <.LBB154>:
    290a:	ce 01       	movw	r24, r28
    290c:	8f 58       	subi	r24, 0x8F	; 143
    290e:	9f 4f       	sbci	r25, 0xFF	; 255
    2910:	dc 01       	movw	r26, r24
    2912:	8d 91       	ld	r24, X+
    2914:	9c 91       	ld	r25, X
    2916:	11 97       	sbiw	r26, 0x01	; 1

00002918 <.L1^B16>:
    2918:	01 97       	sbiw	r24, 0x01	; 1
    291a:	f1 f7       	brne	.-4      	; 0x2918 <.L1^B16>
    291c:	9e 01       	movw	r18, r28
    291e:	2f 58       	subi	r18, 0x8F	; 143
    2920:	3f 4f       	sbci	r19, 0xFF	; 255
    2922:	f9 01       	movw	r30, r18
    2924:	91 83       	std	Z+1, r25	; 0x01
    2926:	80 83       	st	Z, r24

00002928 <.Loc.220>:
	...

0000292a <.L93>:
            {
                DEBOUNCE;
                status = 5;
    292a:	85 e0       	ldi	r24, 0x05	; 5
    292c:	90 e0       	ldi	r25, 0x00	; 0
    292e:	9a 83       	std	Y+2, r25	; 0x02
    2930:	89 83       	std	Y+1, r24	; 0x01

00002932 <.Loc.222>:
            }
            break;
    2932:	0c 94 58 1f 	jmp	0x3eb0	; 0x3eb0 <.L252>

00002936 <.L23>:

        case 5: // volgende_stijger
            h_bridge_set_percentage2(0);
    2936:	80 e0       	ldi	r24, 0x00	; 0
    2938:	0e 94 16 03 	call	0x62c	; 0x62c <h_bridge_set_percentage2>

0000293c <.Loc.224>:
            knipperLichten(0); // uit
    293c:	80 e0       	ldi	r24, 0x00	; 0
    293e:	0e 94 e4 03 	call	0x7c8	; 0x7c8 <knipperLichten>

00002942 <.Loc.225>:

            LCD_Scherm_Leeg();
    2942:	0e 94 80 0b 	call	0x1700	; 0x1700 <LCD_Scherm_Leeg>

00002946 <.Loc.226>:
           	LCD_Naar_Locatie(1, 2);
    2946:	62 e0       	ldi	r22, 0x02	; 2
    2948:	81 e0       	ldi	r24, 0x01	; 1
    294a:	0e 94 64 0b 	call	0x16c8	; 0x16c8 <LCD_Naar_Locatie>

0000294e <.Loc.227>:
	    	Stuur_LCD_String("Plaats volgende");
    294e:	8c e3       	ldi	r24, 0x3C	; 60
    2950:	92 e0       	ldi	r25, 0x02	; 2
    2952:	0e 94 42 0b 	call	0x1684	; 0x1684 <Stuur_LCD_String>

00002956 <.Loc.228>:
            LCD_Naar_Locatie(1, 1);
    2956:	61 e0       	ldi	r22, 0x01	; 1
    2958:	81 e0       	ldi	r24, 0x01	; 1
    295a:	0e 94 64 0b 	call	0x16c8	; 0x16c8 <LCD_Naar_Locatie>

0000295e <.Loc.229>:
	    	Stuur_LCD_String("steiger");
    295e:	8c e4       	ldi	r24, 0x4C	; 76
    2960:	92 e0       	ldi	r25, 0x02	; 2
    2962:	0e 94 42 0b 	call	0x1684	; 0x1684 <Stuur_LCD_String>

00002966 <.Loc.230>:

            if (((PINF & (1<<neerzetten_knop)) == 0) || (Bluetooth_Getal == 5))//((PINF & (1<<neerzetten_knop)) == 0)
    2966:	8f e2       	ldi	r24, 0x2F	; 47
    2968:	90 e0       	ldi	r25, 0x00	; 0
    296a:	dc 01       	movw	r26, r24
    296c:	8c 91       	ld	r24, X

0000296e <.Loc.231>:
    296e:	88 2f       	mov	r24, r24
    2970:	90 e0       	ldi	r25, 0x00	; 0
    2972:	84 70       	andi	r24, 0x04	; 4
    2974:	99 27       	eor	r25, r25

00002976 <.Loc.232>:
    2976:	00 97       	sbiw	r24, 0x00	; 0
    2978:	49 f0       	breq	.+18     	; 0x298c <.L94>

0000297a <.Loc.233>:
    297a:	80 91 90 02 	lds	r24, 0x0290	; 0x800290 <Bluetooth_Getal>
    297e:	90 91 91 02 	lds	r25, 0x0291	; 0x800291 <Bluetooth_Getal+0x1>

00002982 <.Loc.234>:
    2982:	85 30       	cpi	r24, 0x05	; 5
    2984:	91 05       	cpc	r25, r1
    2986:	11 f0       	breq	.+4      	; 0x298c <.L94>

00002988 <L0^A>:
    2988:	0c 94 5b 1f 	jmp	0x3eb6	; 0x3eb6 <.L253>

0000298c <.L94>:
    298c:	9e 01       	movw	r18, r28
    298e:	2d 58       	subi	r18, 0x8D	; 141
    2990:	3f 4f       	sbci	r19, 0xFF	; 255
    2992:	80 e0       	ldi	r24, 0x00	; 0
    2994:	90 e0       	ldi	r25, 0x00	; 0
    2996:	a0 ea       	ldi	r26, 0xA0	; 160
    2998:	b1 e4       	ldi	r27, 0x41	; 65
    299a:	f9 01       	movw	r30, r18
    299c:	80 83       	st	Z, r24
    299e:	91 83       	std	Z+1, r25	; 0x01
    29a0:	a2 83       	std	Z+2, r26	; 0x02
    29a2:	b3 83       	std	Z+3, r27	; 0x03

000029a4 <.LBB156>:
	__tmp = ((F_CPU) / 4e3) * __ms;
    29a4:	8e 01       	movw	r16, r28
    29a6:	09 58       	subi	r16, 0x89	; 137
    29a8:	1f 4f       	sbci	r17, 0xFF	; 255
    29aa:	ce 01       	movw	r24, r28
    29ac:	8d 58       	subi	r24, 0x8D	; 141
    29ae:	9f 4f       	sbci	r25, 0xFF	; 255
    29b0:	20 e0       	ldi	r18, 0x00	; 0
    29b2:	30 e0       	ldi	r19, 0x00	; 0
    29b4:	4a e7       	ldi	r20, 0x7A	; 122
    29b6:	55 e4       	ldi	r21, 0x45	; 69
    29b8:	dc 01       	movw	r26, r24
    29ba:	6d 91       	ld	r22, X+
    29bc:	7d 91       	ld	r23, X+
    29be:	8d 91       	ld	r24, X+
    29c0:	9c 91       	ld	r25, X
    29c2:	0e 94 15 24 	call	0x482a	; 0x482a <__mulsf3>
    29c6:	cb 54       	subi	r28, 0x4B	; 75
    29c8:	de 4f       	sbci	r29, 0xFE	; 254
    29ca:	68 83       	st	Y, r22
    29cc:	79 83       	std	Y+1, r23	; 0x01
    29ce:	8a 83       	std	Y+2, r24	; 0x02
    29d0:	9b 83       	std	Y+3, r25	; 0x03
    29d2:	c5 5b       	subi	r28, 0xB5	; 181
    29d4:	d1 40       	sbci	r29, 0x01	; 1
    29d6:	cb 54       	subi	r28, 0x4B	; 75
    29d8:	de 4f       	sbci	r29, 0xFE	; 254
    29da:	88 81       	ld	r24, Y
    29dc:	99 81       	ldd	r25, Y+1	; 0x01
    29de:	aa 81       	ldd	r26, Y+2	; 0x02
    29e0:	bb 81       	ldd	r27, Y+3	; 0x03
    29e2:	c5 5b       	subi	r28, 0xB5	; 181
    29e4:	d1 40       	sbci	r29, 0x01	; 1
    29e6:	f8 01       	movw	r30, r16
    29e8:	80 83       	st	Z, r24
    29ea:	91 83       	std	Z+1, r25	; 0x01
    29ec:	a2 83       	std	Z+2, r26	; 0x02
    29ee:	b3 83       	std	Z+3, r27	; 0x03

000029f0 <.Loc.236>:
	if (__tmp < 1.0)
    29f0:	ce 01       	movw	r24, r28
    29f2:	89 58       	subi	r24, 0x89	; 137
    29f4:	9f 4f       	sbci	r25, 0xFF	; 255
    29f6:	20 e0       	ldi	r18, 0x00	; 0
    29f8:	30 e0       	ldi	r19, 0x00	; 0
    29fa:	40 e8       	ldi	r20, 0x80	; 128
    29fc:	5f e3       	ldi	r21, 0x3F	; 63
    29fe:	dc 01       	movw	r26, r24
    2a00:	6d 91       	ld	r22, X+
    2a02:	7d 91       	ld	r23, X+
    2a04:	8d 91       	ld	r24, X+
    2a06:	9c 91       	ld	r25, X
    2a08:	0e 94 b8 22 	call	0x4570	; 0x4570 <__cmpsf2>
    2a0c:	88 23       	and	r24, r24
    2a0e:	4c f4       	brge	.+18     	; 0x2a22 <.L230>

00002a10 <.Loc.237>:
		__ticks = 1;
    2a10:	ce 01       	movw	r24, r28
    2a12:	85 58       	subi	r24, 0x85	; 133
    2a14:	9f 4f       	sbci	r25, 0xFF	; 255
    2a16:	21 e0       	ldi	r18, 0x01	; 1
    2a18:	30 e0       	ldi	r19, 0x00	; 0
    2a1a:	fc 01       	movw	r30, r24
    2a1c:	31 83       	std	Z+1, r19	; 0x01
    2a1e:	20 83       	st	Z, r18
    2a20:	a5 c0       	rjmp	.+330    	; 0x2b6c <.L98>

00002a22 <.L230>:
	else if (__tmp > 65535)
    2a22:	ce 01       	movw	r24, r28
    2a24:	89 58       	subi	r24, 0x89	; 137
    2a26:	9f 4f       	sbci	r25, 0xFF	; 255
    2a28:	20 e0       	ldi	r18, 0x00	; 0
    2a2a:	3f ef       	ldi	r19, 0xFF	; 255
    2a2c:	4f e7       	ldi	r20, 0x7F	; 127
    2a2e:	57 e4       	ldi	r21, 0x47	; 71
    2a30:	dc 01       	movw	r26, r24
    2a32:	6d 91       	ld	r22, X+
    2a34:	7d 91       	ld	r23, X+
    2a36:	8d 91       	ld	r24, X+
    2a38:	9c 91       	ld	r25, X
    2a3a:	0e 94 10 24 	call	0x4820	; 0x4820 <__gesf2>
    2a3e:	88 23       	and	r24, r24
    2a40:	09 f0       	breq	.+2      	; 0x2a44 <L0^A>

00002a42 <L0^A>:
    2a42:	0c f4       	brge	.+2      	; 0x2a46 <.Loc.239>

00002a44 <L0^A>:
    2a44:	75 c0       	rjmp	.+234    	; 0x2b30 <.L231>

00002a46 <.Loc.239>:
		__ticks = (uint16_t) (__ms * 10.0);
    2a46:	ce 01       	movw	r24, r28
    2a48:	8d 58       	subi	r24, 0x8D	; 141
    2a4a:	9f 4f       	sbci	r25, 0xFF	; 255
    2a4c:	20 e0       	ldi	r18, 0x00	; 0
    2a4e:	30 e0       	ldi	r19, 0x00	; 0
    2a50:	40 e2       	ldi	r20, 0x20	; 32
    2a52:	51 e4       	ldi	r21, 0x41	; 65
    2a54:	fc 01       	movw	r30, r24
    2a56:	60 81       	ld	r22, Z
    2a58:	71 81       	ldd	r23, Z+1	; 0x01
    2a5a:	82 81       	ldd	r24, Z+2	; 0x02
    2a5c:	93 81       	ldd	r25, Z+3	; 0x03
    2a5e:	0e 94 15 24 	call	0x482a	; 0x482a <__mulsf3>
    2a62:	c7 54       	subi	r28, 0x47	; 71
    2a64:	de 4f       	sbci	r29, 0xFE	; 254
    2a66:	68 83       	st	Y, r22
    2a68:	79 83       	std	Y+1, r23	; 0x01
    2a6a:	8a 83       	std	Y+2, r24	; 0x02
    2a6c:	9b 83       	std	Y+3, r25	; 0x03
    2a6e:	c9 5b       	subi	r28, 0xB9	; 185
    2a70:	d1 40       	sbci	r29, 0x01	; 1
    2a72:	c7 54       	subi	r28, 0x47	; 71
    2a74:	de 4f       	sbci	r29, 0xFE	; 254
    2a76:	88 81       	ld	r24, Y
    2a78:	99 81       	ldd	r25, Y+1	; 0x01
    2a7a:	aa 81       	ldd	r26, Y+2	; 0x02
    2a7c:	bb 81       	ldd	r27, Y+3	; 0x03
    2a7e:	c9 5b       	subi	r28, 0xB9	; 185
    2a80:	d1 40       	sbci	r29, 0x01	; 1
    2a82:	cf 5e       	subi	r28, 0xEF	; 239
    2a84:	de 4f       	sbci	r29, 0xFE	; 254
    2a86:	88 83       	st	Y, r24
    2a88:	99 83       	std	Y+1, r25	; 0x01
    2a8a:	aa 83       	std	Y+2, r26	; 0x02
    2a8c:	bb 83       	std	Y+3, r27	; 0x03
    2a8e:	c1 51       	subi	r28, 0x11	; 17
    2a90:	d1 40       	sbci	r29, 0x01	; 1

00002a92 <.Loc.240>:
    2a92:	8e 01       	movw	r16, r28
    2a94:	05 58       	subi	r16, 0x85	; 133
    2a96:	1f 4f       	sbci	r17, 0xFF	; 255
    2a98:	cf 5e       	subi	r28, 0xEF	; 239
    2a9a:	de 4f       	sbci	r29, 0xFE	; 254
    2a9c:	68 81       	ld	r22, Y
    2a9e:	79 81       	ldd	r23, Y+1	; 0x01
    2aa0:	8a 81       	ldd	r24, Y+2	; 0x02
    2aa2:	9b 81       	ldd	r25, Y+3	; 0x03
    2aa4:	c1 51       	subi	r28, 0x11	; 17
    2aa6:	d1 40       	sbci	r29, 0x01	; 1
    2aa8:	0e 94 2f 23 	call	0x465e	; 0x465e <__fixunssfsi>
    2aac:	c3 54       	subi	r28, 0x43	; 67
    2aae:	de 4f       	sbci	r29, 0xFE	; 254
    2ab0:	68 83       	st	Y, r22
    2ab2:	79 83       	std	Y+1, r23	; 0x01
    2ab4:	8a 83       	std	Y+2, r24	; 0x02
    2ab6:	9b 83       	std	Y+3, r25	; 0x03
    2ab8:	cd 5b       	subi	r28, 0xBD	; 189
    2aba:	d1 40       	sbci	r29, 0x01	; 1
    2abc:	c3 54       	subi	r28, 0x43	; 67
    2abe:	de 4f       	sbci	r29, 0xFE	; 254
    2ac0:	e8 81       	ld	r30, Y
    2ac2:	f9 81       	ldd	r31, Y+1	; 0x01
    2ac4:	cd 5b       	subi	r28, 0xBD	; 189
    2ac6:	d1 40       	sbci	r29, 0x01	; 1
    2ac8:	d8 01       	movw	r26, r16
    2aca:	11 96       	adiw	r26, 0x01	; 1
    2acc:	fc 93       	st	X, r31
    2ace:	ee 93       	st	-X, r30

00002ad0 <.Loc.241>:
		while(__ticks)
    2ad0:	26 c0       	rjmp	.+76     	; 0x2b1e <.L101>

00002ad2 <.L102>:
    2ad2:	ce 01       	movw	r24, r28
    2ad4:	83 58       	subi	r24, 0x83	; 131
    2ad6:	9f 4f       	sbci	r25, 0xFF	; 255
    2ad8:	20 e9       	ldi	r18, 0x90	; 144
    2ada:	31 e0       	ldi	r19, 0x01	; 1
    2adc:	dc 01       	movw	r26, r24
    2ade:	2d 93       	st	X+, r18
    2ae0:	3c 93       	st	X, r19

00002ae2 <.LBB158>:
    2ae2:	ce 01       	movw	r24, r28
    2ae4:	83 58       	subi	r24, 0x83	; 131
    2ae6:	9f 4f       	sbci	r25, 0xFF	; 255
    2ae8:	fc 01       	movw	r30, r24
    2aea:	80 81       	ld	r24, Z
    2aec:	91 81       	ldd	r25, Z+1	; 0x01

00002aee <.L1^B17>:
    2aee:	01 97       	sbiw	r24, 0x01	; 1
    2af0:	f1 f7       	brne	.-4      	; 0x2aee <.L1^B17>
    2af2:	9e 01       	movw	r18, r28
    2af4:	23 58       	subi	r18, 0x83	; 131
    2af6:	3f 4f       	sbci	r19, 0xFF	; 255
    2af8:	d9 01       	movw	r26, r18
    2afa:	8d 93       	st	X+, r24
    2afc:	9c 93       	st	X, r25

00002afe <.Loc.243>:
	...

00002b00 <.LBE158>:
			__ticks --;
    2b00:	ce 01       	movw	r24, r28
    2b02:	85 58       	subi	r24, 0x85	; 133
    2b04:	9f 4f       	sbci	r25, 0xFF	; 255
    2b06:	9e 01       	movw	r18, r28
    2b08:	25 58       	subi	r18, 0x85	; 133
    2b0a:	3f 4f       	sbci	r19, 0xFF	; 255
    2b0c:	f9 01       	movw	r30, r18
    2b0e:	20 81       	ld	r18, Z
    2b10:	31 81       	ldd	r19, Z+1	; 0x01
    2b12:	21 50       	subi	r18, 0x01	; 1
    2b14:	31 09       	sbc	r19, r1
    2b16:	dc 01       	movw	r26, r24
    2b18:	11 96       	adiw	r26, 0x01	; 1
    2b1a:	3c 93       	st	X, r19
    2b1c:	2e 93       	st	-X, r18

00002b1e <.L101>:
		while(__ticks)
    2b1e:	ce 01       	movw	r24, r28
    2b20:	85 58       	subi	r24, 0x85	; 133
    2b22:	9f 4f       	sbci	r25, 0xFF	; 255
    2b24:	fc 01       	movw	r30, r24
    2b26:	80 81       	ld	r24, Z
    2b28:	91 81       	ldd	r25, Z+1	; 0x01
    2b2a:	00 97       	sbiw	r24, 0x00	; 0
    2b2c:	91 f6       	brne	.-92     	; 0x2ad2 <.L102>

00002b2e <.Loc.246>:
		return;
    2b2e:	3a c0       	rjmp	.+116    	; 0x2ba4 <.L103>

00002b30 <.L231>:
		__ticks = (uint16_t)__tmp;
    2b30:	8e 01       	movw	r16, r28
    2b32:	05 58       	subi	r16, 0x85	; 133
    2b34:	1f 4f       	sbci	r17, 0xFF	; 255
    2b36:	ce 01       	movw	r24, r28
    2b38:	89 58       	subi	r24, 0x89	; 137
    2b3a:	9f 4f       	sbci	r25, 0xFF	; 255
    2b3c:	dc 01       	movw	r26, r24
    2b3e:	6d 91       	ld	r22, X+
    2b40:	7d 91       	ld	r23, X+
    2b42:	8d 91       	ld	r24, X+
    2b44:	9c 91       	ld	r25, X
    2b46:	0e 94 2f 23 	call	0x465e	; 0x465e <__fixunssfsi>
    2b4a:	cf 53       	subi	r28, 0x3F	; 63
    2b4c:	de 4f       	sbci	r29, 0xFE	; 254
    2b4e:	68 83       	st	Y, r22
    2b50:	79 83       	std	Y+1, r23	; 0x01
    2b52:	8a 83       	std	Y+2, r24	; 0x02
    2b54:	9b 83       	std	Y+3, r25	; 0x03
    2b56:	c1 5c       	subi	r28, 0xC1	; 193
    2b58:	d1 40       	sbci	r29, 0x01	; 1
    2b5a:	cf 53       	subi	r28, 0x3F	; 63
    2b5c:	de 4f       	sbci	r29, 0xFE	; 254
    2b5e:	88 81       	ld	r24, Y
    2b60:	99 81       	ldd	r25, Y+1	; 0x01
    2b62:	c1 5c       	subi	r28, 0xC1	; 193
    2b64:	d1 40       	sbci	r29, 0x01	; 1
    2b66:	f8 01       	movw	r30, r16
    2b68:	91 83       	std	Z+1, r25	; 0x01
    2b6a:	80 83       	st	Z, r24

00002b6c <.L98>:
    2b6c:	ce 01       	movw	r24, r28
    2b6e:	81 58       	subi	r24, 0x81	; 129
    2b70:	9f 4f       	sbci	r25, 0xFF	; 255
    2b72:	9e 01       	movw	r18, r28
    2b74:	25 58       	subi	r18, 0x85	; 133
    2b76:	3f 4f       	sbci	r19, 0xFF	; 255
    2b78:	d9 01       	movw	r26, r18
    2b7a:	2d 91       	ld	r18, X+
    2b7c:	3c 91       	ld	r19, X
    2b7e:	fc 01       	movw	r30, r24
    2b80:	31 83       	std	Z+1, r19	; 0x01
    2b82:	20 83       	st	Z, r18

00002b84 <.LBB160>:
    2b84:	ce 01       	movw	r24, r28
    2b86:	81 58       	subi	r24, 0x81	; 129
    2b88:	9f 4f       	sbci	r25, 0xFF	; 255
    2b8a:	dc 01       	movw	r26, r24
    2b8c:	8d 91       	ld	r24, X+
    2b8e:	9c 91       	ld	r25, X
    2b90:	11 97       	sbiw	r26, 0x01	; 1

00002b92 <.L1^B18>:
    2b92:	01 97       	sbiw	r24, 0x01	; 1
    2b94:	f1 f7       	brne	.-4      	; 0x2b92 <.L1^B18>
    2b96:	9e 01       	movw	r18, r28
    2b98:	21 58       	subi	r18, 0x81	; 129
    2b9a:	3f 4f       	sbci	r19, 0xFF	; 255
    2b9c:	f9 01       	movw	r30, r18
    2b9e:	91 83       	std	Z+1, r25	; 0x01
    2ba0:	80 83       	st	Z, r24

00002ba2 <.Loc.249>:
	...

00002ba4 <.L103>:
            {
                DEBOUNCE;
                status = 6;
    2ba4:	86 e0       	ldi	r24, 0x06	; 6
    2ba6:	90 e0       	ldi	r25, 0x00	; 0
    2ba8:	9a 83       	std	Y+2, r25	; 0x02
    2baa:	89 83       	std	Y+1, r24	; 0x01

00002bac <.Loc.251>:
            }
            break;
    2bac:	0c 94 5b 1f 	jmp	0x3eb6	; 0x3eb6 <.L253>

00002bb0 <.L22>:

        case 6: // neerzetten (opbouwen)
            h_bridge_set_percentage2(-50);
    2bb0:	8e ec       	ldi	r24, 0xCE	; 206
    2bb2:	0e 94 16 03 	call	0x62c	; 0x62c <h_bridge_set_percentage2>

00002bb6 <.Loc.253>:
            buzzer(1); // aan
    2bb6:	81 e0       	ldi	r24, 0x01	; 1
    2bb8:	0e 94 b8 03 	call	0x770	; 0x770 <buzzer>

00002bbc <.Loc.254>:
            knipperLichten(1); // aan
    2bbc:	81 e0       	ldi	r24, 0x01	; 1
    2bbe:	0e 94 e4 03 	call	0x7c8	; 0x7c8 <knipperLichten>

00002bc2 <.Loc.255>:

            LCD_Scherm_Leeg();
    2bc2:	0e 94 80 0b 	call	0x1700	; 0x1700 <LCD_Scherm_Leeg>

00002bc6 <.Loc.256>:
            LCD_Naar_Locatie(1, 1);
    2bc6:	61 e0       	ldi	r22, 0x01	; 1
    2bc8:	81 e0       	ldi	r24, 0x01	; 1
    2bca:	0e 94 64 0b 	call	0x16c8	; 0x16c8 <LCD_Naar_Locatie>

00002bce <.Loc.257>:
	    	Stuur_LCD_String("Neerzetten");
    2bce:	84 e5       	ldi	r24, 0x54	; 84
    2bd0:	92 e0       	ldi	r25, 0x02	; 2
    2bd2:	0e 94 42 0b 	call	0x1684	; 0x1684 <Stuur_LCD_String>

00002bd6 <.Loc.258>:

            if((PINA & (1<<middel_switch)) == 0)
    2bd6:	80 e2       	ldi	r24, 0x20	; 32
    2bd8:	90 e0       	ldi	r25, 0x00	; 0
    2bda:	dc 01       	movw	r26, r24
    2bdc:	8c 91       	ld	r24, X

00002bde <.Loc.259>:
    2bde:	88 2f       	mov	r24, r24
    2be0:	90 e0       	ldi	r25, 0x00	; 0
    2be2:	80 72       	andi	r24, 0x20	; 32
    2be4:	99 27       	eor	r25, r25

00002be6 <.Loc.260>:
    2be6:	00 97       	sbiw	r24, 0x00	; 0
    2be8:	11 f0       	breq	.+4      	; 0x2bee <L0^A+0x4>

00002bea <L0^A>:
    2bea:	0c 94 5e 1f 	jmp	0x3ebc	; 0x3ebc <.L254>
    2bee:	9e 01       	movw	r18, r28
    2bf0:	2f 57       	subi	r18, 0x7F	; 127
    2bf2:	3f 4f       	sbci	r19, 0xFF	; 255
    2bf4:	80 e0       	ldi	r24, 0x00	; 0
    2bf6:	90 e0       	ldi	r25, 0x00	; 0
    2bf8:	a0 ea       	ldi	r26, 0xA0	; 160
    2bfa:	b1 e4       	ldi	r27, 0x41	; 65
    2bfc:	f9 01       	movw	r30, r18
    2bfe:	80 83       	st	Z, r24
    2c00:	91 83       	std	Z+1, r25	; 0x01
    2c02:	a2 83       	std	Z+2, r26	; 0x02
    2c04:	b3 83       	std	Z+3, r27	; 0x03

00002c06 <.LBB162>:
	__tmp = ((F_CPU) / 4e3) * __ms;
    2c06:	8e 01       	movw	r16, r28
    2c08:	0b 57       	subi	r16, 0x7B	; 123
    2c0a:	1f 4f       	sbci	r17, 0xFF	; 255
    2c0c:	ce 01       	movw	r24, r28
    2c0e:	8f 57       	subi	r24, 0x7F	; 127
    2c10:	9f 4f       	sbci	r25, 0xFF	; 255
    2c12:	20 e0       	ldi	r18, 0x00	; 0
    2c14:	30 e0       	ldi	r19, 0x00	; 0
    2c16:	4a e7       	ldi	r20, 0x7A	; 122
    2c18:	55 e4       	ldi	r21, 0x45	; 69
    2c1a:	dc 01       	movw	r26, r24
    2c1c:	6d 91       	ld	r22, X+
    2c1e:	7d 91       	ld	r23, X+
    2c20:	8d 91       	ld	r24, X+
    2c22:	9c 91       	ld	r25, X
    2c24:	0e 94 15 24 	call	0x482a	; 0x482a <__mulsf3>
    2c28:	cb 53       	subi	r28, 0x3B	; 59
    2c2a:	de 4f       	sbci	r29, 0xFE	; 254
    2c2c:	68 83       	st	Y, r22
    2c2e:	79 83       	std	Y+1, r23	; 0x01
    2c30:	8a 83       	std	Y+2, r24	; 0x02
    2c32:	9b 83       	std	Y+3, r25	; 0x03
    2c34:	c5 5c       	subi	r28, 0xC5	; 197
    2c36:	d1 40       	sbci	r29, 0x01	; 1
    2c38:	cb 53       	subi	r28, 0x3B	; 59
    2c3a:	de 4f       	sbci	r29, 0xFE	; 254
    2c3c:	88 81       	ld	r24, Y
    2c3e:	99 81       	ldd	r25, Y+1	; 0x01
    2c40:	aa 81       	ldd	r26, Y+2	; 0x02
    2c42:	bb 81       	ldd	r27, Y+3	; 0x03
    2c44:	c5 5c       	subi	r28, 0xC5	; 197
    2c46:	d1 40       	sbci	r29, 0x01	; 1
    2c48:	f8 01       	movw	r30, r16
    2c4a:	80 83       	st	Z, r24
    2c4c:	91 83       	std	Z+1, r25	; 0x01
    2c4e:	a2 83       	std	Z+2, r26	; 0x02
    2c50:	b3 83       	std	Z+3, r27	; 0x03

00002c52 <.Loc.262>:
	if (__tmp < 1.0)
    2c52:	ce 01       	movw	r24, r28
    2c54:	8b 57       	subi	r24, 0x7B	; 123
    2c56:	9f 4f       	sbci	r25, 0xFF	; 255
    2c58:	20 e0       	ldi	r18, 0x00	; 0
    2c5a:	30 e0       	ldi	r19, 0x00	; 0
    2c5c:	40 e8       	ldi	r20, 0x80	; 128
    2c5e:	5f e3       	ldi	r21, 0x3F	; 63
    2c60:	dc 01       	movw	r26, r24
    2c62:	6d 91       	ld	r22, X+
    2c64:	7d 91       	ld	r23, X+
    2c66:	8d 91       	ld	r24, X+
    2c68:	9c 91       	ld	r25, X
    2c6a:	0e 94 b8 22 	call	0x4570	; 0x4570 <__cmpsf2>
    2c6e:	88 23       	and	r24, r24
    2c70:	4c f4       	brge	.+18     	; 0x2c84 <.L232>

00002c72 <.Loc.263>:
		__ticks = 1;
    2c72:	ce 01       	movw	r24, r28
    2c74:	87 57       	subi	r24, 0x77	; 119
    2c76:	9f 4f       	sbci	r25, 0xFF	; 255
    2c78:	21 e0       	ldi	r18, 0x01	; 1
    2c7a:	30 e0       	ldi	r19, 0x00	; 0
    2c7c:	fc 01       	movw	r30, r24
    2c7e:	31 83       	std	Z+1, r19	; 0x01
    2c80:	20 83       	st	Z, r18
    2c82:	a5 c0       	rjmp	.+330    	; 0x2dce <.L107>

00002c84 <.L232>:
	else if (__tmp > 65535)
    2c84:	ce 01       	movw	r24, r28
    2c86:	8b 57       	subi	r24, 0x7B	; 123
    2c88:	9f 4f       	sbci	r25, 0xFF	; 255
    2c8a:	20 e0       	ldi	r18, 0x00	; 0
    2c8c:	3f ef       	ldi	r19, 0xFF	; 255
    2c8e:	4f e7       	ldi	r20, 0x7F	; 127
    2c90:	57 e4       	ldi	r21, 0x47	; 71
    2c92:	dc 01       	movw	r26, r24
    2c94:	6d 91       	ld	r22, X+
    2c96:	7d 91       	ld	r23, X+
    2c98:	8d 91       	ld	r24, X+
    2c9a:	9c 91       	ld	r25, X
    2c9c:	0e 94 10 24 	call	0x4820	; 0x4820 <__gesf2>
    2ca0:	88 23       	and	r24, r24
    2ca2:	09 f0       	breq	.+2      	; 0x2ca6 <L0^A>

00002ca4 <L0^A>:
    2ca4:	0c f4       	brge	.+2      	; 0x2ca8 <.Loc.265>

00002ca6 <L0^A>:
    2ca6:	75 c0       	rjmp	.+234    	; 0x2d92 <.L233>

00002ca8 <.Loc.265>:
		__ticks = (uint16_t) (__ms * 10.0);
    2ca8:	ce 01       	movw	r24, r28
    2caa:	8f 57       	subi	r24, 0x7F	; 127
    2cac:	9f 4f       	sbci	r25, 0xFF	; 255
    2cae:	20 e0       	ldi	r18, 0x00	; 0
    2cb0:	30 e0       	ldi	r19, 0x00	; 0
    2cb2:	40 e2       	ldi	r20, 0x20	; 32
    2cb4:	51 e4       	ldi	r21, 0x41	; 65
    2cb6:	fc 01       	movw	r30, r24
    2cb8:	60 81       	ld	r22, Z
    2cba:	71 81       	ldd	r23, Z+1	; 0x01
    2cbc:	82 81       	ldd	r24, Z+2	; 0x02
    2cbe:	93 81       	ldd	r25, Z+3	; 0x03
    2cc0:	0e 94 15 24 	call	0x482a	; 0x482a <__mulsf3>
    2cc4:	c7 53       	subi	r28, 0x37	; 55
    2cc6:	de 4f       	sbci	r29, 0xFE	; 254
    2cc8:	68 83       	st	Y, r22
    2cca:	79 83       	std	Y+1, r23	; 0x01
    2ccc:	8a 83       	std	Y+2, r24	; 0x02
    2cce:	9b 83       	std	Y+3, r25	; 0x03
    2cd0:	c9 5c       	subi	r28, 0xC9	; 201
    2cd2:	d1 40       	sbci	r29, 0x01	; 1
    2cd4:	c7 53       	subi	r28, 0x37	; 55
    2cd6:	de 4f       	sbci	r29, 0xFE	; 254
    2cd8:	88 81       	ld	r24, Y
    2cda:	99 81       	ldd	r25, Y+1	; 0x01
    2cdc:	aa 81       	ldd	r26, Y+2	; 0x02
    2cde:	bb 81       	ldd	r27, Y+3	; 0x03
    2ce0:	c9 5c       	subi	r28, 0xC9	; 201
    2ce2:	d1 40       	sbci	r29, 0x01	; 1
    2ce4:	cb 5e       	subi	r28, 0xEB	; 235
    2ce6:	de 4f       	sbci	r29, 0xFE	; 254
    2ce8:	88 83       	st	Y, r24
    2cea:	99 83       	std	Y+1, r25	; 0x01
    2cec:	aa 83       	std	Y+2, r26	; 0x02
    2cee:	bb 83       	std	Y+3, r27	; 0x03
    2cf0:	c5 51       	subi	r28, 0x15	; 21
    2cf2:	d1 40       	sbci	r29, 0x01	; 1

00002cf4 <.Loc.266>:
    2cf4:	8e 01       	movw	r16, r28
    2cf6:	07 57       	subi	r16, 0x77	; 119
    2cf8:	1f 4f       	sbci	r17, 0xFF	; 255
    2cfa:	cb 5e       	subi	r28, 0xEB	; 235
    2cfc:	de 4f       	sbci	r29, 0xFE	; 254
    2cfe:	68 81       	ld	r22, Y
    2d00:	79 81       	ldd	r23, Y+1	; 0x01
    2d02:	8a 81       	ldd	r24, Y+2	; 0x02
    2d04:	9b 81       	ldd	r25, Y+3	; 0x03
    2d06:	c5 51       	subi	r28, 0x15	; 21
    2d08:	d1 40       	sbci	r29, 0x01	; 1
    2d0a:	0e 94 2f 23 	call	0x465e	; 0x465e <__fixunssfsi>
    2d0e:	c3 53       	subi	r28, 0x33	; 51
    2d10:	de 4f       	sbci	r29, 0xFE	; 254
    2d12:	68 83       	st	Y, r22
    2d14:	79 83       	std	Y+1, r23	; 0x01
    2d16:	8a 83       	std	Y+2, r24	; 0x02
    2d18:	9b 83       	std	Y+3, r25	; 0x03
    2d1a:	cd 5c       	subi	r28, 0xCD	; 205
    2d1c:	d1 40       	sbci	r29, 0x01	; 1
    2d1e:	c3 53       	subi	r28, 0x33	; 51
    2d20:	de 4f       	sbci	r29, 0xFE	; 254
    2d22:	e8 81       	ld	r30, Y
    2d24:	f9 81       	ldd	r31, Y+1	; 0x01
    2d26:	cd 5c       	subi	r28, 0xCD	; 205
    2d28:	d1 40       	sbci	r29, 0x01	; 1
    2d2a:	d8 01       	movw	r26, r16
    2d2c:	11 96       	adiw	r26, 0x01	; 1
    2d2e:	fc 93       	st	X, r31
    2d30:	ee 93       	st	-X, r30

00002d32 <.Loc.267>:
		while(__ticks)
    2d32:	26 c0       	rjmp	.+76     	; 0x2d80 <.L110>

00002d34 <.L111>:
    2d34:	ce 01       	movw	r24, r28
    2d36:	85 57       	subi	r24, 0x75	; 117
    2d38:	9f 4f       	sbci	r25, 0xFF	; 255
    2d3a:	20 e9       	ldi	r18, 0x90	; 144
    2d3c:	31 e0       	ldi	r19, 0x01	; 1
    2d3e:	dc 01       	movw	r26, r24
    2d40:	2d 93       	st	X+, r18
    2d42:	3c 93       	st	X, r19

00002d44 <.LBB164>:
    2d44:	ce 01       	movw	r24, r28
    2d46:	85 57       	subi	r24, 0x75	; 117
    2d48:	9f 4f       	sbci	r25, 0xFF	; 255
    2d4a:	fc 01       	movw	r30, r24
    2d4c:	80 81       	ld	r24, Z
    2d4e:	91 81       	ldd	r25, Z+1	; 0x01

00002d50 <.L1^B19>:
    2d50:	01 97       	sbiw	r24, 0x01	; 1
    2d52:	f1 f7       	brne	.-4      	; 0x2d50 <.L1^B19>
    2d54:	9e 01       	movw	r18, r28
    2d56:	25 57       	subi	r18, 0x75	; 117
    2d58:	3f 4f       	sbci	r19, 0xFF	; 255
    2d5a:	d9 01       	movw	r26, r18
    2d5c:	8d 93       	st	X+, r24
    2d5e:	9c 93       	st	X, r25

00002d60 <.Loc.269>:
	...

00002d62 <.LBE164>:
			__ticks --;
    2d62:	ce 01       	movw	r24, r28
    2d64:	87 57       	subi	r24, 0x77	; 119
    2d66:	9f 4f       	sbci	r25, 0xFF	; 255
    2d68:	9e 01       	movw	r18, r28
    2d6a:	27 57       	subi	r18, 0x77	; 119
    2d6c:	3f 4f       	sbci	r19, 0xFF	; 255
    2d6e:	f9 01       	movw	r30, r18
    2d70:	20 81       	ld	r18, Z
    2d72:	31 81       	ldd	r19, Z+1	; 0x01
    2d74:	21 50       	subi	r18, 0x01	; 1
    2d76:	31 09       	sbc	r19, r1
    2d78:	dc 01       	movw	r26, r24
    2d7a:	11 96       	adiw	r26, 0x01	; 1
    2d7c:	3c 93       	st	X, r19
    2d7e:	2e 93       	st	-X, r18

00002d80 <.L110>:
		while(__ticks)
    2d80:	ce 01       	movw	r24, r28
    2d82:	87 57       	subi	r24, 0x77	; 119
    2d84:	9f 4f       	sbci	r25, 0xFF	; 255
    2d86:	fc 01       	movw	r30, r24
    2d88:	80 81       	ld	r24, Z
    2d8a:	91 81       	ldd	r25, Z+1	; 0x01
    2d8c:	00 97       	sbiw	r24, 0x00	; 0
    2d8e:	91 f6       	brne	.-92     	; 0x2d34 <.L111>

00002d90 <.Loc.272>:
		return;
    2d90:	3a c0       	rjmp	.+116    	; 0x2e06 <.L112>

00002d92 <.L233>:
		__ticks = (uint16_t)__tmp;
    2d92:	8e 01       	movw	r16, r28
    2d94:	07 57       	subi	r16, 0x77	; 119
    2d96:	1f 4f       	sbci	r17, 0xFF	; 255
    2d98:	ce 01       	movw	r24, r28
    2d9a:	8b 57       	subi	r24, 0x7B	; 123
    2d9c:	9f 4f       	sbci	r25, 0xFF	; 255
    2d9e:	dc 01       	movw	r26, r24
    2da0:	6d 91       	ld	r22, X+
    2da2:	7d 91       	ld	r23, X+
    2da4:	8d 91       	ld	r24, X+
    2da6:	9c 91       	ld	r25, X
    2da8:	0e 94 2f 23 	call	0x465e	; 0x465e <__fixunssfsi>
    2dac:	cf 52       	subi	r28, 0x2F	; 47
    2dae:	de 4f       	sbci	r29, 0xFE	; 254
    2db0:	68 83       	st	Y, r22
    2db2:	79 83       	std	Y+1, r23	; 0x01
    2db4:	8a 83       	std	Y+2, r24	; 0x02
    2db6:	9b 83       	std	Y+3, r25	; 0x03
    2db8:	c1 5d       	subi	r28, 0xD1	; 209
    2dba:	d1 40       	sbci	r29, 0x01	; 1
    2dbc:	cf 52       	subi	r28, 0x2F	; 47
    2dbe:	de 4f       	sbci	r29, 0xFE	; 254
    2dc0:	88 81       	ld	r24, Y
    2dc2:	99 81       	ldd	r25, Y+1	; 0x01
    2dc4:	c1 5d       	subi	r28, 0xD1	; 209
    2dc6:	d1 40       	sbci	r29, 0x01	; 1
    2dc8:	f8 01       	movw	r30, r16
    2dca:	91 83       	std	Z+1, r25	; 0x01
    2dcc:	80 83       	st	Z, r24

00002dce <.L107>:
    2dce:	ce 01       	movw	r24, r28
    2dd0:	83 57       	subi	r24, 0x73	; 115
    2dd2:	9f 4f       	sbci	r25, 0xFF	; 255
    2dd4:	9e 01       	movw	r18, r28
    2dd6:	27 57       	subi	r18, 0x77	; 119
    2dd8:	3f 4f       	sbci	r19, 0xFF	; 255
    2dda:	d9 01       	movw	r26, r18
    2ddc:	2d 91       	ld	r18, X+
    2dde:	3c 91       	ld	r19, X
    2de0:	fc 01       	movw	r30, r24
    2de2:	31 83       	std	Z+1, r19	; 0x01
    2de4:	20 83       	st	Z, r18

00002de6 <.LBB166>:
    2de6:	ce 01       	movw	r24, r28
    2de8:	83 57       	subi	r24, 0x73	; 115
    2dea:	9f 4f       	sbci	r25, 0xFF	; 255
    2dec:	dc 01       	movw	r26, r24
    2dee:	8d 91       	ld	r24, X+
    2df0:	9c 91       	ld	r25, X
    2df2:	11 97       	sbiw	r26, 0x01	; 1

00002df4 <.L1^B20>:
    2df4:	01 97       	sbiw	r24, 0x01	; 1
    2df6:	f1 f7       	brne	.-4      	; 0x2df4 <.L1^B20>
    2df8:	9e 01       	movw	r18, r28
    2dfa:	23 57       	subi	r18, 0x73	; 115
    2dfc:	3f 4f       	sbci	r19, 0xFF	; 255
    2dfe:	f9 01       	movw	r30, r18
    2e00:	91 83       	std	Z+1, r25	; 0x01
    2e02:	80 83       	st	Z, r24

00002e04 <.Loc.275>:
	...

00002e06 <.L112>:
            {
                DEBOUNCE;
                status = 7;
    2e06:	87 e0       	ldi	r24, 0x07	; 7
    2e08:	90 e0       	ldi	r25, 0x00	; 0
    2e0a:	9a 83       	std	Y+2, r25	; 0x02
    2e0c:	89 83       	std	Y+1, r24	; 0x01

00002e0e <.Loc.277>:
            }
            break;
    2e0e:	0c 94 5e 1f 	jmp	0x3ebc	; 0x3ebc <.L254>

00002e12 <.L21>:

        case 7: // stijger_opgestapeld
            h_bridge_set_percentage2(0);
    2e12:	80 e0       	ldi	r24, 0x00	; 0
    2e14:	0e 94 16 03 	call	0x62c	; 0x62c <h_bridge_set_percentage2>

00002e18 <.Loc.279>:
            set_servo_direction(0); // ingeklapt
    2e18:	80 e0       	ldi	r24, 0x00	; 0
    2e1a:	0e 94 08 04 	call	0x810	; 0x810 <set_servo_direction>

00002e1e <.Loc.280>:
            knipperLichten(0); // uit
    2e1e:	80 e0       	ldi	r24, 0x00	; 0
    2e20:	0e 94 e4 03 	call	0x7c8	; 0x7c8 <knipperLichten>

00002e24 <.Loc.281>:

            LCD_Scherm_Leeg();
    2e24:	0e 94 80 0b 	call	0x1700	; 0x1700 <LCD_Scherm_Leeg>

00002e28 <.Loc.282>:
            LCD_Naar_Locatie(1, 1);
    2e28:	61 e0       	ldi	r22, 0x01	; 1
    2e2a:	81 e0       	ldi	r24, 0x01	; 1
    2e2c:	0e 94 64 0b 	call	0x16c8	; 0x16c8 <LCD_Naar_Locatie>

00002e30 <.Loc.283>:
	    	Stuur_LCD_String("Plaats volgende");
    2e30:	8c e3       	ldi	r24, 0x3C	; 60
    2e32:	92 e0       	ldi	r25, 0x02	; 2
    2e34:	0e 94 42 0b 	call	0x1684	; 0x1684 <Stuur_LCD_String>

00002e38 <.Loc.284>:

            if (((PINF & (1<<opbouw_knop)) == 0) || (Bluetooth_Getal == 3))//((PINF & (1<<opbouw_knop)) == 0)       //Opbouwen
    2e38:	8f e2       	ldi	r24, 0x2F	; 47
    2e3a:	90 e0       	ldi	r25, 0x00	; 0
    2e3c:	dc 01       	movw	r26, r24
    2e3e:	8c 91       	ld	r24, X

00002e40 <.Loc.285>:
    2e40:	88 2f       	mov	r24, r24
    2e42:	90 e0       	ldi	r25, 0x00	; 0
    2e44:	81 70       	andi	r24, 0x01	; 1
    2e46:	99 27       	eor	r25, r25

00002e48 <.Loc.286>:
    2e48:	00 97       	sbiw	r24, 0x00	; 0
    2e4a:	41 f0       	breq	.+16     	; 0x2e5c <.L113>

00002e4c <.Loc.287>:
    2e4c:	80 91 90 02 	lds	r24, 0x0290	; 0x800290 <Bluetooth_Getal>
    2e50:	90 91 91 02 	lds	r25, 0x0291	; 0x800291 <Bluetooth_Getal+0x1>

00002e54 <.Loc.288>:
    2e54:	83 30       	cpi	r24, 0x03	; 3
    2e56:	91 05       	cpc	r25, r1
    2e58:	09 f0       	breq	.+2      	; 0x2e5c <.L113>

00002e5a <L0^A>:
    2e5a:	0f c1       	rjmp	.+542    	; 0x307a <.L114>

00002e5c <.L113>:
    2e5c:	9e 01       	movw	r18, r28
    2e5e:	21 57       	subi	r18, 0x71	; 113
    2e60:	3f 4f       	sbci	r19, 0xFF	; 255
    2e62:	80 e0       	ldi	r24, 0x00	; 0
    2e64:	90 e0       	ldi	r25, 0x00	; 0
    2e66:	a0 ea       	ldi	r26, 0xA0	; 160
    2e68:	b1 e4       	ldi	r27, 0x41	; 65
    2e6a:	f9 01       	movw	r30, r18
    2e6c:	80 83       	st	Z, r24
    2e6e:	91 83       	std	Z+1, r25	; 0x01
    2e70:	a2 83       	std	Z+2, r26	; 0x02
    2e72:	b3 83       	std	Z+3, r27	; 0x03

00002e74 <.LBB168>:
	__tmp = ((F_CPU) / 4e3) * __ms;
    2e74:	8e 01       	movw	r16, r28
    2e76:	0d 56       	subi	r16, 0x6D	; 109
    2e78:	1f 4f       	sbci	r17, 0xFF	; 255
    2e7a:	ce 01       	movw	r24, r28
    2e7c:	81 57       	subi	r24, 0x71	; 113
    2e7e:	9f 4f       	sbci	r25, 0xFF	; 255
    2e80:	20 e0       	ldi	r18, 0x00	; 0
    2e82:	30 e0       	ldi	r19, 0x00	; 0
    2e84:	4a e7       	ldi	r20, 0x7A	; 122
    2e86:	55 e4       	ldi	r21, 0x45	; 69
    2e88:	dc 01       	movw	r26, r24
    2e8a:	6d 91       	ld	r22, X+
    2e8c:	7d 91       	ld	r23, X+
    2e8e:	8d 91       	ld	r24, X+
    2e90:	9c 91       	ld	r25, X
    2e92:	0e 94 15 24 	call	0x482a	; 0x482a <__mulsf3>
    2e96:	cb 52       	subi	r28, 0x2B	; 43
    2e98:	de 4f       	sbci	r29, 0xFE	; 254
    2e9a:	68 83       	st	Y, r22
    2e9c:	79 83       	std	Y+1, r23	; 0x01
    2e9e:	8a 83       	std	Y+2, r24	; 0x02
    2ea0:	9b 83       	std	Y+3, r25	; 0x03
    2ea2:	c5 5d       	subi	r28, 0xD5	; 213
    2ea4:	d1 40       	sbci	r29, 0x01	; 1
    2ea6:	cb 52       	subi	r28, 0x2B	; 43
    2ea8:	de 4f       	sbci	r29, 0xFE	; 254
    2eaa:	88 81       	ld	r24, Y
    2eac:	99 81       	ldd	r25, Y+1	; 0x01
    2eae:	aa 81       	ldd	r26, Y+2	; 0x02
    2eb0:	bb 81       	ldd	r27, Y+3	; 0x03
    2eb2:	c5 5d       	subi	r28, 0xD5	; 213
    2eb4:	d1 40       	sbci	r29, 0x01	; 1
    2eb6:	f8 01       	movw	r30, r16
    2eb8:	80 83       	st	Z, r24
    2eba:	91 83       	std	Z+1, r25	; 0x01
    2ebc:	a2 83       	std	Z+2, r26	; 0x02
    2ebe:	b3 83       	std	Z+3, r27	; 0x03

00002ec0 <.Loc.290>:
	if (__tmp < 1.0)
    2ec0:	ce 01       	movw	r24, r28
    2ec2:	8d 56       	subi	r24, 0x6D	; 109
    2ec4:	9f 4f       	sbci	r25, 0xFF	; 255
    2ec6:	20 e0       	ldi	r18, 0x00	; 0
    2ec8:	30 e0       	ldi	r19, 0x00	; 0
    2eca:	40 e8       	ldi	r20, 0x80	; 128
    2ecc:	5f e3       	ldi	r21, 0x3F	; 63
    2ece:	dc 01       	movw	r26, r24
    2ed0:	6d 91       	ld	r22, X+
    2ed2:	7d 91       	ld	r23, X+
    2ed4:	8d 91       	ld	r24, X+
    2ed6:	9c 91       	ld	r25, X
    2ed8:	0e 94 b8 22 	call	0x4570	; 0x4570 <__cmpsf2>
    2edc:	88 23       	and	r24, r24
    2ede:	4c f4       	brge	.+18     	; 0x2ef2 <.L234>

00002ee0 <.Loc.291>:
		__ticks = 1;
    2ee0:	ce 01       	movw	r24, r28
    2ee2:	89 56       	subi	r24, 0x69	; 105
    2ee4:	9f 4f       	sbci	r25, 0xFF	; 255
    2ee6:	21 e0       	ldi	r18, 0x01	; 1
    2ee8:	30 e0       	ldi	r19, 0x00	; 0
    2eea:	fc 01       	movw	r30, r24
    2eec:	31 83       	std	Z+1, r19	; 0x01
    2eee:	20 83       	st	Z, r18
    2ef0:	a5 c0       	rjmp	.+330    	; 0x303c <.L117>

00002ef2 <.L234>:
	else if (__tmp > 65535)
    2ef2:	ce 01       	movw	r24, r28
    2ef4:	8d 56       	subi	r24, 0x6D	; 109
    2ef6:	9f 4f       	sbci	r25, 0xFF	; 255
    2ef8:	20 e0       	ldi	r18, 0x00	; 0
    2efa:	3f ef       	ldi	r19, 0xFF	; 255
    2efc:	4f e7       	ldi	r20, 0x7F	; 127
    2efe:	57 e4       	ldi	r21, 0x47	; 71
    2f00:	dc 01       	movw	r26, r24
    2f02:	6d 91       	ld	r22, X+
    2f04:	7d 91       	ld	r23, X+
    2f06:	8d 91       	ld	r24, X+
    2f08:	9c 91       	ld	r25, X
    2f0a:	0e 94 10 24 	call	0x4820	; 0x4820 <__gesf2>
    2f0e:	88 23       	and	r24, r24
    2f10:	09 f0       	breq	.+2      	; 0x2f14 <L0^A>

00002f12 <L0^A>:
    2f12:	0c f4       	brge	.+2      	; 0x2f16 <.Loc.293>

00002f14 <L0^A>:
    2f14:	75 c0       	rjmp	.+234    	; 0x3000 <.L235>

00002f16 <.Loc.293>:
		__ticks = (uint16_t) (__ms * 10.0);
    2f16:	ce 01       	movw	r24, r28
    2f18:	81 57       	subi	r24, 0x71	; 113
    2f1a:	9f 4f       	sbci	r25, 0xFF	; 255
    2f1c:	20 e0       	ldi	r18, 0x00	; 0
    2f1e:	30 e0       	ldi	r19, 0x00	; 0
    2f20:	40 e2       	ldi	r20, 0x20	; 32
    2f22:	51 e4       	ldi	r21, 0x41	; 65
    2f24:	fc 01       	movw	r30, r24
    2f26:	60 81       	ld	r22, Z
    2f28:	71 81       	ldd	r23, Z+1	; 0x01
    2f2a:	82 81       	ldd	r24, Z+2	; 0x02
    2f2c:	93 81       	ldd	r25, Z+3	; 0x03
    2f2e:	0e 94 15 24 	call	0x482a	; 0x482a <__mulsf3>
    2f32:	c7 52       	subi	r28, 0x27	; 39
    2f34:	de 4f       	sbci	r29, 0xFE	; 254
    2f36:	68 83       	st	Y, r22
    2f38:	79 83       	std	Y+1, r23	; 0x01
    2f3a:	8a 83       	std	Y+2, r24	; 0x02
    2f3c:	9b 83       	std	Y+3, r25	; 0x03
    2f3e:	c9 5d       	subi	r28, 0xD9	; 217
    2f40:	d1 40       	sbci	r29, 0x01	; 1
    2f42:	c7 52       	subi	r28, 0x27	; 39
    2f44:	de 4f       	sbci	r29, 0xFE	; 254
    2f46:	88 81       	ld	r24, Y
    2f48:	99 81       	ldd	r25, Y+1	; 0x01
    2f4a:	aa 81       	ldd	r26, Y+2	; 0x02
    2f4c:	bb 81       	ldd	r27, Y+3	; 0x03
    2f4e:	c9 5d       	subi	r28, 0xD9	; 217
    2f50:	d1 40       	sbci	r29, 0x01	; 1
    2f52:	c7 5e       	subi	r28, 0xE7	; 231
    2f54:	de 4f       	sbci	r29, 0xFE	; 254
    2f56:	88 83       	st	Y, r24
    2f58:	99 83       	std	Y+1, r25	; 0x01
    2f5a:	aa 83       	std	Y+2, r26	; 0x02
    2f5c:	bb 83       	std	Y+3, r27	; 0x03
    2f5e:	c9 51       	subi	r28, 0x19	; 25
    2f60:	d1 40       	sbci	r29, 0x01	; 1

00002f62 <.Loc.294>:
    2f62:	8e 01       	movw	r16, r28
    2f64:	09 56       	subi	r16, 0x69	; 105
    2f66:	1f 4f       	sbci	r17, 0xFF	; 255
    2f68:	c7 5e       	subi	r28, 0xE7	; 231
    2f6a:	de 4f       	sbci	r29, 0xFE	; 254
    2f6c:	68 81       	ld	r22, Y
    2f6e:	79 81       	ldd	r23, Y+1	; 0x01
    2f70:	8a 81       	ldd	r24, Y+2	; 0x02
    2f72:	9b 81       	ldd	r25, Y+3	; 0x03
    2f74:	c9 51       	subi	r28, 0x19	; 25
    2f76:	d1 40       	sbci	r29, 0x01	; 1
    2f78:	0e 94 2f 23 	call	0x465e	; 0x465e <__fixunssfsi>
    2f7c:	c3 52       	subi	r28, 0x23	; 35
    2f7e:	de 4f       	sbci	r29, 0xFE	; 254
    2f80:	68 83       	st	Y, r22
    2f82:	79 83       	std	Y+1, r23	; 0x01
    2f84:	8a 83       	std	Y+2, r24	; 0x02
    2f86:	9b 83       	std	Y+3, r25	; 0x03
    2f88:	cd 5d       	subi	r28, 0xDD	; 221
    2f8a:	d1 40       	sbci	r29, 0x01	; 1
    2f8c:	c3 52       	subi	r28, 0x23	; 35
    2f8e:	de 4f       	sbci	r29, 0xFE	; 254
    2f90:	e8 81       	ld	r30, Y
    2f92:	f9 81       	ldd	r31, Y+1	; 0x01
    2f94:	cd 5d       	subi	r28, 0xDD	; 221
    2f96:	d1 40       	sbci	r29, 0x01	; 1
    2f98:	d8 01       	movw	r26, r16
    2f9a:	11 96       	adiw	r26, 0x01	; 1
    2f9c:	fc 93       	st	X, r31
    2f9e:	ee 93       	st	-X, r30

00002fa0 <.Loc.295>:
		while(__ticks)
    2fa0:	26 c0       	rjmp	.+76     	; 0x2fee <.L120>

00002fa2 <.L121>:
    2fa2:	ce 01       	movw	r24, r28
    2fa4:	87 56       	subi	r24, 0x67	; 103
    2fa6:	9f 4f       	sbci	r25, 0xFF	; 255
    2fa8:	20 e9       	ldi	r18, 0x90	; 144
    2faa:	31 e0       	ldi	r19, 0x01	; 1
    2fac:	dc 01       	movw	r26, r24
    2fae:	2d 93       	st	X+, r18
    2fb0:	3c 93       	st	X, r19

00002fb2 <.LBB170>:
    2fb2:	ce 01       	movw	r24, r28
    2fb4:	87 56       	subi	r24, 0x67	; 103
    2fb6:	9f 4f       	sbci	r25, 0xFF	; 255
    2fb8:	fc 01       	movw	r30, r24
    2fba:	80 81       	ld	r24, Z
    2fbc:	91 81       	ldd	r25, Z+1	; 0x01

00002fbe <.L1^B21>:
    2fbe:	01 97       	sbiw	r24, 0x01	; 1
    2fc0:	f1 f7       	brne	.-4      	; 0x2fbe <.L1^B21>
    2fc2:	9e 01       	movw	r18, r28
    2fc4:	27 56       	subi	r18, 0x67	; 103
    2fc6:	3f 4f       	sbci	r19, 0xFF	; 255
    2fc8:	d9 01       	movw	r26, r18
    2fca:	8d 93       	st	X+, r24
    2fcc:	9c 93       	st	X, r25

00002fce <.Loc.297>:
	...

00002fd0 <.LBE170>:
			__ticks --;
    2fd0:	ce 01       	movw	r24, r28
    2fd2:	89 56       	subi	r24, 0x69	; 105
    2fd4:	9f 4f       	sbci	r25, 0xFF	; 255
    2fd6:	9e 01       	movw	r18, r28
    2fd8:	29 56       	subi	r18, 0x69	; 105
    2fda:	3f 4f       	sbci	r19, 0xFF	; 255
    2fdc:	f9 01       	movw	r30, r18
    2fde:	20 81       	ld	r18, Z
    2fe0:	31 81       	ldd	r19, Z+1	; 0x01
    2fe2:	21 50       	subi	r18, 0x01	; 1
    2fe4:	31 09       	sbc	r19, r1
    2fe6:	dc 01       	movw	r26, r24
    2fe8:	11 96       	adiw	r26, 0x01	; 1
    2fea:	3c 93       	st	X, r19
    2fec:	2e 93       	st	-X, r18

00002fee <.L120>:
		while(__ticks)
    2fee:	ce 01       	movw	r24, r28
    2ff0:	89 56       	subi	r24, 0x69	; 105
    2ff2:	9f 4f       	sbci	r25, 0xFF	; 255
    2ff4:	fc 01       	movw	r30, r24
    2ff6:	80 81       	ld	r24, Z
    2ff8:	91 81       	ldd	r25, Z+1	; 0x01
    2ffa:	00 97       	sbiw	r24, 0x00	; 0
    2ffc:	91 f6       	brne	.-92     	; 0x2fa2 <.L121>

00002ffe <.Loc.300>:
		return;
    2ffe:	39 c0       	rjmp	.+114    	; 0x3072 <.L122>

00003000 <.L235>:
		__ticks = (uint16_t)__tmp;
    3000:	8e 01       	movw	r16, r28
    3002:	09 56       	subi	r16, 0x69	; 105
    3004:	1f 4f       	sbci	r17, 0xFF	; 255
    3006:	ce 01       	movw	r24, r28
    3008:	8d 56       	subi	r24, 0x6D	; 109
    300a:	9f 4f       	sbci	r25, 0xFF	; 255
    300c:	dc 01       	movw	r26, r24
    300e:	6d 91       	ld	r22, X+
    3010:	7d 91       	ld	r23, X+
    3012:	8d 91       	ld	r24, X+
    3014:	9c 91       	ld	r25, X
    3016:	0e 94 2f 23 	call	0x465e	; 0x465e <__fixunssfsi>
    301a:	cf 51       	subi	r28, 0x1F	; 31
    301c:	de 4f       	sbci	r29, 0xFE	; 254
    301e:	68 83       	st	Y, r22
    3020:	79 83       	std	Y+1, r23	; 0x01
    3022:	8a 83       	std	Y+2, r24	; 0x02
    3024:	9b 83       	std	Y+3, r25	; 0x03
    3026:	c1 5e       	subi	r28, 0xE1	; 225
    3028:	d1 40       	sbci	r29, 0x01	; 1
    302a:	cf 51       	subi	r28, 0x1F	; 31
    302c:	de 4f       	sbci	r29, 0xFE	; 254
    302e:	88 81       	ld	r24, Y
    3030:	99 81       	ldd	r25, Y+1	; 0x01
    3032:	c1 5e       	subi	r28, 0xE1	; 225
    3034:	d1 40       	sbci	r29, 0x01	; 1
    3036:	f8 01       	movw	r30, r16
    3038:	91 83       	std	Z+1, r25	; 0x01
    303a:	80 83       	st	Z, r24

0000303c <.L117>:
    303c:	ce 01       	movw	r24, r28
    303e:	85 56       	subi	r24, 0x65	; 101
    3040:	9f 4f       	sbci	r25, 0xFF	; 255
    3042:	9e 01       	movw	r18, r28
    3044:	29 56       	subi	r18, 0x69	; 105
    3046:	3f 4f       	sbci	r19, 0xFF	; 255
    3048:	d9 01       	movw	r26, r18
    304a:	2d 91       	ld	r18, X+
    304c:	3c 91       	ld	r19, X
    304e:	fc 01       	movw	r30, r24
    3050:	31 83       	std	Z+1, r19	; 0x01
    3052:	20 83       	st	Z, r18

00003054 <.LBB172>:
    3054:	ce 01       	movw	r24, r28
    3056:	85 56       	subi	r24, 0x65	; 101
    3058:	9f 4f       	sbci	r25, 0xFF	; 255
    305a:	dc 01       	movw	r26, r24
    305c:	8d 91       	ld	r24, X+
    305e:	9c 91       	ld	r25, X

00003060 <.L1^B22>:
    3060:	01 97       	sbiw	r24, 0x01	; 1
    3062:	f1 f7       	brne	.-4      	; 0x3060 <.L1^B22>
    3064:	9e 01       	movw	r18, r28
    3066:	25 56       	subi	r18, 0x65	; 101
    3068:	3f 4f       	sbci	r19, 0xFF	; 255
    306a:	f9 01       	movw	r30, r18
    306c:	91 83       	std	Z+1, r25	; 0x01
    306e:	80 83       	st	Z, r24

00003070 <.Loc.303>:
	...

00003072 <.L122>:
            {
                DEBOUNCE;
                status = 8;
    3072:	88 e0       	ldi	r24, 0x08	; 8
    3074:	90 e0       	ldi	r25, 0x00	; 0
    3076:	9a 83       	std	Y+2, r25	; 0x02
    3078:	89 83       	std	Y+1, r24	; 0x01

0000307a <.L114>:
            }
            if (((PINF & (1<<afbouw_knop)) == 0) || (Bluetooth_Getal == 4))//((PINF & (1<<afbouw_knop)) == 0)       /Afbouwen
    307a:	8f e2       	ldi	r24, 0x2F	; 47
    307c:	90 e0       	ldi	r25, 0x00	; 0
    307e:	dc 01       	movw	r26, r24
    3080:	8c 91       	ld	r24, X

00003082 <.Loc.306>:
    3082:	88 2f       	mov	r24, r24
    3084:	90 e0       	ldi	r25, 0x00	; 0
    3086:	82 70       	andi	r24, 0x02	; 2
    3088:	99 27       	eor	r25, r25

0000308a <.Loc.307>:
    308a:	00 97       	sbiw	r24, 0x00	; 0
    308c:	41 f0       	breq	.+16     	; 0x309e <.L123>

0000308e <.Loc.308>:
    308e:	80 91 90 02 	lds	r24, 0x0290	; 0x800290 <Bluetooth_Getal>
    3092:	90 91 91 02 	lds	r25, 0x0291	; 0x800291 <Bluetooth_Getal+0x1>

00003096 <.Loc.309>:
    3096:	84 30       	cpi	r24, 0x04	; 4
    3098:	91 05       	cpc	r25, r1
    309a:	09 f0       	breq	.+2      	; 0x309e <.L123>

0000309c <L0^A>:
    309c:	12 c7       	rjmp	.+3620   	; 0x3ec2 <.L255>

0000309e <.L123>:
    309e:	9e 01       	movw	r18, r28
    30a0:	23 56       	subi	r18, 0x63	; 99
    30a2:	3f 4f       	sbci	r19, 0xFF	; 255
    30a4:	80 e0       	ldi	r24, 0x00	; 0
    30a6:	90 e0       	ldi	r25, 0x00	; 0
    30a8:	a0 ea       	ldi	r26, 0xA0	; 160
    30aa:	b1 e4       	ldi	r27, 0x41	; 65
    30ac:	f9 01       	movw	r30, r18
    30ae:	80 83       	st	Z, r24
    30b0:	91 83       	std	Z+1, r25	; 0x01
    30b2:	a2 83       	std	Z+2, r26	; 0x02
    30b4:	b3 83       	std	Z+3, r27	; 0x03

000030b6 <.LBB174>:
	__tmp = ((F_CPU) / 4e3) * __ms;
    30b6:	8e 01       	movw	r16, r28
    30b8:	0f 55       	subi	r16, 0x5F	; 95
    30ba:	1f 4f       	sbci	r17, 0xFF	; 255
    30bc:	ce 01       	movw	r24, r28
    30be:	83 56       	subi	r24, 0x63	; 99
    30c0:	9f 4f       	sbci	r25, 0xFF	; 255
    30c2:	20 e0       	ldi	r18, 0x00	; 0
    30c4:	30 e0       	ldi	r19, 0x00	; 0
    30c6:	4a e7       	ldi	r20, 0x7A	; 122
    30c8:	55 e4       	ldi	r21, 0x45	; 69
    30ca:	dc 01       	movw	r26, r24
    30cc:	6d 91       	ld	r22, X+
    30ce:	7d 91       	ld	r23, X+
    30d0:	8d 91       	ld	r24, X+
    30d2:	9c 91       	ld	r25, X
    30d4:	0e 94 15 24 	call	0x482a	; 0x482a <__mulsf3>
    30d8:	cb 51       	subi	r28, 0x1B	; 27
    30da:	de 4f       	sbci	r29, 0xFE	; 254
    30dc:	68 83       	st	Y, r22
    30de:	79 83       	std	Y+1, r23	; 0x01
    30e0:	8a 83       	std	Y+2, r24	; 0x02
    30e2:	9b 83       	std	Y+3, r25	; 0x03
    30e4:	c5 5e       	subi	r28, 0xE5	; 229
    30e6:	d1 40       	sbci	r29, 0x01	; 1
    30e8:	cb 51       	subi	r28, 0x1B	; 27
    30ea:	de 4f       	sbci	r29, 0xFE	; 254
    30ec:	88 81       	ld	r24, Y
    30ee:	99 81       	ldd	r25, Y+1	; 0x01
    30f0:	aa 81       	ldd	r26, Y+2	; 0x02
    30f2:	bb 81       	ldd	r27, Y+3	; 0x03
    30f4:	c5 5e       	subi	r28, 0xE5	; 229
    30f6:	d1 40       	sbci	r29, 0x01	; 1
    30f8:	f8 01       	movw	r30, r16
    30fa:	80 83       	st	Z, r24
    30fc:	91 83       	std	Z+1, r25	; 0x01
    30fe:	a2 83       	std	Z+2, r26	; 0x02
    3100:	b3 83       	std	Z+3, r27	; 0x03

00003102 <.Loc.311>:
	if (__tmp < 1.0)
    3102:	ce 01       	movw	r24, r28
    3104:	8f 55       	subi	r24, 0x5F	; 95
    3106:	9f 4f       	sbci	r25, 0xFF	; 255
    3108:	20 e0       	ldi	r18, 0x00	; 0
    310a:	30 e0       	ldi	r19, 0x00	; 0
    310c:	40 e8       	ldi	r20, 0x80	; 128
    310e:	5f e3       	ldi	r21, 0x3F	; 63
    3110:	dc 01       	movw	r26, r24
    3112:	6d 91       	ld	r22, X+
    3114:	7d 91       	ld	r23, X+
    3116:	8d 91       	ld	r24, X+
    3118:	9c 91       	ld	r25, X
    311a:	0e 94 b8 22 	call	0x4570	; 0x4570 <__cmpsf2>
    311e:	88 23       	and	r24, r24
    3120:	4c f4       	brge	.+18     	; 0x3134 <.L236>

00003122 <.Loc.312>:
		__ticks = 1;
    3122:	ce 01       	movw	r24, r28
    3124:	8b 55       	subi	r24, 0x5B	; 91
    3126:	9f 4f       	sbci	r25, 0xFF	; 255
    3128:	21 e0       	ldi	r18, 0x01	; 1
    312a:	30 e0       	ldi	r19, 0x00	; 0
    312c:	fc 01       	movw	r30, r24
    312e:	31 83       	std	Z+1, r19	; 0x01
    3130:	20 83       	st	Z, r18
    3132:	a5 c0       	rjmp	.+330    	; 0x327e <.L127>

00003134 <.L236>:
	else if (__tmp > 65535)
    3134:	ce 01       	movw	r24, r28
    3136:	8f 55       	subi	r24, 0x5F	; 95
    3138:	9f 4f       	sbci	r25, 0xFF	; 255
    313a:	20 e0       	ldi	r18, 0x00	; 0
    313c:	3f ef       	ldi	r19, 0xFF	; 255
    313e:	4f e7       	ldi	r20, 0x7F	; 127
    3140:	57 e4       	ldi	r21, 0x47	; 71
    3142:	dc 01       	movw	r26, r24
    3144:	6d 91       	ld	r22, X+
    3146:	7d 91       	ld	r23, X+
    3148:	8d 91       	ld	r24, X+
    314a:	9c 91       	ld	r25, X
    314c:	0e 94 10 24 	call	0x4820	; 0x4820 <__gesf2>
    3150:	88 23       	and	r24, r24
    3152:	09 f0       	breq	.+2      	; 0x3156 <L0^A>

00003154 <L0^A>:
    3154:	0c f4       	brge	.+2      	; 0x3158 <.Loc.314>

00003156 <L0^A>:
    3156:	75 c0       	rjmp	.+234    	; 0x3242 <.L237>

00003158 <.Loc.314>:
		__ticks = (uint16_t) (__ms * 10.0);
    3158:	ce 01       	movw	r24, r28
    315a:	83 56       	subi	r24, 0x63	; 99
    315c:	9f 4f       	sbci	r25, 0xFF	; 255
    315e:	20 e0       	ldi	r18, 0x00	; 0
    3160:	30 e0       	ldi	r19, 0x00	; 0
    3162:	40 e2       	ldi	r20, 0x20	; 32
    3164:	51 e4       	ldi	r21, 0x41	; 65
    3166:	fc 01       	movw	r30, r24
    3168:	60 81       	ld	r22, Z
    316a:	71 81       	ldd	r23, Z+1	; 0x01
    316c:	82 81       	ldd	r24, Z+2	; 0x02
    316e:	93 81       	ldd	r25, Z+3	; 0x03
    3170:	0e 94 15 24 	call	0x482a	; 0x482a <__mulsf3>
    3174:	c7 51       	subi	r28, 0x17	; 23
    3176:	de 4f       	sbci	r29, 0xFE	; 254
    3178:	68 83       	st	Y, r22
    317a:	79 83       	std	Y+1, r23	; 0x01
    317c:	8a 83       	std	Y+2, r24	; 0x02
    317e:	9b 83       	std	Y+3, r25	; 0x03
    3180:	c9 5e       	subi	r28, 0xE9	; 233
    3182:	d1 40       	sbci	r29, 0x01	; 1
    3184:	c7 51       	subi	r28, 0x17	; 23
    3186:	de 4f       	sbci	r29, 0xFE	; 254
    3188:	88 81       	ld	r24, Y
    318a:	99 81       	ldd	r25, Y+1	; 0x01
    318c:	aa 81       	ldd	r26, Y+2	; 0x02
    318e:	bb 81       	ldd	r27, Y+3	; 0x03
    3190:	c9 5e       	subi	r28, 0xE9	; 233
    3192:	d1 40       	sbci	r29, 0x01	; 1
    3194:	c3 5e       	subi	r28, 0xE3	; 227
    3196:	de 4f       	sbci	r29, 0xFE	; 254
    3198:	88 83       	st	Y, r24
    319a:	99 83       	std	Y+1, r25	; 0x01
    319c:	aa 83       	std	Y+2, r26	; 0x02
    319e:	bb 83       	std	Y+3, r27	; 0x03
    31a0:	cd 51       	subi	r28, 0x1D	; 29
    31a2:	d1 40       	sbci	r29, 0x01	; 1

000031a4 <.Loc.315>:
    31a4:	8e 01       	movw	r16, r28
    31a6:	0b 55       	subi	r16, 0x5B	; 91
    31a8:	1f 4f       	sbci	r17, 0xFF	; 255
    31aa:	c3 5e       	subi	r28, 0xE3	; 227
    31ac:	de 4f       	sbci	r29, 0xFE	; 254
    31ae:	68 81       	ld	r22, Y
    31b0:	79 81       	ldd	r23, Y+1	; 0x01
    31b2:	8a 81       	ldd	r24, Y+2	; 0x02
    31b4:	9b 81       	ldd	r25, Y+3	; 0x03
    31b6:	cd 51       	subi	r28, 0x1D	; 29
    31b8:	d1 40       	sbci	r29, 0x01	; 1
    31ba:	0e 94 2f 23 	call	0x465e	; 0x465e <__fixunssfsi>
    31be:	c3 51       	subi	r28, 0x13	; 19
    31c0:	de 4f       	sbci	r29, 0xFE	; 254
    31c2:	68 83       	st	Y, r22
    31c4:	79 83       	std	Y+1, r23	; 0x01
    31c6:	8a 83       	std	Y+2, r24	; 0x02
    31c8:	9b 83       	std	Y+3, r25	; 0x03
    31ca:	cd 5e       	subi	r28, 0xED	; 237
    31cc:	d1 40       	sbci	r29, 0x01	; 1
    31ce:	c3 51       	subi	r28, 0x13	; 19
    31d0:	de 4f       	sbci	r29, 0xFE	; 254
    31d2:	e8 81       	ld	r30, Y
    31d4:	f9 81       	ldd	r31, Y+1	; 0x01
    31d6:	cd 5e       	subi	r28, 0xED	; 237
    31d8:	d1 40       	sbci	r29, 0x01	; 1
    31da:	d8 01       	movw	r26, r16
    31dc:	11 96       	adiw	r26, 0x01	; 1
    31de:	fc 93       	st	X, r31
    31e0:	ee 93       	st	-X, r30

000031e2 <.Loc.316>:
		while(__ticks)
    31e2:	26 c0       	rjmp	.+76     	; 0x3230 <.L130>

000031e4 <.L131>:
    31e4:	ce 01       	movw	r24, r28
    31e6:	89 55       	subi	r24, 0x59	; 89
    31e8:	9f 4f       	sbci	r25, 0xFF	; 255
    31ea:	20 e9       	ldi	r18, 0x90	; 144
    31ec:	31 e0       	ldi	r19, 0x01	; 1
    31ee:	dc 01       	movw	r26, r24
    31f0:	2d 93       	st	X+, r18
    31f2:	3c 93       	st	X, r19

000031f4 <.LBB176>:
    31f4:	ce 01       	movw	r24, r28
    31f6:	89 55       	subi	r24, 0x59	; 89
    31f8:	9f 4f       	sbci	r25, 0xFF	; 255
    31fa:	fc 01       	movw	r30, r24
    31fc:	80 81       	ld	r24, Z
    31fe:	91 81       	ldd	r25, Z+1	; 0x01

00003200 <.L1^B23>:
    3200:	01 97       	sbiw	r24, 0x01	; 1
    3202:	f1 f7       	brne	.-4      	; 0x3200 <.L1^B23>
    3204:	9e 01       	movw	r18, r28
    3206:	29 55       	subi	r18, 0x59	; 89
    3208:	3f 4f       	sbci	r19, 0xFF	; 255
    320a:	d9 01       	movw	r26, r18
    320c:	8d 93       	st	X+, r24
    320e:	9c 93       	st	X, r25

00003210 <.Loc.318>:
	...

00003212 <.LBE176>:
			__ticks --;
    3212:	ce 01       	movw	r24, r28
    3214:	8b 55       	subi	r24, 0x5B	; 91
    3216:	9f 4f       	sbci	r25, 0xFF	; 255
    3218:	9e 01       	movw	r18, r28
    321a:	2b 55       	subi	r18, 0x5B	; 91
    321c:	3f 4f       	sbci	r19, 0xFF	; 255
    321e:	f9 01       	movw	r30, r18
    3220:	20 81       	ld	r18, Z
    3222:	31 81       	ldd	r19, Z+1	; 0x01
    3224:	21 50       	subi	r18, 0x01	; 1
    3226:	31 09       	sbc	r19, r1
    3228:	dc 01       	movw	r26, r24
    322a:	11 96       	adiw	r26, 0x01	; 1
    322c:	3c 93       	st	X, r19
    322e:	2e 93       	st	-X, r18

00003230 <.L130>:
		while(__ticks)
    3230:	ce 01       	movw	r24, r28
    3232:	8b 55       	subi	r24, 0x5B	; 91
    3234:	9f 4f       	sbci	r25, 0xFF	; 255
    3236:	fc 01       	movw	r30, r24
    3238:	80 81       	ld	r24, Z
    323a:	91 81       	ldd	r25, Z+1	; 0x01
    323c:	00 97       	sbiw	r24, 0x00	; 0
    323e:	91 f6       	brne	.-92     	; 0x31e4 <.L131>

00003240 <.Loc.321>:
		return;
    3240:	3a c0       	rjmp	.+116    	; 0x32b6 <.L132>

00003242 <.L237>:
		__ticks = (uint16_t)__tmp;
    3242:	8e 01       	movw	r16, r28
    3244:	0b 55       	subi	r16, 0x5B	; 91
    3246:	1f 4f       	sbci	r17, 0xFF	; 255
    3248:	ce 01       	movw	r24, r28
    324a:	8f 55       	subi	r24, 0x5F	; 95
    324c:	9f 4f       	sbci	r25, 0xFF	; 255
    324e:	dc 01       	movw	r26, r24
    3250:	6d 91       	ld	r22, X+
    3252:	7d 91       	ld	r23, X+
    3254:	8d 91       	ld	r24, X+
    3256:	9c 91       	ld	r25, X
    3258:	0e 94 2f 23 	call	0x465e	; 0x465e <__fixunssfsi>
    325c:	cf 50       	subi	r28, 0x0F	; 15
    325e:	de 4f       	sbci	r29, 0xFE	; 254
    3260:	68 83       	st	Y, r22
    3262:	79 83       	std	Y+1, r23	; 0x01
    3264:	8a 83       	std	Y+2, r24	; 0x02
    3266:	9b 83       	std	Y+3, r25	; 0x03
    3268:	c1 5f       	subi	r28, 0xF1	; 241
    326a:	d1 40       	sbci	r29, 0x01	; 1
    326c:	cf 50       	subi	r28, 0x0F	; 15
    326e:	de 4f       	sbci	r29, 0xFE	; 254
    3270:	88 81       	ld	r24, Y
    3272:	99 81       	ldd	r25, Y+1	; 0x01
    3274:	c1 5f       	subi	r28, 0xF1	; 241
    3276:	d1 40       	sbci	r29, 0x01	; 1
    3278:	f8 01       	movw	r30, r16
    327a:	91 83       	std	Z+1, r25	; 0x01
    327c:	80 83       	st	Z, r24

0000327e <.L127>:
    327e:	ce 01       	movw	r24, r28
    3280:	87 55       	subi	r24, 0x57	; 87
    3282:	9f 4f       	sbci	r25, 0xFF	; 255
    3284:	9e 01       	movw	r18, r28
    3286:	2b 55       	subi	r18, 0x5B	; 91
    3288:	3f 4f       	sbci	r19, 0xFF	; 255
    328a:	d9 01       	movw	r26, r18
    328c:	2d 91       	ld	r18, X+
    328e:	3c 91       	ld	r19, X
    3290:	fc 01       	movw	r30, r24
    3292:	31 83       	std	Z+1, r19	; 0x01
    3294:	20 83       	st	Z, r18

00003296 <.LBB178>:
    3296:	ce 01       	movw	r24, r28
    3298:	87 55       	subi	r24, 0x57	; 87
    329a:	9f 4f       	sbci	r25, 0xFF	; 255
    329c:	dc 01       	movw	r26, r24
    329e:	8d 91       	ld	r24, X+
    32a0:	9c 91       	ld	r25, X
    32a2:	11 97       	sbiw	r26, 0x01	; 1

000032a4 <.L1^B24>:
    32a4:	01 97       	sbiw	r24, 0x01	; 1
    32a6:	f1 f7       	brne	.-4      	; 0x32a4 <.L1^B24>
    32a8:	9e 01       	movw	r18, r28
    32aa:	27 55       	subi	r18, 0x57	; 87
    32ac:	3f 4f       	sbci	r19, 0xFF	; 255
    32ae:	f9 01       	movw	r30, r18
    32b0:	91 83       	std	Z+1, r25	; 0x01
    32b2:	80 83       	st	Z, r24

000032b4 <.Loc.324>:
	...

000032b6 <.L132>:
            {
                DEBOUNCE;
                status = 9;
    32b6:	89 e0       	ldi	r24, 0x09	; 9
    32b8:	90 e0       	ldi	r25, 0x00	; 0
    32ba:	9a 83       	std	Y+2, r25	; 0x02
    32bc:	89 83       	std	Y+1, r24	; 0x01

000032be <.Loc.326>:
            }
            break;
    32be:	01 c6       	rjmp	.+3074   	; 0x3ec2 <.L255>

000032c0 <.L20>:

        case 8: // door_bouwen
            h_bridge_set_percentage2(80);
    32c0:	80 e5       	ldi	r24, 0x50	; 80
    32c2:	0e 94 16 03 	call	0x62c	; 0x62c <h_bridge_set_percentage2>

000032c6 <.Loc.328>:
            knipperLichten(1); // aan
    32c6:	81 e0       	ldi	r24, 0x01	; 1
    32c8:	0e 94 e4 03 	call	0x7c8	; 0x7c8 <knipperLichten>

000032cc <.Loc.329>:
            buzzer(1); // aan
    32cc:	81 e0       	ldi	r24, 0x01	; 1
    32ce:	0e 94 b8 03 	call	0x770	; 0x770 <buzzer>

000032d2 <.Loc.330>:

            LCD_Scherm_Leeg();
    32d2:	0e 94 80 0b 	call	0x1700	; 0x1700 <LCD_Scherm_Leeg>

000032d6 <.Loc.331>:
            LCD_Naar_Locatie(1, 1);
    32d6:	61 e0       	ldi	r22, 0x01	; 1
    32d8:	81 e0       	ldi	r24, 0x01	; 1
    32da:	0e 94 64 0b 	call	0x16c8	; 0x16c8 <LCD_Naar_Locatie>

000032de <.Loc.332>:
	    	Stuur_LCD_String("Door bouwen");
    32de:	8f e5       	ldi	r24, 0x5F	; 95
    32e0:	92 e0       	ldi	r25, 0x02	; 2
    32e2:	0e 94 42 0b 	call	0x1684	; 0x1684 <Stuur_LCD_String>

000032e6 <.Loc.333>:

            if ((PINA & (1<<home_switch)) == 0)
    32e6:	80 e2       	ldi	r24, 0x20	; 32
    32e8:	90 e0       	ldi	r25, 0x00	; 0
    32ea:	dc 01       	movw	r26, r24
    32ec:	8c 91       	ld	r24, X

000032ee <.Loc.334>:
    32ee:	88 2f       	mov	r24, r24
    32f0:	90 e0       	ldi	r25, 0x00	; 0
    32f2:	82 70       	andi	r24, 0x02	; 2
    32f4:	99 27       	eor	r25, r25

000032f6 <.Loc.335>:
    32f6:	00 97       	sbiw	r24, 0x00	; 0
    32f8:	09 f0       	breq	.+2      	; 0x32fc <L0^A+0x2>

000032fa <L0^A>:
    32fa:	e6 c5       	rjmp	.+3020   	; 0x3ec8 <.L256>
    32fc:	9e 01       	movw	r18, r28
    32fe:	25 55       	subi	r18, 0x55	; 85
    3300:	3f 4f       	sbci	r19, 0xFF	; 255
    3302:	80 e0       	ldi	r24, 0x00	; 0
    3304:	90 e0       	ldi	r25, 0x00	; 0
    3306:	a0 ea       	ldi	r26, 0xA0	; 160
    3308:	b1 e4       	ldi	r27, 0x41	; 65
    330a:	f9 01       	movw	r30, r18
    330c:	80 83       	st	Z, r24
    330e:	91 83       	std	Z+1, r25	; 0x01
    3310:	a2 83       	std	Z+2, r26	; 0x02
    3312:	b3 83       	std	Z+3, r27	; 0x03

00003314 <.LBB180>:
	__tmp = ((F_CPU) / 4e3) * __ms;
    3314:	8e 01       	movw	r16, r28
    3316:	01 55       	subi	r16, 0x51	; 81
    3318:	1f 4f       	sbci	r17, 0xFF	; 255
    331a:	ce 01       	movw	r24, r28
    331c:	85 55       	subi	r24, 0x55	; 85
    331e:	9f 4f       	sbci	r25, 0xFF	; 255
    3320:	20 e0       	ldi	r18, 0x00	; 0
    3322:	30 e0       	ldi	r19, 0x00	; 0
    3324:	4a e7       	ldi	r20, 0x7A	; 122
    3326:	55 e4       	ldi	r21, 0x45	; 69
    3328:	dc 01       	movw	r26, r24
    332a:	6d 91       	ld	r22, X+
    332c:	7d 91       	ld	r23, X+
    332e:	8d 91       	ld	r24, X+
    3330:	9c 91       	ld	r25, X
    3332:	0e 94 15 24 	call	0x482a	; 0x482a <__mulsf3>
    3336:	cb 50       	subi	r28, 0x0B	; 11
    3338:	de 4f       	sbci	r29, 0xFE	; 254
    333a:	68 83       	st	Y, r22
    333c:	79 83       	std	Y+1, r23	; 0x01
    333e:	8a 83       	std	Y+2, r24	; 0x02
    3340:	9b 83       	std	Y+3, r25	; 0x03
    3342:	c5 5f       	subi	r28, 0xF5	; 245
    3344:	d1 40       	sbci	r29, 0x01	; 1
    3346:	cb 50       	subi	r28, 0x0B	; 11
    3348:	de 4f       	sbci	r29, 0xFE	; 254
    334a:	88 81       	ld	r24, Y
    334c:	99 81       	ldd	r25, Y+1	; 0x01
    334e:	aa 81       	ldd	r26, Y+2	; 0x02
    3350:	bb 81       	ldd	r27, Y+3	; 0x03
    3352:	c5 5f       	subi	r28, 0xF5	; 245
    3354:	d1 40       	sbci	r29, 0x01	; 1
    3356:	f8 01       	movw	r30, r16
    3358:	80 83       	st	Z, r24
    335a:	91 83       	std	Z+1, r25	; 0x01
    335c:	a2 83       	std	Z+2, r26	; 0x02
    335e:	b3 83       	std	Z+3, r27	; 0x03

00003360 <.Loc.337>:
	if (__tmp < 1.0)
    3360:	ce 01       	movw	r24, r28
    3362:	81 55       	subi	r24, 0x51	; 81
    3364:	9f 4f       	sbci	r25, 0xFF	; 255
    3366:	20 e0       	ldi	r18, 0x00	; 0
    3368:	30 e0       	ldi	r19, 0x00	; 0
    336a:	40 e8       	ldi	r20, 0x80	; 128
    336c:	5f e3       	ldi	r21, 0x3F	; 63
    336e:	dc 01       	movw	r26, r24
    3370:	6d 91       	ld	r22, X+
    3372:	7d 91       	ld	r23, X+
    3374:	8d 91       	ld	r24, X+
    3376:	9c 91       	ld	r25, X
    3378:	0e 94 b8 22 	call	0x4570	; 0x4570 <__cmpsf2>
    337c:	88 23       	and	r24, r24
    337e:	4c f4       	brge	.+18     	; 0x3392 <.L238>

00003380 <.Loc.338>:
		__ticks = 1;
    3380:	ce 01       	movw	r24, r28
    3382:	8d 54       	subi	r24, 0x4D	; 77
    3384:	9f 4f       	sbci	r25, 0xFF	; 255
    3386:	21 e0       	ldi	r18, 0x01	; 1
    3388:	30 e0       	ldi	r19, 0x00	; 0
    338a:	fc 01       	movw	r30, r24
    338c:	31 83       	std	Z+1, r19	; 0x01
    338e:	20 83       	st	Z, r18
    3390:	a5 c0       	rjmp	.+330    	; 0x34dc <.L136>

00003392 <.L238>:
	else if (__tmp > 65535)
    3392:	ce 01       	movw	r24, r28
    3394:	81 55       	subi	r24, 0x51	; 81
    3396:	9f 4f       	sbci	r25, 0xFF	; 255
    3398:	20 e0       	ldi	r18, 0x00	; 0
    339a:	3f ef       	ldi	r19, 0xFF	; 255
    339c:	4f e7       	ldi	r20, 0x7F	; 127
    339e:	57 e4       	ldi	r21, 0x47	; 71
    33a0:	dc 01       	movw	r26, r24
    33a2:	6d 91       	ld	r22, X+
    33a4:	7d 91       	ld	r23, X+
    33a6:	8d 91       	ld	r24, X+
    33a8:	9c 91       	ld	r25, X
    33aa:	0e 94 10 24 	call	0x4820	; 0x4820 <__gesf2>
    33ae:	88 23       	and	r24, r24
    33b0:	09 f0       	breq	.+2      	; 0x33b4 <L0^A>

000033b2 <L0^A>:
    33b2:	0c f4       	brge	.+2      	; 0x33b6 <.Loc.340>

000033b4 <L0^A>:
    33b4:	75 c0       	rjmp	.+234    	; 0x34a0 <.L239>

000033b6 <.Loc.340>:
		__ticks = (uint16_t) (__ms * 10.0);
    33b6:	ce 01       	movw	r24, r28
    33b8:	85 55       	subi	r24, 0x55	; 85
    33ba:	9f 4f       	sbci	r25, 0xFF	; 255
    33bc:	20 e0       	ldi	r18, 0x00	; 0
    33be:	30 e0       	ldi	r19, 0x00	; 0
    33c0:	40 e2       	ldi	r20, 0x20	; 32
    33c2:	51 e4       	ldi	r21, 0x41	; 65
    33c4:	fc 01       	movw	r30, r24
    33c6:	60 81       	ld	r22, Z
    33c8:	71 81       	ldd	r23, Z+1	; 0x01
    33ca:	82 81       	ldd	r24, Z+2	; 0x02
    33cc:	93 81       	ldd	r25, Z+3	; 0x03
    33ce:	0e 94 15 24 	call	0x482a	; 0x482a <__mulsf3>
    33d2:	c7 50       	subi	r28, 0x07	; 7
    33d4:	de 4f       	sbci	r29, 0xFE	; 254
    33d6:	68 83       	st	Y, r22
    33d8:	79 83       	std	Y+1, r23	; 0x01
    33da:	8a 83       	std	Y+2, r24	; 0x02
    33dc:	9b 83       	std	Y+3, r25	; 0x03
    33de:	c9 5f       	subi	r28, 0xF9	; 249
    33e0:	d1 40       	sbci	r29, 0x01	; 1
    33e2:	c7 50       	subi	r28, 0x07	; 7
    33e4:	de 4f       	sbci	r29, 0xFE	; 254
    33e6:	88 81       	ld	r24, Y
    33e8:	99 81       	ldd	r25, Y+1	; 0x01
    33ea:	aa 81       	ldd	r26, Y+2	; 0x02
    33ec:	bb 81       	ldd	r27, Y+3	; 0x03
    33ee:	c9 5f       	subi	r28, 0xF9	; 249
    33f0:	d1 40       	sbci	r29, 0x01	; 1
    33f2:	cf 5d       	subi	r28, 0xDF	; 223
    33f4:	de 4f       	sbci	r29, 0xFE	; 254
    33f6:	88 83       	st	Y, r24
    33f8:	99 83       	std	Y+1, r25	; 0x01
    33fa:	aa 83       	std	Y+2, r26	; 0x02
    33fc:	bb 83       	std	Y+3, r27	; 0x03
    33fe:	c1 52       	subi	r28, 0x21	; 33
    3400:	d1 40       	sbci	r29, 0x01	; 1

00003402 <.Loc.341>:
    3402:	8e 01       	movw	r16, r28
    3404:	0d 54       	subi	r16, 0x4D	; 77
    3406:	1f 4f       	sbci	r17, 0xFF	; 255
    3408:	cf 5d       	subi	r28, 0xDF	; 223
    340a:	de 4f       	sbci	r29, 0xFE	; 254
    340c:	68 81       	ld	r22, Y
    340e:	79 81       	ldd	r23, Y+1	; 0x01
    3410:	8a 81       	ldd	r24, Y+2	; 0x02
    3412:	9b 81       	ldd	r25, Y+3	; 0x03
    3414:	c1 52       	subi	r28, 0x21	; 33
    3416:	d1 40       	sbci	r29, 0x01	; 1
    3418:	0e 94 2f 23 	call	0x465e	; 0x465e <__fixunssfsi>
    341c:	c3 50       	subi	r28, 0x03	; 3
    341e:	de 4f       	sbci	r29, 0xFE	; 254
    3420:	68 83       	st	Y, r22
    3422:	79 83       	std	Y+1, r23	; 0x01
    3424:	8a 83       	std	Y+2, r24	; 0x02
    3426:	9b 83       	std	Y+3, r25	; 0x03
    3428:	cd 5f       	subi	r28, 0xFD	; 253
    342a:	d1 40       	sbci	r29, 0x01	; 1
    342c:	c3 50       	subi	r28, 0x03	; 3
    342e:	de 4f       	sbci	r29, 0xFE	; 254
    3430:	e8 81       	ld	r30, Y
    3432:	f9 81       	ldd	r31, Y+1	; 0x01
    3434:	cd 5f       	subi	r28, 0xFD	; 253
    3436:	d1 40       	sbci	r29, 0x01	; 1
    3438:	d8 01       	movw	r26, r16
    343a:	11 96       	adiw	r26, 0x01	; 1
    343c:	fc 93       	st	X, r31
    343e:	ee 93       	st	-X, r30

00003440 <.Loc.342>:
		while(__ticks)
    3440:	26 c0       	rjmp	.+76     	; 0x348e <.L139>

00003442 <.L140>:
    3442:	ce 01       	movw	r24, r28
    3444:	8b 54       	subi	r24, 0x4B	; 75
    3446:	9f 4f       	sbci	r25, 0xFF	; 255
    3448:	20 e9       	ldi	r18, 0x90	; 144
    344a:	31 e0       	ldi	r19, 0x01	; 1
    344c:	dc 01       	movw	r26, r24
    344e:	2d 93       	st	X+, r18
    3450:	3c 93       	st	X, r19

00003452 <.LBB182>:
    3452:	ce 01       	movw	r24, r28
    3454:	8b 54       	subi	r24, 0x4B	; 75
    3456:	9f 4f       	sbci	r25, 0xFF	; 255
    3458:	fc 01       	movw	r30, r24
    345a:	80 81       	ld	r24, Z
    345c:	91 81       	ldd	r25, Z+1	; 0x01

0000345e <.L1^B25>:
    345e:	01 97       	sbiw	r24, 0x01	; 1
    3460:	f1 f7       	brne	.-4      	; 0x345e <.L1^B25>
    3462:	9e 01       	movw	r18, r28
    3464:	2b 54       	subi	r18, 0x4B	; 75
    3466:	3f 4f       	sbci	r19, 0xFF	; 255
    3468:	d9 01       	movw	r26, r18
    346a:	8d 93       	st	X+, r24
    346c:	9c 93       	st	X, r25

0000346e <.Loc.344>:
	...

00003470 <.LBE182>:
			__ticks --;
    3470:	ce 01       	movw	r24, r28
    3472:	8d 54       	subi	r24, 0x4D	; 77
    3474:	9f 4f       	sbci	r25, 0xFF	; 255
    3476:	9e 01       	movw	r18, r28
    3478:	2d 54       	subi	r18, 0x4D	; 77
    347a:	3f 4f       	sbci	r19, 0xFF	; 255
    347c:	f9 01       	movw	r30, r18
    347e:	20 81       	ld	r18, Z
    3480:	31 81       	ldd	r19, Z+1	; 0x01
    3482:	21 50       	subi	r18, 0x01	; 1
    3484:	31 09       	sbc	r19, r1
    3486:	dc 01       	movw	r26, r24
    3488:	11 96       	adiw	r26, 0x01	; 1
    348a:	3c 93       	st	X, r19
    348c:	2e 93       	st	-X, r18

0000348e <.L139>:
		while(__ticks)
    348e:	ce 01       	movw	r24, r28
    3490:	8d 54       	subi	r24, 0x4D	; 77
    3492:	9f 4f       	sbci	r25, 0xFF	; 255
    3494:	fc 01       	movw	r30, r24
    3496:	80 81       	ld	r24, Z
    3498:	91 81       	ldd	r25, Z+1	; 0x01
    349a:	00 97       	sbiw	r24, 0x00	; 0
    349c:	91 f6       	brne	.-92     	; 0x3442 <.L140>

0000349e <.Loc.347>:
		return;
    349e:	3a c0       	rjmp	.+116    	; 0x3514 <.L141>

000034a0 <.L239>:
		__ticks = (uint16_t)__tmp;
    34a0:	8e 01       	movw	r16, r28
    34a2:	0d 54       	subi	r16, 0x4D	; 77
    34a4:	1f 4f       	sbci	r17, 0xFF	; 255
    34a6:	ce 01       	movw	r24, r28
    34a8:	81 55       	subi	r24, 0x51	; 81
    34aa:	9f 4f       	sbci	r25, 0xFF	; 255
    34ac:	dc 01       	movw	r26, r24
    34ae:	6d 91       	ld	r22, X+
    34b0:	7d 91       	ld	r23, X+
    34b2:	8d 91       	ld	r24, X+
    34b4:	9c 91       	ld	r25, X
    34b6:	0e 94 2f 23 	call	0x465e	; 0x465e <__fixunssfsi>
    34ba:	cf 5f       	subi	r28, 0xFF	; 255
    34bc:	dd 4f       	sbci	r29, 0xFD	; 253
    34be:	68 83       	st	Y, r22
    34c0:	79 83       	std	Y+1, r23	; 0x01
    34c2:	8a 83       	std	Y+2, r24	; 0x02
    34c4:	9b 83       	std	Y+3, r25	; 0x03
    34c6:	c1 50       	subi	r28, 0x01	; 1
    34c8:	d2 40       	sbci	r29, 0x02	; 2
    34ca:	cf 5f       	subi	r28, 0xFF	; 255
    34cc:	dd 4f       	sbci	r29, 0xFD	; 253
    34ce:	88 81       	ld	r24, Y
    34d0:	99 81       	ldd	r25, Y+1	; 0x01
    34d2:	c1 50       	subi	r28, 0x01	; 1
    34d4:	d2 40       	sbci	r29, 0x02	; 2
    34d6:	f8 01       	movw	r30, r16
    34d8:	91 83       	std	Z+1, r25	; 0x01
    34da:	80 83       	st	Z, r24

000034dc <.L136>:
    34dc:	ce 01       	movw	r24, r28
    34de:	89 54       	subi	r24, 0x49	; 73
    34e0:	9f 4f       	sbci	r25, 0xFF	; 255
    34e2:	9e 01       	movw	r18, r28
    34e4:	2d 54       	subi	r18, 0x4D	; 77
    34e6:	3f 4f       	sbci	r19, 0xFF	; 255
    34e8:	d9 01       	movw	r26, r18
    34ea:	2d 91       	ld	r18, X+
    34ec:	3c 91       	ld	r19, X
    34ee:	fc 01       	movw	r30, r24
    34f0:	31 83       	std	Z+1, r19	; 0x01
    34f2:	20 83       	st	Z, r18

000034f4 <.LBB184>:
    34f4:	ce 01       	movw	r24, r28
    34f6:	89 54       	subi	r24, 0x49	; 73
    34f8:	9f 4f       	sbci	r25, 0xFF	; 255
    34fa:	dc 01       	movw	r26, r24
    34fc:	8d 91       	ld	r24, X+
    34fe:	9c 91       	ld	r25, X
    3500:	11 97       	sbiw	r26, 0x01	; 1

00003502 <.L1^B26>:
    3502:	01 97       	sbiw	r24, 0x01	; 1
    3504:	f1 f7       	brne	.-4      	; 0x3502 <.L1^B26>
    3506:	9e 01       	movw	r18, r28
    3508:	29 54       	subi	r18, 0x49	; 73
    350a:	3f 4f       	sbci	r19, 0xFF	; 255
    350c:	f9 01       	movw	r30, r18
    350e:	91 83       	std	Z+1, r25	; 0x01
    3510:	80 83       	st	Z, r24

00003512 <.Loc.350>:
	...

00003514 <.L141>:
            {
                DEBOUNCE;
                status = 4;
    3514:	84 e0       	ldi	r24, 0x04	; 4
    3516:	90 e0       	ldi	r25, 0x00	; 0
    3518:	9a 83       	std	Y+2, r25	; 0x02
    351a:	89 83       	std	Y+1, r24	; 0x01

0000351c <.Loc.352>:
            }
            break;
    351c:	d5 c4       	rjmp	.+2474   	; 0x3ec8 <.L256>

0000351e <.L19>:

        case 9: // afbouwen
            buzzer(1); // aan
    351e:	81 e0       	ldi	r24, 0x01	; 1
    3520:	0e 94 b8 03 	call	0x770	; 0x770 <buzzer>

00003524 <.Loc.354>:
            knipperLichten(1); // aan
    3524:	81 e0       	ldi	r24, 0x01	; 1
    3526:	0e 94 e4 03 	call	0x7c8	; 0x7c8 <knipperLichten>

0000352a <.Loc.355>:
            set_servo_direction(1); // uitgeklapt
    352a:	81 e0       	ldi	r24, 0x01	; 1
    352c:	0e 94 08 04 	call	0x810	; 0x810 <set_servo_direction>

00003530 <.Loc.356>:

            LCD_Scherm_Leeg();
    3530:	0e 94 80 0b 	call	0x1700	; 0x1700 <LCD_Scherm_Leeg>

00003534 <.Loc.357>:
            LCD_Naar_Locatie(1, 1);
    3534:	61 e0       	ldi	r22, 0x01	; 1
    3536:	81 e0       	ldi	r24, 0x01	; 1
    3538:	0e 94 64 0b 	call	0x16c8	; 0x16c8 <LCD_Naar_Locatie>

0000353c <.Loc.358>:
	    	Stuur_LCD_String("Afbouwen");
    353c:	8b e6       	ldi	r24, 0x6B	; 107
    353e:	92 e0       	ldi	r25, 0x02	; 2
    3540:	0e 94 42 0b 	call	0x1684	; 0x1684 <Stuur_LCD_String>

00003544 <.Loc.359>:

            // moet pas na het uitklappen van de servo's
            h_bridge_set_percentage2(20);
    3544:	84 e1       	ldi	r24, 0x14	; 20
    3546:	0e 94 16 03 	call	0x62c	; 0x62c <h_bridge_set_percentage2>

0000354a <.Loc.360>:
            if ((PINA & (1<<top_switch)) == 0)
    354a:	80 e2       	ldi	r24, 0x20	; 32
    354c:	90 e0       	ldi	r25, 0x00	; 0
    354e:	dc 01       	movw	r26, r24
    3550:	8c 91       	ld	r24, X

00003552 <.Loc.361>:
    3552:	88 2f       	mov	r24, r24
    3554:	90 e0       	ldi	r25, 0x00	; 0
    3556:	88 70       	andi	r24, 0x08	; 8
    3558:	99 27       	eor	r25, r25

0000355a <.Loc.362>:
    355a:	00 97       	sbiw	r24, 0x00	; 0
    355c:	09 f0       	breq	.+2      	; 0x3560 <L0^A+0x2>

0000355e <L0^A>:
    355e:	b7 c4       	rjmp	.+2414   	; 0x3ece <.L257>
    3560:	9e 01       	movw	r18, r28
    3562:	27 54       	subi	r18, 0x47	; 71
    3564:	3f 4f       	sbci	r19, 0xFF	; 255
    3566:	80 e0       	ldi	r24, 0x00	; 0
    3568:	90 e0       	ldi	r25, 0x00	; 0
    356a:	a0 ea       	ldi	r26, 0xA0	; 160
    356c:	b1 e4       	ldi	r27, 0x41	; 65
    356e:	f9 01       	movw	r30, r18
    3570:	80 83       	st	Z, r24
    3572:	91 83       	std	Z+1, r25	; 0x01
    3574:	a2 83       	std	Z+2, r26	; 0x02
    3576:	b3 83       	std	Z+3, r27	; 0x03

00003578 <.LBB186>:
	__tmp = ((F_CPU) / 4e3) * __ms;
    3578:	8e 01       	movw	r16, r28
    357a:	03 54       	subi	r16, 0x43	; 67
    357c:	1f 4f       	sbci	r17, 0xFF	; 255
    357e:	ce 01       	movw	r24, r28
    3580:	87 54       	subi	r24, 0x47	; 71
    3582:	9f 4f       	sbci	r25, 0xFF	; 255
    3584:	20 e0       	ldi	r18, 0x00	; 0
    3586:	30 e0       	ldi	r19, 0x00	; 0
    3588:	4a e7       	ldi	r20, 0x7A	; 122
    358a:	55 e4       	ldi	r21, 0x45	; 69
    358c:	dc 01       	movw	r26, r24
    358e:	6d 91       	ld	r22, X+
    3590:	7d 91       	ld	r23, X+
    3592:	8d 91       	ld	r24, X+
    3594:	9c 91       	ld	r25, X
    3596:	0e 94 15 24 	call	0x482a	; 0x482a <__mulsf3>
    359a:	cb 5f       	subi	r28, 0xFB	; 251
    359c:	dd 4f       	sbci	r29, 0xFD	; 253
    359e:	68 83       	st	Y, r22
    35a0:	79 83       	std	Y+1, r23	; 0x01
    35a2:	8a 83       	std	Y+2, r24	; 0x02
    35a4:	9b 83       	std	Y+3, r25	; 0x03
    35a6:	c5 50       	subi	r28, 0x05	; 5
    35a8:	d2 40       	sbci	r29, 0x02	; 2
    35aa:	cb 5f       	subi	r28, 0xFB	; 251
    35ac:	dd 4f       	sbci	r29, 0xFD	; 253
    35ae:	88 81       	ld	r24, Y
    35b0:	99 81       	ldd	r25, Y+1	; 0x01
    35b2:	aa 81       	ldd	r26, Y+2	; 0x02
    35b4:	bb 81       	ldd	r27, Y+3	; 0x03
    35b6:	c5 50       	subi	r28, 0x05	; 5
    35b8:	d2 40       	sbci	r29, 0x02	; 2
    35ba:	f8 01       	movw	r30, r16
    35bc:	80 83       	st	Z, r24
    35be:	91 83       	std	Z+1, r25	; 0x01
    35c0:	a2 83       	std	Z+2, r26	; 0x02
    35c2:	b3 83       	std	Z+3, r27	; 0x03

000035c4 <.Loc.364>:
	if (__tmp < 1.0)
    35c4:	ce 01       	movw	r24, r28
    35c6:	83 54       	subi	r24, 0x43	; 67
    35c8:	9f 4f       	sbci	r25, 0xFF	; 255
    35ca:	20 e0       	ldi	r18, 0x00	; 0
    35cc:	30 e0       	ldi	r19, 0x00	; 0
    35ce:	40 e8       	ldi	r20, 0x80	; 128
    35d0:	5f e3       	ldi	r21, 0x3F	; 63
    35d2:	dc 01       	movw	r26, r24
    35d4:	6d 91       	ld	r22, X+
    35d6:	7d 91       	ld	r23, X+
    35d8:	8d 91       	ld	r24, X+
    35da:	9c 91       	ld	r25, X
    35dc:	0e 94 b8 22 	call	0x4570	; 0x4570 <__cmpsf2>
    35e0:	88 23       	and	r24, r24
    35e2:	4c f4       	brge	.+18     	; 0x35f6 <.L240>

000035e4 <.Loc.365>:
		__ticks = 1;
    35e4:	ce 01       	movw	r24, r28
    35e6:	8f 53       	subi	r24, 0x3F	; 63
    35e8:	9f 4f       	sbci	r25, 0xFF	; 255
    35ea:	21 e0       	ldi	r18, 0x01	; 1
    35ec:	30 e0       	ldi	r19, 0x00	; 0
    35ee:	fc 01       	movw	r30, r24
    35f0:	31 83       	std	Z+1, r19	; 0x01
    35f2:	20 83       	st	Z, r18
    35f4:	a5 c0       	rjmp	.+330    	; 0x3740 <.L145>

000035f6 <.L240>:
	else if (__tmp > 65535)
    35f6:	ce 01       	movw	r24, r28
    35f8:	83 54       	subi	r24, 0x43	; 67
    35fa:	9f 4f       	sbci	r25, 0xFF	; 255
    35fc:	20 e0       	ldi	r18, 0x00	; 0
    35fe:	3f ef       	ldi	r19, 0xFF	; 255
    3600:	4f e7       	ldi	r20, 0x7F	; 127
    3602:	57 e4       	ldi	r21, 0x47	; 71
    3604:	dc 01       	movw	r26, r24
    3606:	6d 91       	ld	r22, X+
    3608:	7d 91       	ld	r23, X+
    360a:	8d 91       	ld	r24, X+
    360c:	9c 91       	ld	r25, X
    360e:	0e 94 10 24 	call	0x4820	; 0x4820 <__gesf2>
    3612:	88 23       	and	r24, r24
    3614:	09 f0       	breq	.+2      	; 0x3618 <L0^A>

00003616 <L0^A>:
    3616:	0c f4       	brge	.+2      	; 0x361a <.Loc.367>

00003618 <L0^A>:
    3618:	75 c0       	rjmp	.+234    	; 0x3704 <.L241>

0000361a <.Loc.367>:
		__ticks = (uint16_t) (__ms * 10.0);
    361a:	ce 01       	movw	r24, r28
    361c:	87 54       	subi	r24, 0x47	; 71
    361e:	9f 4f       	sbci	r25, 0xFF	; 255
    3620:	20 e0       	ldi	r18, 0x00	; 0
    3622:	30 e0       	ldi	r19, 0x00	; 0
    3624:	40 e2       	ldi	r20, 0x20	; 32
    3626:	51 e4       	ldi	r21, 0x41	; 65
    3628:	fc 01       	movw	r30, r24
    362a:	60 81       	ld	r22, Z
    362c:	71 81       	ldd	r23, Z+1	; 0x01
    362e:	82 81       	ldd	r24, Z+2	; 0x02
    3630:	93 81       	ldd	r25, Z+3	; 0x03
    3632:	0e 94 15 24 	call	0x482a	; 0x482a <__mulsf3>
    3636:	c7 5f       	subi	r28, 0xF7	; 247
    3638:	dd 4f       	sbci	r29, 0xFD	; 253
    363a:	68 83       	st	Y, r22
    363c:	79 83       	std	Y+1, r23	; 0x01
    363e:	8a 83       	std	Y+2, r24	; 0x02
    3640:	9b 83       	std	Y+3, r25	; 0x03
    3642:	c9 50       	subi	r28, 0x09	; 9
    3644:	d2 40       	sbci	r29, 0x02	; 2
    3646:	c7 5f       	subi	r28, 0xF7	; 247
    3648:	dd 4f       	sbci	r29, 0xFD	; 253
    364a:	88 81       	ld	r24, Y
    364c:	99 81       	ldd	r25, Y+1	; 0x01
    364e:	aa 81       	ldd	r26, Y+2	; 0x02
    3650:	bb 81       	ldd	r27, Y+3	; 0x03
    3652:	c9 50       	subi	r28, 0x09	; 9
    3654:	d2 40       	sbci	r29, 0x02	; 2
    3656:	cb 5d       	subi	r28, 0xDB	; 219
    3658:	de 4f       	sbci	r29, 0xFE	; 254
    365a:	88 83       	st	Y, r24
    365c:	99 83       	std	Y+1, r25	; 0x01
    365e:	aa 83       	std	Y+2, r26	; 0x02
    3660:	bb 83       	std	Y+3, r27	; 0x03
    3662:	c5 52       	subi	r28, 0x25	; 37
    3664:	d1 40       	sbci	r29, 0x01	; 1

00003666 <.Loc.368>:
    3666:	8e 01       	movw	r16, r28
    3668:	0f 53       	subi	r16, 0x3F	; 63
    366a:	1f 4f       	sbci	r17, 0xFF	; 255
    366c:	cb 5d       	subi	r28, 0xDB	; 219
    366e:	de 4f       	sbci	r29, 0xFE	; 254
    3670:	68 81       	ld	r22, Y
    3672:	79 81       	ldd	r23, Y+1	; 0x01
    3674:	8a 81       	ldd	r24, Y+2	; 0x02
    3676:	9b 81       	ldd	r25, Y+3	; 0x03
    3678:	c5 52       	subi	r28, 0x25	; 37
    367a:	d1 40       	sbci	r29, 0x01	; 1
    367c:	0e 94 2f 23 	call	0x465e	; 0x465e <__fixunssfsi>
    3680:	c3 5f       	subi	r28, 0xF3	; 243
    3682:	dd 4f       	sbci	r29, 0xFD	; 253
    3684:	68 83       	st	Y, r22
    3686:	79 83       	std	Y+1, r23	; 0x01
    3688:	8a 83       	std	Y+2, r24	; 0x02
    368a:	9b 83       	std	Y+3, r25	; 0x03
    368c:	cd 50       	subi	r28, 0x0D	; 13
    368e:	d2 40       	sbci	r29, 0x02	; 2
    3690:	c3 5f       	subi	r28, 0xF3	; 243
    3692:	dd 4f       	sbci	r29, 0xFD	; 253
    3694:	e8 81       	ld	r30, Y
    3696:	f9 81       	ldd	r31, Y+1	; 0x01
    3698:	cd 50       	subi	r28, 0x0D	; 13
    369a:	d2 40       	sbci	r29, 0x02	; 2
    369c:	d8 01       	movw	r26, r16
    369e:	11 96       	adiw	r26, 0x01	; 1
    36a0:	fc 93       	st	X, r31
    36a2:	ee 93       	st	-X, r30

000036a4 <.Loc.369>:
		while(__ticks)
    36a4:	26 c0       	rjmp	.+76     	; 0x36f2 <.L148>

000036a6 <.L149>:
    36a6:	ce 01       	movw	r24, r28
    36a8:	8d 53       	subi	r24, 0x3D	; 61
    36aa:	9f 4f       	sbci	r25, 0xFF	; 255
    36ac:	20 e9       	ldi	r18, 0x90	; 144
    36ae:	31 e0       	ldi	r19, 0x01	; 1
    36b0:	dc 01       	movw	r26, r24
    36b2:	2d 93       	st	X+, r18
    36b4:	3c 93       	st	X, r19

000036b6 <.LBB188>:
    36b6:	ce 01       	movw	r24, r28
    36b8:	8d 53       	subi	r24, 0x3D	; 61
    36ba:	9f 4f       	sbci	r25, 0xFF	; 255
    36bc:	fc 01       	movw	r30, r24
    36be:	80 81       	ld	r24, Z
    36c0:	91 81       	ldd	r25, Z+1	; 0x01

000036c2 <.L1^B27>:
    36c2:	01 97       	sbiw	r24, 0x01	; 1
    36c4:	f1 f7       	brne	.-4      	; 0x36c2 <.L1^B27>
    36c6:	9e 01       	movw	r18, r28
    36c8:	2d 53       	subi	r18, 0x3D	; 61
    36ca:	3f 4f       	sbci	r19, 0xFF	; 255
    36cc:	d9 01       	movw	r26, r18
    36ce:	8d 93       	st	X+, r24
    36d0:	9c 93       	st	X, r25

000036d2 <.Loc.371>:
	...

000036d4 <.LBE188>:
			__ticks --;
    36d4:	ce 01       	movw	r24, r28
    36d6:	8f 53       	subi	r24, 0x3F	; 63
    36d8:	9f 4f       	sbci	r25, 0xFF	; 255
    36da:	9e 01       	movw	r18, r28
    36dc:	2f 53       	subi	r18, 0x3F	; 63
    36de:	3f 4f       	sbci	r19, 0xFF	; 255
    36e0:	f9 01       	movw	r30, r18
    36e2:	20 81       	ld	r18, Z
    36e4:	31 81       	ldd	r19, Z+1	; 0x01
    36e6:	21 50       	subi	r18, 0x01	; 1
    36e8:	31 09       	sbc	r19, r1
    36ea:	dc 01       	movw	r26, r24
    36ec:	11 96       	adiw	r26, 0x01	; 1
    36ee:	3c 93       	st	X, r19
    36f0:	2e 93       	st	-X, r18

000036f2 <.L148>:
		while(__ticks)
    36f2:	ce 01       	movw	r24, r28
    36f4:	8f 53       	subi	r24, 0x3F	; 63
    36f6:	9f 4f       	sbci	r25, 0xFF	; 255
    36f8:	fc 01       	movw	r30, r24
    36fa:	80 81       	ld	r24, Z
    36fc:	91 81       	ldd	r25, Z+1	; 0x01
    36fe:	00 97       	sbiw	r24, 0x00	; 0
    3700:	91 f6       	brne	.-92     	; 0x36a6 <.L149>

00003702 <.Loc.374>:
		return;
    3702:	3a c0       	rjmp	.+116    	; 0x3778 <.L150>

00003704 <.L241>:
		__ticks = (uint16_t)__tmp;
    3704:	8e 01       	movw	r16, r28
    3706:	0f 53       	subi	r16, 0x3F	; 63
    3708:	1f 4f       	sbci	r17, 0xFF	; 255
    370a:	ce 01       	movw	r24, r28
    370c:	83 54       	subi	r24, 0x43	; 67
    370e:	9f 4f       	sbci	r25, 0xFF	; 255
    3710:	dc 01       	movw	r26, r24
    3712:	6d 91       	ld	r22, X+
    3714:	7d 91       	ld	r23, X+
    3716:	8d 91       	ld	r24, X+
    3718:	9c 91       	ld	r25, X
    371a:	0e 94 2f 23 	call	0x465e	; 0x465e <__fixunssfsi>
    371e:	cf 5e       	subi	r28, 0xEF	; 239
    3720:	dd 4f       	sbci	r29, 0xFD	; 253
    3722:	68 83       	st	Y, r22
    3724:	79 83       	std	Y+1, r23	; 0x01
    3726:	8a 83       	std	Y+2, r24	; 0x02
    3728:	9b 83       	std	Y+3, r25	; 0x03
    372a:	c1 51       	subi	r28, 0x11	; 17
    372c:	d2 40       	sbci	r29, 0x02	; 2
    372e:	cf 5e       	subi	r28, 0xEF	; 239
    3730:	dd 4f       	sbci	r29, 0xFD	; 253
    3732:	88 81       	ld	r24, Y
    3734:	99 81       	ldd	r25, Y+1	; 0x01
    3736:	c1 51       	subi	r28, 0x11	; 17
    3738:	d2 40       	sbci	r29, 0x02	; 2
    373a:	f8 01       	movw	r30, r16
    373c:	91 83       	std	Z+1, r25	; 0x01
    373e:	80 83       	st	Z, r24

00003740 <.L145>:
    3740:	ce 01       	movw	r24, r28
    3742:	8b 53       	subi	r24, 0x3B	; 59
    3744:	9f 4f       	sbci	r25, 0xFF	; 255
    3746:	9e 01       	movw	r18, r28
    3748:	2f 53       	subi	r18, 0x3F	; 63
    374a:	3f 4f       	sbci	r19, 0xFF	; 255
    374c:	d9 01       	movw	r26, r18
    374e:	2d 91       	ld	r18, X+
    3750:	3c 91       	ld	r19, X
    3752:	fc 01       	movw	r30, r24
    3754:	31 83       	std	Z+1, r19	; 0x01
    3756:	20 83       	st	Z, r18

00003758 <.LBB190>:
    3758:	ce 01       	movw	r24, r28
    375a:	8b 53       	subi	r24, 0x3B	; 59
    375c:	9f 4f       	sbci	r25, 0xFF	; 255
    375e:	dc 01       	movw	r26, r24
    3760:	8d 91       	ld	r24, X+
    3762:	9c 91       	ld	r25, X
    3764:	11 97       	sbiw	r26, 0x01	; 1

00003766 <.L1^B28>:
    3766:	01 97       	sbiw	r24, 0x01	; 1
    3768:	f1 f7       	brne	.-4      	; 0x3766 <.L1^B28>
    376a:	9e 01       	movw	r18, r28
    376c:	2b 53       	subi	r18, 0x3B	; 59
    376e:	3f 4f       	sbci	r19, 0xFF	; 255
    3770:	f9 01       	movw	r30, r18
    3772:	91 83       	std	Z+1, r25	; 0x01
    3774:	80 83       	st	Z, r24

00003776 <.Loc.377>:
	...

00003778 <.L150>:
            {
                DEBOUNCE;
                status = 10; // steiger weghalen
    3778:	8a e0       	ldi	r24, 0x0A	; 10
    377a:	90 e0       	ldi	r25, 0x00	; 0
    377c:	9a 83       	std	Y+2, r25	; 0x02
    377e:	89 83       	std	Y+1, r24	; 0x01

00003780 <.Loc.379>:
            }
           break;
    3780:	a6 c3       	rjmp	.+1868   	; 0x3ece <.L257>

00003782 <.L18>:

        case 10: // stijger_weghalen
            knipperLichten(0); // uit
    3782:	80 e0       	ldi	r24, 0x00	; 0
    3784:	0e 94 e4 03 	call	0x7c8	; 0x7c8 <knipperLichten>

00003788 <.Loc.381>:

            LCD_Scherm_Leeg();
    3788:	0e 94 80 0b 	call	0x1700	; 0x1700 <LCD_Scherm_Leeg>

0000378c <.Loc.382>:
            LCD_Naar_Locatie(1, 1);
    378c:	61 e0       	ldi	r22, 0x01	; 1
    378e:	81 e0       	ldi	r24, 0x01	; 1
    3790:	0e 94 64 0b 	call	0x16c8	; 0x16c8 <LCD_Naar_Locatie>

00003794 <.Loc.383>:
	    	Stuur_LCD_String("Steiger weghalen");
    3794:	84 e7       	ldi	r24, 0x74	; 116
    3796:	92 e0       	ldi	r25, 0x02	; 2
    3798:	0e 94 42 0b 	call	0x1684	; 0x1684 <Stuur_LCD_String>

0000379c <.Loc.384>:

            if (((PINF & (1<<neerzetten_knop)) == 0) || (Bluetooth_Getal == 5))//((PINF & (1<<neerzetten_knop)) == 0)
    379c:	8f e2       	ldi	r24, 0x2F	; 47
    379e:	90 e0       	ldi	r25, 0x00	; 0
    37a0:	dc 01       	movw	r26, r24
    37a2:	8c 91       	ld	r24, X

000037a4 <.Loc.385>:
    37a4:	88 2f       	mov	r24, r24
    37a6:	90 e0       	ldi	r25, 0x00	; 0
    37a8:	84 70       	andi	r24, 0x04	; 4
    37aa:	99 27       	eor	r25, r25

000037ac <.Loc.386>:
    37ac:	00 97       	sbiw	r24, 0x00	; 0
    37ae:	41 f0       	breq	.+16     	; 0x37c0 <.L151>

000037b0 <.Loc.387>:
    37b0:	80 91 90 02 	lds	r24, 0x0290	; 0x800290 <Bluetooth_Getal>
    37b4:	90 91 91 02 	lds	r25, 0x0291	; 0x800291 <Bluetooth_Getal+0x1>

000037b8 <.Loc.388>:
    37b8:	85 30       	cpi	r24, 0x05	; 5
    37ba:	91 05       	cpc	r25, r1
    37bc:	09 f0       	breq	.+2      	; 0x37c0 <.L151>

000037be <L0^A>:
    37be:	8a c3       	rjmp	.+1812   	; 0x3ed4 <.L258>

000037c0 <.L151>:
    37c0:	9e 01       	movw	r18, r28
    37c2:	29 53       	subi	r18, 0x39	; 57
    37c4:	3f 4f       	sbci	r19, 0xFF	; 255
    37c6:	80 e0       	ldi	r24, 0x00	; 0
    37c8:	90 e0       	ldi	r25, 0x00	; 0
    37ca:	a0 ea       	ldi	r26, 0xA0	; 160
    37cc:	b1 e4       	ldi	r27, 0x41	; 65
    37ce:	f9 01       	movw	r30, r18
    37d0:	80 83       	st	Z, r24
    37d2:	91 83       	std	Z+1, r25	; 0x01
    37d4:	a2 83       	std	Z+2, r26	; 0x02
    37d6:	b3 83       	std	Z+3, r27	; 0x03

000037d8 <.LBB192>:
	__tmp = ((F_CPU) / 4e3) * __ms;
    37d8:	8e 01       	movw	r16, r28
    37da:	05 53       	subi	r16, 0x35	; 53
    37dc:	1f 4f       	sbci	r17, 0xFF	; 255
    37de:	ce 01       	movw	r24, r28
    37e0:	89 53       	subi	r24, 0x39	; 57
    37e2:	9f 4f       	sbci	r25, 0xFF	; 255
    37e4:	20 e0       	ldi	r18, 0x00	; 0
    37e6:	30 e0       	ldi	r19, 0x00	; 0
    37e8:	4a e7       	ldi	r20, 0x7A	; 122
    37ea:	55 e4       	ldi	r21, 0x45	; 69
    37ec:	dc 01       	movw	r26, r24
    37ee:	6d 91       	ld	r22, X+
    37f0:	7d 91       	ld	r23, X+
    37f2:	8d 91       	ld	r24, X+
    37f4:	9c 91       	ld	r25, X
    37f6:	0e 94 15 24 	call	0x482a	; 0x482a <__mulsf3>
    37fa:	cb 5e       	subi	r28, 0xEB	; 235
    37fc:	dd 4f       	sbci	r29, 0xFD	; 253
    37fe:	68 83       	st	Y, r22
    3800:	79 83       	std	Y+1, r23	; 0x01
    3802:	8a 83       	std	Y+2, r24	; 0x02
    3804:	9b 83       	std	Y+3, r25	; 0x03
    3806:	c5 51       	subi	r28, 0x15	; 21
    3808:	d2 40       	sbci	r29, 0x02	; 2
    380a:	cb 5e       	subi	r28, 0xEB	; 235
    380c:	dd 4f       	sbci	r29, 0xFD	; 253
    380e:	88 81       	ld	r24, Y
    3810:	99 81       	ldd	r25, Y+1	; 0x01
    3812:	aa 81       	ldd	r26, Y+2	; 0x02
    3814:	bb 81       	ldd	r27, Y+3	; 0x03
    3816:	c5 51       	subi	r28, 0x15	; 21
    3818:	d2 40       	sbci	r29, 0x02	; 2
    381a:	f8 01       	movw	r30, r16
    381c:	80 83       	st	Z, r24
    381e:	91 83       	std	Z+1, r25	; 0x01
    3820:	a2 83       	std	Z+2, r26	; 0x02
    3822:	b3 83       	std	Z+3, r27	; 0x03

00003824 <.Loc.390>:
	if (__tmp < 1.0)
    3824:	ce 01       	movw	r24, r28
    3826:	85 53       	subi	r24, 0x35	; 53
    3828:	9f 4f       	sbci	r25, 0xFF	; 255
    382a:	20 e0       	ldi	r18, 0x00	; 0
    382c:	30 e0       	ldi	r19, 0x00	; 0
    382e:	40 e8       	ldi	r20, 0x80	; 128
    3830:	5f e3       	ldi	r21, 0x3F	; 63
    3832:	dc 01       	movw	r26, r24
    3834:	6d 91       	ld	r22, X+
    3836:	7d 91       	ld	r23, X+
    3838:	8d 91       	ld	r24, X+
    383a:	9c 91       	ld	r25, X
    383c:	0e 94 b8 22 	call	0x4570	; 0x4570 <__cmpsf2>
    3840:	88 23       	and	r24, r24
    3842:	4c f4       	brge	.+18     	; 0x3856 <.L242>

00003844 <.Loc.391>:
		__ticks = 1;
    3844:	ce 01       	movw	r24, r28
    3846:	81 53       	subi	r24, 0x31	; 49
    3848:	9f 4f       	sbci	r25, 0xFF	; 255
    384a:	21 e0       	ldi	r18, 0x01	; 1
    384c:	30 e0       	ldi	r19, 0x00	; 0
    384e:	fc 01       	movw	r30, r24
    3850:	31 83       	std	Z+1, r19	; 0x01
    3852:	20 83       	st	Z, r18
    3854:	a5 c0       	rjmp	.+330    	; 0x39a0 <.L155>

00003856 <.L242>:
	else if (__tmp > 65535)
    3856:	ce 01       	movw	r24, r28
    3858:	85 53       	subi	r24, 0x35	; 53
    385a:	9f 4f       	sbci	r25, 0xFF	; 255
    385c:	20 e0       	ldi	r18, 0x00	; 0
    385e:	3f ef       	ldi	r19, 0xFF	; 255
    3860:	4f e7       	ldi	r20, 0x7F	; 127
    3862:	57 e4       	ldi	r21, 0x47	; 71
    3864:	dc 01       	movw	r26, r24
    3866:	6d 91       	ld	r22, X+
    3868:	7d 91       	ld	r23, X+
    386a:	8d 91       	ld	r24, X+
    386c:	9c 91       	ld	r25, X
    386e:	0e 94 10 24 	call	0x4820	; 0x4820 <__gesf2>
    3872:	88 23       	and	r24, r24
    3874:	09 f0       	breq	.+2      	; 0x3878 <L0^A>

00003876 <L0^A>:
    3876:	0c f4       	brge	.+2      	; 0x387a <.Loc.393>

00003878 <L0^A>:
    3878:	75 c0       	rjmp	.+234    	; 0x3964 <.L243>

0000387a <.Loc.393>:
		__ticks = (uint16_t) (__ms * 10.0);
    387a:	ce 01       	movw	r24, r28
    387c:	89 53       	subi	r24, 0x39	; 57
    387e:	9f 4f       	sbci	r25, 0xFF	; 255
    3880:	20 e0       	ldi	r18, 0x00	; 0
    3882:	30 e0       	ldi	r19, 0x00	; 0
    3884:	40 e2       	ldi	r20, 0x20	; 32
    3886:	51 e4       	ldi	r21, 0x41	; 65
    3888:	fc 01       	movw	r30, r24
    388a:	60 81       	ld	r22, Z
    388c:	71 81       	ldd	r23, Z+1	; 0x01
    388e:	82 81       	ldd	r24, Z+2	; 0x02
    3890:	93 81       	ldd	r25, Z+3	; 0x03
    3892:	0e 94 15 24 	call	0x482a	; 0x482a <__mulsf3>
    3896:	c7 5e       	subi	r28, 0xE7	; 231
    3898:	dd 4f       	sbci	r29, 0xFD	; 253
    389a:	68 83       	st	Y, r22
    389c:	79 83       	std	Y+1, r23	; 0x01
    389e:	8a 83       	std	Y+2, r24	; 0x02
    38a0:	9b 83       	std	Y+3, r25	; 0x03
    38a2:	c9 51       	subi	r28, 0x19	; 25
    38a4:	d2 40       	sbci	r29, 0x02	; 2
    38a6:	c7 5e       	subi	r28, 0xE7	; 231
    38a8:	dd 4f       	sbci	r29, 0xFD	; 253
    38aa:	88 81       	ld	r24, Y
    38ac:	99 81       	ldd	r25, Y+1	; 0x01
    38ae:	aa 81       	ldd	r26, Y+2	; 0x02
    38b0:	bb 81       	ldd	r27, Y+3	; 0x03
    38b2:	c9 51       	subi	r28, 0x19	; 25
    38b4:	d2 40       	sbci	r29, 0x02	; 2
    38b6:	c7 5d       	subi	r28, 0xD7	; 215
    38b8:	de 4f       	sbci	r29, 0xFE	; 254
    38ba:	88 83       	st	Y, r24
    38bc:	99 83       	std	Y+1, r25	; 0x01
    38be:	aa 83       	std	Y+2, r26	; 0x02
    38c0:	bb 83       	std	Y+3, r27	; 0x03
    38c2:	c9 52       	subi	r28, 0x29	; 41
    38c4:	d1 40       	sbci	r29, 0x01	; 1

000038c6 <.Loc.394>:
    38c6:	8e 01       	movw	r16, r28
    38c8:	01 53       	subi	r16, 0x31	; 49
    38ca:	1f 4f       	sbci	r17, 0xFF	; 255
    38cc:	c7 5d       	subi	r28, 0xD7	; 215
    38ce:	de 4f       	sbci	r29, 0xFE	; 254
    38d0:	68 81       	ld	r22, Y
    38d2:	79 81       	ldd	r23, Y+1	; 0x01
    38d4:	8a 81       	ldd	r24, Y+2	; 0x02
    38d6:	9b 81       	ldd	r25, Y+3	; 0x03
    38d8:	c9 52       	subi	r28, 0x29	; 41
    38da:	d1 40       	sbci	r29, 0x01	; 1
    38dc:	0e 94 2f 23 	call	0x465e	; 0x465e <__fixunssfsi>
    38e0:	c3 5e       	subi	r28, 0xE3	; 227
    38e2:	dd 4f       	sbci	r29, 0xFD	; 253
    38e4:	68 83       	st	Y, r22
    38e6:	79 83       	std	Y+1, r23	; 0x01
    38e8:	8a 83       	std	Y+2, r24	; 0x02
    38ea:	9b 83       	std	Y+3, r25	; 0x03
    38ec:	cd 51       	subi	r28, 0x1D	; 29
    38ee:	d2 40       	sbci	r29, 0x02	; 2
    38f0:	c3 5e       	subi	r28, 0xE3	; 227
    38f2:	dd 4f       	sbci	r29, 0xFD	; 253
    38f4:	e8 81       	ld	r30, Y
    38f6:	f9 81       	ldd	r31, Y+1	; 0x01
    38f8:	cd 51       	subi	r28, 0x1D	; 29
    38fa:	d2 40       	sbci	r29, 0x02	; 2
    38fc:	d8 01       	movw	r26, r16
    38fe:	11 96       	adiw	r26, 0x01	; 1
    3900:	fc 93       	st	X, r31
    3902:	ee 93       	st	-X, r30

00003904 <.Loc.395>:
		while(__ticks)
    3904:	26 c0       	rjmp	.+76     	; 0x3952 <.L158>

00003906 <.L159>:
    3906:	ce 01       	movw	r24, r28
    3908:	8f 52       	subi	r24, 0x2F	; 47
    390a:	9f 4f       	sbci	r25, 0xFF	; 255
    390c:	20 e9       	ldi	r18, 0x90	; 144
    390e:	31 e0       	ldi	r19, 0x01	; 1
    3910:	dc 01       	movw	r26, r24
    3912:	2d 93       	st	X+, r18
    3914:	3c 93       	st	X, r19

00003916 <.LBB194>:
    3916:	ce 01       	movw	r24, r28
    3918:	8f 52       	subi	r24, 0x2F	; 47
    391a:	9f 4f       	sbci	r25, 0xFF	; 255
    391c:	fc 01       	movw	r30, r24
    391e:	80 81       	ld	r24, Z
    3920:	91 81       	ldd	r25, Z+1	; 0x01

00003922 <.L1^B29>:
    3922:	01 97       	sbiw	r24, 0x01	; 1
    3924:	f1 f7       	brne	.-4      	; 0x3922 <.L1^B29>
    3926:	9e 01       	movw	r18, r28
    3928:	2f 52       	subi	r18, 0x2F	; 47
    392a:	3f 4f       	sbci	r19, 0xFF	; 255
    392c:	d9 01       	movw	r26, r18
    392e:	8d 93       	st	X+, r24
    3930:	9c 93       	st	X, r25

00003932 <.Loc.397>:
	...

00003934 <.LBE194>:
			__ticks --;
    3934:	ce 01       	movw	r24, r28
    3936:	81 53       	subi	r24, 0x31	; 49
    3938:	9f 4f       	sbci	r25, 0xFF	; 255
    393a:	9e 01       	movw	r18, r28
    393c:	21 53       	subi	r18, 0x31	; 49
    393e:	3f 4f       	sbci	r19, 0xFF	; 255
    3940:	f9 01       	movw	r30, r18
    3942:	20 81       	ld	r18, Z
    3944:	31 81       	ldd	r19, Z+1	; 0x01
    3946:	21 50       	subi	r18, 0x01	; 1
    3948:	31 09       	sbc	r19, r1
    394a:	dc 01       	movw	r26, r24
    394c:	11 96       	adiw	r26, 0x01	; 1
    394e:	3c 93       	st	X, r19
    3950:	2e 93       	st	-X, r18

00003952 <.L158>:
		while(__ticks)
    3952:	ce 01       	movw	r24, r28
    3954:	81 53       	subi	r24, 0x31	; 49
    3956:	9f 4f       	sbci	r25, 0xFF	; 255
    3958:	fc 01       	movw	r30, r24
    395a:	80 81       	ld	r24, Z
    395c:	91 81       	ldd	r25, Z+1	; 0x01
    395e:	00 97       	sbiw	r24, 0x00	; 0
    3960:	91 f6       	brne	.-92     	; 0x3906 <.L159>

00003962 <.Loc.400>:
		return;
    3962:	3a c0       	rjmp	.+116    	; 0x39d8 <.L160>

00003964 <.L243>:
		__ticks = (uint16_t)__tmp;
    3964:	8e 01       	movw	r16, r28
    3966:	01 53       	subi	r16, 0x31	; 49
    3968:	1f 4f       	sbci	r17, 0xFF	; 255
    396a:	ce 01       	movw	r24, r28
    396c:	85 53       	subi	r24, 0x35	; 53
    396e:	9f 4f       	sbci	r25, 0xFF	; 255
    3970:	dc 01       	movw	r26, r24
    3972:	6d 91       	ld	r22, X+
    3974:	7d 91       	ld	r23, X+
    3976:	8d 91       	ld	r24, X+
    3978:	9c 91       	ld	r25, X
    397a:	0e 94 2f 23 	call	0x465e	; 0x465e <__fixunssfsi>
    397e:	cf 5d       	subi	r28, 0xDF	; 223
    3980:	dd 4f       	sbci	r29, 0xFD	; 253
    3982:	68 83       	st	Y, r22
    3984:	79 83       	std	Y+1, r23	; 0x01
    3986:	8a 83       	std	Y+2, r24	; 0x02
    3988:	9b 83       	std	Y+3, r25	; 0x03
    398a:	c1 52       	subi	r28, 0x21	; 33
    398c:	d2 40       	sbci	r29, 0x02	; 2
    398e:	cf 5d       	subi	r28, 0xDF	; 223
    3990:	dd 4f       	sbci	r29, 0xFD	; 253
    3992:	88 81       	ld	r24, Y
    3994:	99 81       	ldd	r25, Y+1	; 0x01
    3996:	c1 52       	subi	r28, 0x21	; 33
    3998:	d2 40       	sbci	r29, 0x02	; 2
    399a:	f8 01       	movw	r30, r16
    399c:	91 83       	std	Z+1, r25	; 0x01
    399e:	80 83       	st	Z, r24

000039a0 <.L155>:
    39a0:	ce 01       	movw	r24, r28
    39a2:	8d 52       	subi	r24, 0x2D	; 45
    39a4:	9f 4f       	sbci	r25, 0xFF	; 255
    39a6:	9e 01       	movw	r18, r28
    39a8:	21 53       	subi	r18, 0x31	; 49
    39aa:	3f 4f       	sbci	r19, 0xFF	; 255
    39ac:	d9 01       	movw	r26, r18
    39ae:	2d 91       	ld	r18, X+
    39b0:	3c 91       	ld	r19, X
    39b2:	fc 01       	movw	r30, r24
    39b4:	31 83       	std	Z+1, r19	; 0x01
    39b6:	20 83       	st	Z, r18

000039b8 <.LBB196>:
    39b8:	ce 01       	movw	r24, r28
    39ba:	8d 52       	subi	r24, 0x2D	; 45
    39bc:	9f 4f       	sbci	r25, 0xFF	; 255
    39be:	dc 01       	movw	r26, r24
    39c0:	8d 91       	ld	r24, X+
    39c2:	9c 91       	ld	r25, X
    39c4:	11 97       	sbiw	r26, 0x01	; 1

000039c6 <.L1^B30>:
    39c6:	01 97       	sbiw	r24, 0x01	; 1
    39c8:	f1 f7       	brne	.-4      	; 0x39c6 <.L1^B30>
    39ca:	9e 01       	movw	r18, r28
    39cc:	2d 52       	subi	r18, 0x2D	; 45
    39ce:	3f 4f       	sbci	r19, 0xFF	; 255
    39d0:	f9 01       	movw	r30, r18
    39d2:	91 83       	std	Z+1, r25	; 0x01
    39d4:	80 83       	st	Z, r24

000039d6 <.Loc.403>:
	...

000039d8 <.L160>:
            {
                DEBOUNCE;
                status = 11;
    39d8:	8b e0       	ldi	r24, 0x0B	; 11
    39da:	90 e0       	ldi	r25, 0x00	; 0
    39dc:	9a 83       	std	Y+2, r25	; 0x02
    39de:	89 83       	std	Y+1, r24	; 0x01

000039e0 <.Loc.405>:
            }
            break;
    39e0:	79 c2       	rjmp	.+1266   	; 0x3ed4 <.L258>

000039e2 <.L17>:

        case 11: // neerzetten (afbouwen)
            buzzer(1); // aan
    39e2:	81 e0       	ldi	r24, 0x01	; 1
    39e4:	0e 94 b8 03 	call	0x770	; 0x770 <buzzer>

000039e8 <.Loc.407>:
            knipperLichten(1); // aan
    39e8:	81 e0       	ldi	r24, 0x01	; 1
    39ea:	0e 94 e4 03 	call	0x7c8	; 0x7c8 <knipperLichten>

000039ee <.Loc.408>:
            /*
            MOTOR AAN??
            h_bridge_set_percentage2(-20);
            */

            LCD_Scherm_Leeg();
    39ee:	0e 94 80 0b 	call	0x1700	; 0x1700 <LCD_Scherm_Leeg>

000039f2 <.Loc.409>:
            LCD_Naar_Locatie(1, 1);
    39f2:	61 e0       	ldi	r22, 0x01	; 1
    39f4:	81 e0       	ldi	r24, 0x01	; 1
    39f6:	0e 94 64 0b 	call	0x16c8	; 0x16c8 <LCD_Naar_Locatie>

000039fa <.Loc.410>:
	    	Stuur_LCD_String("Neerzetten");
    39fa:	84 e5       	ldi	r24, 0x54	; 84
    39fc:	92 e0       	ldi	r25, 0x02	; 2
    39fe:	0e 94 42 0b 	call	0x1684	; 0x1684 <Stuur_LCD_String>

00003a02 <.Loc.411>:

            if ((PINA & (1<<home_switch)) == 0)
    3a02:	80 e2       	ldi	r24, 0x20	; 32
    3a04:	90 e0       	ldi	r25, 0x00	; 0
    3a06:	dc 01       	movw	r26, r24
    3a08:	8c 91       	ld	r24, X

00003a0a <.Loc.412>:
    3a0a:	88 2f       	mov	r24, r24
    3a0c:	90 e0       	ldi	r25, 0x00	; 0
    3a0e:	82 70       	andi	r24, 0x02	; 2
    3a10:	99 27       	eor	r25, r25

00003a12 <.Loc.413>:
    3a12:	00 97       	sbiw	r24, 0x00	; 0
    3a14:	09 f0       	breq	.+2      	; 0x3a18 <L0^A+0x2>

00003a16 <L0^A>:
    3a16:	61 c2       	rjmp	.+1218   	; 0x3eda <.L259>
    3a18:	9e 01       	movw	r18, r28
    3a1a:	2b 52       	subi	r18, 0x2B	; 43
    3a1c:	3f 4f       	sbci	r19, 0xFF	; 255
    3a1e:	80 e0       	ldi	r24, 0x00	; 0
    3a20:	90 e0       	ldi	r25, 0x00	; 0
    3a22:	a0 ea       	ldi	r26, 0xA0	; 160
    3a24:	b1 e4       	ldi	r27, 0x41	; 65
    3a26:	f9 01       	movw	r30, r18
    3a28:	80 83       	st	Z, r24
    3a2a:	91 83       	std	Z+1, r25	; 0x01
    3a2c:	a2 83       	std	Z+2, r26	; 0x02
    3a2e:	b3 83       	std	Z+3, r27	; 0x03

00003a30 <.LBB198>:
	__tmp = ((F_CPU) / 4e3) * __ms;
    3a30:	8e 01       	movw	r16, r28
    3a32:	07 52       	subi	r16, 0x27	; 39
    3a34:	1f 4f       	sbci	r17, 0xFF	; 255
    3a36:	ce 01       	movw	r24, r28
    3a38:	8b 52       	subi	r24, 0x2B	; 43
    3a3a:	9f 4f       	sbci	r25, 0xFF	; 255
    3a3c:	20 e0       	ldi	r18, 0x00	; 0
    3a3e:	30 e0       	ldi	r19, 0x00	; 0
    3a40:	4a e7       	ldi	r20, 0x7A	; 122
    3a42:	55 e4       	ldi	r21, 0x45	; 69
    3a44:	dc 01       	movw	r26, r24
    3a46:	6d 91       	ld	r22, X+
    3a48:	7d 91       	ld	r23, X+
    3a4a:	8d 91       	ld	r24, X+
    3a4c:	9c 91       	ld	r25, X
    3a4e:	0e 94 15 24 	call	0x482a	; 0x482a <__mulsf3>
    3a52:	cb 5d       	subi	r28, 0xDB	; 219
    3a54:	dd 4f       	sbci	r29, 0xFD	; 253
    3a56:	68 83       	st	Y, r22
    3a58:	79 83       	std	Y+1, r23	; 0x01
    3a5a:	8a 83       	std	Y+2, r24	; 0x02
    3a5c:	9b 83       	std	Y+3, r25	; 0x03
    3a5e:	c5 52       	subi	r28, 0x25	; 37
    3a60:	d2 40       	sbci	r29, 0x02	; 2
    3a62:	cb 5d       	subi	r28, 0xDB	; 219
    3a64:	dd 4f       	sbci	r29, 0xFD	; 253
    3a66:	88 81       	ld	r24, Y
    3a68:	99 81       	ldd	r25, Y+1	; 0x01
    3a6a:	aa 81       	ldd	r26, Y+2	; 0x02
    3a6c:	bb 81       	ldd	r27, Y+3	; 0x03
    3a6e:	c5 52       	subi	r28, 0x25	; 37
    3a70:	d2 40       	sbci	r29, 0x02	; 2
    3a72:	f8 01       	movw	r30, r16
    3a74:	80 83       	st	Z, r24
    3a76:	91 83       	std	Z+1, r25	; 0x01
    3a78:	a2 83       	std	Z+2, r26	; 0x02
    3a7a:	b3 83       	std	Z+3, r27	; 0x03

00003a7c <.Loc.415>:
	if (__tmp < 1.0)
    3a7c:	ce 01       	movw	r24, r28
    3a7e:	87 52       	subi	r24, 0x27	; 39
    3a80:	9f 4f       	sbci	r25, 0xFF	; 255
    3a82:	20 e0       	ldi	r18, 0x00	; 0
    3a84:	30 e0       	ldi	r19, 0x00	; 0
    3a86:	40 e8       	ldi	r20, 0x80	; 128
    3a88:	5f e3       	ldi	r21, 0x3F	; 63
    3a8a:	dc 01       	movw	r26, r24
    3a8c:	6d 91       	ld	r22, X+
    3a8e:	7d 91       	ld	r23, X+
    3a90:	8d 91       	ld	r24, X+
    3a92:	9c 91       	ld	r25, X
    3a94:	0e 94 b8 22 	call	0x4570	; 0x4570 <__cmpsf2>
    3a98:	88 23       	and	r24, r24
    3a9a:	4c f4       	brge	.+18     	; 0x3aae <.L244>

00003a9c <.Loc.416>:
		__ticks = 1;
    3a9c:	ce 01       	movw	r24, r28
    3a9e:	83 52       	subi	r24, 0x23	; 35
    3aa0:	9f 4f       	sbci	r25, 0xFF	; 255
    3aa2:	21 e0       	ldi	r18, 0x01	; 1
    3aa4:	30 e0       	ldi	r19, 0x00	; 0
    3aa6:	fc 01       	movw	r30, r24
    3aa8:	31 83       	std	Z+1, r19	; 0x01
    3aaa:	20 83       	st	Z, r18
    3aac:	a5 c0       	rjmp	.+330    	; 0x3bf8 <.L164>

00003aae <.L244>:
	else if (__tmp > 65535)
    3aae:	ce 01       	movw	r24, r28
    3ab0:	87 52       	subi	r24, 0x27	; 39
    3ab2:	9f 4f       	sbci	r25, 0xFF	; 255
    3ab4:	20 e0       	ldi	r18, 0x00	; 0
    3ab6:	3f ef       	ldi	r19, 0xFF	; 255
    3ab8:	4f e7       	ldi	r20, 0x7F	; 127
    3aba:	57 e4       	ldi	r21, 0x47	; 71
    3abc:	dc 01       	movw	r26, r24
    3abe:	6d 91       	ld	r22, X+
    3ac0:	7d 91       	ld	r23, X+
    3ac2:	8d 91       	ld	r24, X+
    3ac4:	9c 91       	ld	r25, X
    3ac6:	0e 94 10 24 	call	0x4820	; 0x4820 <__gesf2>
    3aca:	88 23       	and	r24, r24
    3acc:	09 f0       	breq	.+2      	; 0x3ad0 <L0^A>

00003ace <L0^A>:
    3ace:	0c f4       	brge	.+2      	; 0x3ad2 <.Loc.418>

00003ad0 <L0^A>:
    3ad0:	75 c0       	rjmp	.+234    	; 0x3bbc <.L245>

00003ad2 <.Loc.418>:
		__ticks = (uint16_t) (__ms * 10.0);
    3ad2:	ce 01       	movw	r24, r28
    3ad4:	8b 52       	subi	r24, 0x2B	; 43
    3ad6:	9f 4f       	sbci	r25, 0xFF	; 255
    3ad8:	20 e0       	ldi	r18, 0x00	; 0
    3ada:	30 e0       	ldi	r19, 0x00	; 0
    3adc:	40 e2       	ldi	r20, 0x20	; 32
    3ade:	51 e4       	ldi	r21, 0x41	; 65
    3ae0:	fc 01       	movw	r30, r24
    3ae2:	60 81       	ld	r22, Z
    3ae4:	71 81       	ldd	r23, Z+1	; 0x01
    3ae6:	82 81       	ldd	r24, Z+2	; 0x02
    3ae8:	93 81       	ldd	r25, Z+3	; 0x03
    3aea:	0e 94 15 24 	call	0x482a	; 0x482a <__mulsf3>
    3aee:	c7 5d       	subi	r28, 0xD7	; 215
    3af0:	dd 4f       	sbci	r29, 0xFD	; 253
    3af2:	68 83       	st	Y, r22
    3af4:	79 83       	std	Y+1, r23	; 0x01
    3af6:	8a 83       	std	Y+2, r24	; 0x02
    3af8:	9b 83       	std	Y+3, r25	; 0x03
    3afa:	c9 52       	subi	r28, 0x29	; 41
    3afc:	d2 40       	sbci	r29, 0x02	; 2
    3afe:	c7 5d       	subi	r28, 0xD7	; 215
    3b00:	dd 4f       	sbci	r29, 0xFD	; 253
    3b02:	88 81       	ld	r24, Y
    3b04:	99 81       	ldd	r25, Y+1	; 0x01
    3b06:	aa 81       	ldd	r26, Y+2	; 0x02
    3b08:	bb 81       	ldd	r27, Y+3	; 0x03
    3b0a:	c9 52       	subi	r28, 0x29	; 41
    3b0c:	d2 40       	sbci	r29, 0x02	; 2
    3b0e:	c3 5d       	subi	r28, 0xD3	; 211
    3b10:	de 4f       	sbci	r29, 0xFE	; 254
    3b12:	88 83       	st	Y, r24
    3b14:	99 83       	std	Y+1, r25	; 0x01
    3b16:	aa 83       	std	Y+2, r26	; 0x02
    3b18:	bb 83       	std	Y+3, r27	; 0x03
    3b1a:	cd 52       	subi	r28, 0x2D	; 45
    3b1c:	d1 40       	sbci	r29, 0x01	; 1

00003b1e <.Loc.419>:
    3b1e:	8e 01       	movw	r16, r28
    3b20:	03 52       	subi	r16, 0x23	; 35
    3b22:	1f 4f       	sbci	r17, 0xFF	; 255
    3b24:	c3 5d       	subi	r28, 0xD3	; 211
    3b26:	de 4f       	sbci	r29, 0xFE	; 254
    3b28:	68 81       	ld	r22, Y
    3b2a:	79 81       	ldd	r23, Y+1	; 0x01
    3b2c:	8a 81       	ldd	r24, Y+2	; 0x02
    3b2e:	9b 81       	ldd	r25, Y+3	; 0x03
    3b30:	cd 52       	subi	r28, 0x2D	; 45
    3b32:	d1 40       	sbci	r29, 0x01	; 1
    3b34:	0e 94 2f 23 	call	0x465e	; 0x465e <__fixunssfsi>
    3b38:	c3 5d       	subi	r28, 0xD3	; 211
    3b3a:	dd 4f       	sbci	r29, 0xFD	; 253
    3b3c:	68 83       	st	Y, r22
    3b3e:	79 83       	std	Y+1, r23	; 0x01
    3b40:	8a 83       	std	Y+2, r24	; 0x02
    3b42:	9b 83       	std	Y+3, r25	; 0x03
    3b44:	cd 52       	subi	r28, 0x2D	; 45
    3b46:	d2 40       	sbci	r29, 0x02	; 2
    3b48:	c3 5d       	subi	r28, 0xD3	; 211
    3b4a:	dd 4f       	sbci	r29, 0xFD	; 253
    3b4c:	e8 81       	ld	r30, Y
    3b4e:	f9 81       	ldd	r31, Y+1	; 0x01
    3b50:	cd 52       	subi	r28, 0x2D	; 45
    3b52:	d2 40       	sbci	r29, 0x02	; 2
    3b54:	d8 01       	movw	r26, r16
    3b56:	11 96       	adiw	r26, 0x01	; 1
    3b58:	fc 93       	st	X, r31
    3b5a:	ee 93       	st	-X, r30

00003b5c <.Loc.420>:
		while(__ticks)
    3b5c:	26 c0       	rjmp	.+76     	; 0x3baa <.L167>

00003b5e <.L168>:
    3b5e:	ce 01       	movw	r24, r28
    3b60:	81 52       	subi	r24, 0x21	; 33
    3b62:	9f 4f       	sbci	r25, 0xFF	; 255
    3b64:	20 e9       	ldi	r18, 0x90	; 144
    3b66:	31 e0       	ldi	r19, 0x01	; 1
    3b68:	dc 01       	movw	r26, r24
    3b6a:	2d 93       	st	X+, r18
    3b6c:	3c 93       	st	X, r19

00003b6e <.LBB200>:
    3b6e:	ce 01       	movw	r24, r28
    3b70:	81 52       	subi	r24, 0x21	; 33
    3b72:	9f 4f       	sbci	r25, 0xFF	; 255
    3b74:	fc 01       	movw	r30, r24
    3b76:	80 81       	ld	r24, Z
    3b78:	91 81       	ldd	r25, Z+1	; 0x01

00003b7a <.L1^B31>:
    3b7a:	01 97       	sbiw	r24, 0x01	; 1
    3b7c:	f1 f7       	brne	.-4      	; 0x3b7a <.L1^B31>
    3b7e:	9e 01       	movw	r18, r28
    3b80:	21 52       	subi	r18, 0x21	; 33
    3b82:	3f 4f       	sbci	r19, 0xFF	; 255
    3b84:	d9 01       	movw	r26, r18
    3b86:	8d 93       	st	X+, r24
    3b88:	9c 93       	st	X, r25

00003b8a <.Loc.422>:
	...

00003b8c <.LBE200>:
			__ticks --;
    3b8c:	ce 01       	movw	r24, r28
    3b8e:	83 52       	subi	r24, 0x23	; 35
    3b90:	9f 4f       	sbci	r25, 0xFF	; 255
    3b92:	9e 01       	movw	r18, r28
    3b94:	23 52       	subi	r18, 0x23	; 35
    3b96:	3f 4f       	sbci	r19, 0xFF	; 255
    3b98:	f9 01       	movw	r30, r18
    3b9a:	20 81       	ld	r18, Z
    3b9c:	31 81       	ldd	r19, Z+1	; 0x01
    3b9e:	21 50       	subi	r18, 0x01	; 1
    3ba0:	31 09       	sbc	r19, r1
    3ba2:	dc 01       	movw	r26, r24
    3ba4:	11 96       	adiw	r26, 0x01	; 1
    3ba6:	3c 93       	st	X, r19
    3ba8:	2e 93       	st	-X, r18

00003baa <.L167>:
		while(__ticks)
    3baa:	ce 01       	movw	r24, r28
    3bac:	83 52       	subi	r24, 0x23	; 35
    3bae:	9f 4f       	sbci	r25, 0xFF	; 255
    3bb0:	fc 01       	movw	r30, r24
    3bb2:	80 81       	ld	r24, Z
    3bb4:	91 81       	ldd	r25, Z+1	; 0x01
    3bb6:	00 97       	sbiw	r24, 0x00	; 0
    3bb8:	91 f6       	brne	.-92     	; 0x3b5e <.L168>

00003bba <.Loc.425>:
		return;
    3bba:	3a c0       	rjmp	.+116    	; 0x3c30 <.L169>

00003bbc <.L245>:
		__ticks = (uint16_t)__tmp;
    3bbc:	8e 01       	movw	r16, r28
    3bbe:	03 52       	subi	r16, 0x23	; 35
    3bc0:	1f 4f       	sbci	r17, 0xFF	; 255
    3bc2:	ce 01       	movw	r24, r28
    3bc4:	87 52       	subi	r24, 0x27	; 39
    3bc6:	9f 4f       	sbci	r25, 0xFF	; 255
    3bc8:	dc 01       	movw	r26, r24
    3bca:	6d 91       	ld	r22, X+
    3bcc:	7d 91       	ld	r23, X+
    3bce:	8d 91       	ld	r24, X+
    3bd0:	9c 91       	ld	r25, X
    3bd2:	0e 94 2f 23 	call	0x465e	; 0x465e <__fixunssfsi>
    3bd6:	cf 5c       	subi	r28, 0xCF	; 207
    3bd8:	dd 4f       	sbci	r29, 0xFD	; 253
    3bda:	68 83       	st	Y, r22
    3bdc:	79 83       	std	Y+1, r23	; 0x01
    3bde:	8a 83       	std	Y+2, r24	; 0x02
    3be0:	9b 83       	std	Y+3, r25	; 0x03
    3be2:	c1 53       	subi	r28, 0x31	; 49
    3be4:	d2 40       	sbci	r29, 0x02	; 2
    3be6:	cf 5c       	subi	r28, 0xCF	; 207
    3be8:	dd 4f       	sbci	r29, 0xFD	; 253
    3bea:	88 81       	ld	r24, Y
    3bec:	99 81       	ldd	r25, Y+1	; 0x01
    3bee:	c1 53       	subi	r28, 0x31	; 49
    3bf0:	d2 40       	sbci	r29, 0x02	; 2
    3bf2:	f8 01       	movw	r30, r16
    3bf4:	91 83       	std	Z+1, r25	; 0x01
    3bf6:	80 83       	st	Z, r24

00003bf8 <.L164>:
    3bf8:	ce 01       	movw	r24, r28
    3bfa:	8f 51       	subi	r24, 0x1F	; 31
    3bfc:	9f 4f       	sbci	r25, 0xFF	; 255
    3bfe:	9e 01       	movw	r18, r28
    3c00:	23 52       	subi	r18, 0x23	; 35
    3c02:	3f 4f       	sbci	r19, 0xFF	; 255
    3c04:	d9 01       	movw	r26, r18
    3c06:	2d 91       	ld	r18, X+
    3c08:	3c 91       	ld	r19, X
    3c0a:	fc 01       	movw	r30, r24
    3c0c:	31 83       	std	Z+1, r19	; 0x01
    3c0e:	20 83       	st	Z, r18

00003c10 <.LBB202>:
    3c10:	ce 01       	movw	r24, r28
    3c12:	8f 51       	subi	r24, 0x1F	; 31
    3c14:	9f 4f       	sbci	r25, 0xFF	; 255
    3c16:	dc 01       	movw	r26, r24
    3c18:	8d 91       	ld	r24, X+
    3c1a:	9c 91       	ld	r25, X
    3c1c:	11 97       	sbiw	r26, 0x01	; 1

00003c1e <.L1^B32>:
    3c1e:	01 97       	sbiw	r24, 0x01	; 1
    3c20:	f1 f7       	brne	.-4      	; 0x3c1e <.L1^B32>
    3c22:	9e 01       	movw	r18, r28
    3c24:	2f 51       	subi	r18, 0x1F	; 31
    3c26:	3f 4f       	sbci	r19, 0xFF	; 255
    3c28:	f9 01       	movw	r30, r18
    3c2a:	91 83       	std	Z+1, r25	; 0x01
    3c2c:	80 83       	st	Z, r24

00003c2e <.Loc.428>:
	...

00003c30 <.L169>:
            {
                DEBOUNCE;
                status = 3;
    3c30:	83 e0       	ldi	r24, 0x03	; 3
    3c32:	90 e0       	ldi	r25, 0x00	; 0
    3c34:	9a 83       	std	Y+2, r25	; 0x02
    3c36:	89 83       	std	Y+1, r24	; 0x01

00003c38 <.Loc.430>:
            }
            break;
    3c38:	50 c1       	rjmp	.+672    	; 0x3eda <.L259>

00003c3a <.L15>:
        case 12: //inklappen
            knipperLichten(1); // aan
    3c3a:	81 e0       	ldi	r24, 0x01	; 1
    3c3c:	0e 94 e4 03 	call	0x7c8	; 0x7c8 <knipperLichten>

00003c40 <.Loc.432>:
            buzzer(1); // aan
    3c40:	81 e0       	ldi	r24, 0x01	; 1
    3c42:	0e 94 b8 03 	call	0x770	; 0x770 <buzzer>

00003c46 <.Loc.433>:

            set_servo_direction(0); // ingeklapt
            _delay_ms(500);
            */

            h_bridge_set_percentage(-80);    // keine motor
    3c46:	80 eb       	ldi	r24, 0xB0	; 176
    3c48:	0e 94 cc 02 	call	0x598	; 0x598 <h_bridge_set_percentage>

00003c4c <.Loc.434>:

            LCD_Scherm_Leeg();
    3c4c:	0e 94 80 0b 	call	0x1700	; 0x1700 <LCD_Scherm_Leeg>

00003c50 <.Loc.435>:
           	LCD_Naar_Locatie(1, 1);
    3c50:	61 e0       	ldi	r22, 0x01	; 1
    3c52:	81 e0       	ldi	r24, 0x01	; 1
    3c54:	0e 94 64 0b 	call	0x16c8	; 0x16c8 <LCD_Naar_Locatie>

00003c58 <.Loc.436>:
	    	Stuur_LCD_String("Inklappen");
    3c58:	85 e8       	ldi	r24, 0x85	; 133
    3c5a:	92 e0       	ldi	r25, 0x02	; 2
    3c5c:	0e 94 42 0b 	call	0x1684	; 0x1684 <Stuur_LCD_String>

00003c60 <.Loc.437>:

            if ((PINA & (1<<ingeklapt_switch)) == 0)
    3c60:	80 e2       	ldi	r24, 0x20	; 32
    3c62:	90 e0       	ldi	r25, 0x00	; 0
    3c64:	dc 01       	movw	r26, r24
    3c66:	8c 91       	ld	r24, X

00003c68 <.Loc.438>:
    3c68:	88 2f       	mov	r24, r24
    3c6a:	90 e0       	ldi	r25, 0x00	; 0
    3c6c:	80 74       	andi	r24, 0x40	; 64
    3c6e:	99 27       	eor	r25, r25

00003c70 <.Loc.439>:
    3c70:	00 97       	sbiw	r24, 0x00	; 0
    3c72:	09 f0       	breq	.+2      	; 0x3c76 <L0^A+0x2>

00003c74 <L0^A>:
    3c74:	35 c1       	rjmp	.+618    	; 0x3ee0 <.L260>
    3c76:	9e 01       	movw	r18, r28
    3c78:	2d 51       	subi	r18, 0x1D	; 29
    3c7a:	3f 4f       	sbci	r19, 0xFF	; 255
    3c7c:	80 e0       	ldi	r24, 0x00	; 0
    3c7e:	90 e0       	ldi	r25, 0x00	; 0
    3c80:	a0 ea       	ldi	r26, 0xA0	; 160
    3c82:	b1 e4       	ldi	r27, 0x41	; 65
    3c84:	f9 01       	movw	r30, r18
    3c86:	80 83       	st	Z, r24
    3c88:	91 83       	std	Z+1, r25	; 0x01
    3c8a:	a2 83       	std	Z+2, r26	; 0x02
    3c8c:	b3 83       	std	Z+3, r27	; 0x03

00003c8e <.LBB204>:
	__tmp = ((F_CPU) / 4e3) * __ms;
    3c8e:	8e 01       	movw	r16, r28
    3c90:	09 51       	subi	r16, 0x19	; 25
    3c92:	1f 4f       	sbci	r17, 0xFF	; 255
    3c94:	ce 01       	movw	r24, r28
    3c96:	8d 51       	subi	r24, 0x1D	; 29
    3c98:	9f 4f       	sbci	r25, 0xFF	; 255
    3c9a:	20 e0       	ldi	r18, 0x00	; 0
    3c9c:	30 e0       	ldi	r19, 0x00	; 0
    3c9e:	4a e7       	ldi	r20, 0x7A	; 122
    3ca0:	55 e4       	ldi	r21, 0x45	; 69
    3ca2:	dc 01       	movw	r26, r24
    3ca4:	6d 91       	ld	r22, X+
    3ca6:	7d 91       	ld	r23, X+
    3ca8:	8d 91       	ld	r24, X+
    3caa:	9c 91       	ld	r25, X
    3cac:	0e 94 15 24 	call	0x482a	; 0x482a <__mulsf3>
    3cb0:	cb 5c       	subi	r28, 0xCB	; 203
    3cb2:	dd 4f       	sbci	r29, 0xFD	; 253
    3cb4:	68 83       	st	Y, r22
    3cb6:	79 83       	std	Y+1, r23	; 0x01
    3cb8:	8a 83       	std	Y+2, r24	; 0x02
    3cba:	9b 83       	std	Y+3, r25	; 0x03
    3cbc:	c5 53       	subi	r28, 0x35	; 53
    3cbe:	d2 40       	sbci	r29, 0x02	; 2
    3cc0:	cb 5c       	subi	r28, 0xCB	; 203
    3cc2:	dd 4f       	sbci	r29, 0xFD	; 253
    3cc4:	88 81       	ld	r24, Y
    3cc6:	99 81       	ldd	r25, Y+1	; 0x01
    3cc8:	aa 81       	ldd	r26, Y+2	; 0x02
    3cca:	bb 81       	ldd	r27, Y+3	; 0x03
    3ccc:	c5 53       	subi	r28, 0x35	; 53
    3cce:	d2 40       	sbci	r29, 0x02	; 2
    3cd0:	f8 01       	movw	r30, r16
    3cd2:	80 83       	st	Z, r24
    3cd4:	91 83       	std	Z+1, r25	; 0x01
    3cd6:	a2 83       	std	Z+2, r26	; 0x02
    3cd8:	b3 83       	std	Z+3, r27	; 0x03

00003cda <.Loc.441>:
	if (__tmp < 1.0)
    3cda:	ce 01       	movw	r24, r28
    3cdc:	89 51       	subi	r24, 0x19	; 25
    3cde:	9f 4f       	sbci	r25, 0xFF	; 255
    3ce0:	20 e0       	ldi	r18, 0x00	; 0
    3ce2:	30 e0       	ldi	r19, 0x00	; 0
    3ce4:	40 e8       	ldi	r20, 0x80	; 128
    3ce6:	5f e3       	ldi	r21, 0x3F	; 63
    3ce8:	dc 01       	movw	r26, r24
    3cea:	6d 91       	ld	r22, X+
    3cec:	7d 91       	ld	r23, X+
    3cee:	8d 91       	ld	r24, X+
    3cf0:	9c 91       	ld	r25, X
    3cf2:	0e 94 b8 22 	call	0x4570	; 0x4570 <__cmpsf2>
    3cf6:	88 23       	and	r24, r24
    3cf8:	4c f4       	brge	.+18     	; 0x3d0c <.L246>

00003cfa <.Loc.442>:
		__ticks = 1;
    3cfa:	ce 01       	movw	r24, r28
    3cfc:	85 51       	subi	r24, 0x15	; 21
    3cfe:	9f 4f       	sbci	r25, 0xFF	; 255
    3d00:	21 e0       	ldi	r18, 0x01	; 1
    3d02:	30 e0       	ldi	r19, 0x00	; 0
    3d04:	fc 01       	movw	r30, r24
    3d06:	31 83       	std	Z+1, r19	; 0x01
    3d08:	20 83       	st	Z, r18
    3d0a:	a5 c0       	rjmp	.+330    	; 0x3e56 <.L173>

00003d0c <.L246>:
	else if (__tmp > 65535)
    3d0c:	ce 01       	movw	r24, r28
    3d0e:	89 51       	subi	r24, 0x19	; 25
    3d10:	9f 4f       	sbci	r25, 0xFF	; 255
    3d12:	20 e0       	ldi	r18, 0x00	; 0
    3d14:	3f ef       	ldi	r19, 0xFF	; 255
    3d16:	4f e7       	ldi	r20, 0x7F	; 127
    3d18:	57 e4       	ldi	r21, 0x47	; 71
    3d1a:	dc 01       	movw	r26, r24
    3d1c:	6d 91       	ld	r22, X+
    3d1e:	7d 91       	ld	r23, X+
    3d20:	8d 91       	ld	r24, X+
    3d22:	9c 91       	ld	r25, X
    3d24:	0e 94 10 24 	call	0x4820	; 0x4820 <__gesf2>
    3d28:	88 23       	and	r24, r24
    3d2a:	09 f0       	breq	.+2      	; 0x3d2e <L0^A>

00003d2c <L0^A>:
    3d2c:	0c f4       	brge	.+2      	; 0x3d30 <.Loc.444>

00003d2e <L0^A>:
    3d2e:	75 c0       	rjmp	.+234    	; 0x3e1a <.L247>

00003d30 <.Loc.444>:
		__ticks = (uint16_t) (__ms * 10.0);
    3d30:	ce 01       	movw	r24, r28
    3d32:	8d 51       	subi	r24, 0x1D	; 29
    3d34:	9f 4f       	sbci	r25, 0xFF	; 255
    3d36:	20 e0       	ldi	r18, 0x00	; 0
    3d38:	30 e0       	ldi	r19, 0x00	; 0
    3d3a:	40 e2       	ldi	r20, 0x20	; 32
    3d3c:	51 e4       	ldi	r21, 0x41	; 65
    3d3e:	fc 01       	movw	r30, r24
    3d40:	60 81       	ld	r22, Z
    3d42:	71 81       	ldd	r23, Z+1	; 0x01
    3d44:	82 81       	ldd	r24, Z+2	; 0x02
    3d46:	93 81       	ldd	r25, Z+3	; 0x03
    3d48:	0e 94 15 24 	call	0x482a	; 0x482a <__mulsf3>
    3d4c:	c7 5c       	subi	r28, 0xC7	; 199
    3d4e:	dd 4f       	sbci	r29, 0xFD	; 253
    3d50:	68 83       	st	Y, r22
    3d52:	79 83       	std	Y+1, r23	; 0x01
    3d54:	8a 83       	std	Y+2, r24	; 0x02
    3d56:	9b 83       	std	Y+3, r25	; 0x03
    3d58:	c9 53       	subi	r28, 0x39	; 57
    3d5a:	d2 40       	sbci	r29, 0x02	; 2
    3d5c:	c7 5c       	subi	r28, 0xC7	; 199
    3d5e:	dd 4f       	sbci	r29, 0xFD	; 253
    3d60:	88 81       	ld	r24, Y
    3d62:	99 81       	ldd	r25, Y+1	; 0x01
    3d64:	aa 81       	ldd	r26, Y+2	; 0x02
    3d66:	bb 81       	ldd	r27, Y+3	; 0x03
    3d68:	c9 53       	subi	r28, 0x39	; 57
    3d6a:	d2 40       	sbci	r29, 0x02	; 2
    3d6c:	cf 5c       	subi	r28, 0xCF	; 207
    3d6e:	de 4f       	sbci	r29, 0xFE	; 254
    3d70:	88 83       	st	Y, r24
    3d72:	99 83       	std	Y+1, r25	; 0x01
    3d74:	aa 83       	std	Y+2, r26	; 0x02
    3d76:	bb 83       	std	Y+3, r27	; 0x03
    3d78:	c1 53       	subi	r28, 0x31	; 49
    3d7a:	d1 40       	sbci	r29, 0x01	; 1

00003d7c <.Loc.445>:
    3d7c:	8e 01       	movw	r16, r28
    3d7e:	05 51       	subi	r16, 0x15	; 21
    3d80:	1f 4f       	sbci	r17, 0xFF	; 255
    3d82:	cf 5c       	subi	r28, 0xCF	; 207
    3d84:	de 4f       	sbci	r29, 0xFE	; 254
    3d86:	68 81       	ld	r22, Y
    3d88:	79 81       	ldd	r23, Y+1	; 0x01
    3d8a:	8a 81       	ldd	r24, Y+2	; 0x02
    3d8c:	9b 81       	ldd	r25, Y+3	; 0x03
    3d8e:	c1 53       	subi	r28, 0x31	; 49
    3d90:	d1 40       	sbci	r29, 0x01	; 1
    3d92:	0e 94 2f 23 	call	0x465e	; 0x465e <__fixunssfsi>
    3d96:	c3 5c       	subi	r28, 0xC3	; 195
    3d98:	dd 4f       	sbci	r29, 0xFD	; 253
    3d9a:	68 83       	st	Y, r22
    3d9c:	79 83       	std	Y+1, r23	; 0x01
    3d9e:	8a 83       	std	Y+2, r24	; 0x02
    3da0:	9b 83       	std	Y+3, r25	; 0x03
    3da2:	cd 53       	subi	r28, 0x3D	; 61
    3da4:	d2 40       	sbci	r29, 0x02	; 2
    3da6:	c3 5c       	subi	r28, 0xC3	; 195
    3da8:	dd 4f       	sbci	r29, 0xFD	; 253
    3daa:	e8 81       	ld	r30, Y
    3dac:	f9 81       	ldd	r31, Y+1	; 0x01
    3dae:	cd 53       	subi	r28, 0x3D	; 61
    3db0:	d2 40       	sbci	r29, 0x02	; 2
    3db2:	d8 01       	movw	r26, r16
    3db4:	11 96       	adiw	r26, 0x01	; 1
    3db6:	fc 93       	st	X, r31
    3db8:	ee 93       	st	-X, r30

00003dba <.Loc.446>:
		while(__ticks)
    3dba:	26 c0       	rjmp	.+76     	; 0x3e08 <.L176>

00003dbc <.L177>:
    3dbc:	ce 01       	movw	r24, r28
    3dbe:	83 51       	subi	r24, 0x13	; 19
    3dc0:	9f 4f       	sbci	r25, 0xFF	; 255
    3dc2:	20 e9       	ldi	r18, 0x90	; 144
    3dc4:	31 e0       	ldi	r19, 0x01	; 1
    3dc6:	dc 01       	movw	r26, r24
    3dc8:	2d 93       	st	X+, r18
    3dca:	3c 93       	st	X, r19

00003dcc <.LBB206>:
    3dcc:	ce 01       	movw	r24, r28
    3dce:	83 51       	subi	r24, 0x13	; 19
    3dd0:	9f 4f       	sbci	r25, 0xFF	; 255
    3dd2:	fc 01       	movw	r30, r24
    3dd4:	80 81       	ld	r24, Z
    3dd6:	91 81       	ldd	r25, Z+1	; 0x01

00003dd8 <.L1^B33>:
    3dd8:	01 97       	sbiw	r24, 0x01	; 1
    3dda:	f1 f7       	brne	.-4      	; 0x3dd8 <.L1^B33>
    3ddc:	9e 01       	movw	r18, r28
    3dde:	23 51       	subi	r18, 0x13	; 19
    3de0:	3f 4f       	sbci	r19, 0xFF	; 255
    3de2:	d9 01       	movw	r26, r18
    3de4:	8d 93       	st	X+, r24
    3de6:	9c 93       	st	X, r25

00003de8 <.Loc.448>:
	...

00003dea <.LBE206>:
			__ticks --;
    3dea:	ce 01       	movw	r24, r28
    3dec:	85 51       	subi	r24, 0x15	; 21
    3dee:	9f 4f       	sbci	r25, 0xFF	; 255
    3df0:	9e 01       	movw	r18, r28
    3df2:	25 51       	subi	r18, 0x15	; 21
    3df4:	3f 4f       	sbci	r19, 0xFF	; 255
    3df6:	f9 01       	movw	r30, r18
    3df8:	20 81       	ld	r18, Z
    3dfa:	31 81       	ldd	r19, Z+1	; 0x01
    3dfc:	21 50       	subi	r18, 0x01	; 1
    3dfe:	31 09       	sbc	r19, r1
    3e00:	dc 01       	movw	r26, r24
    3e02:	11 96       	adiw	r26, 0x01	; 1
    3e04:	3c 93       	st	X, r19
    3e06:	2e 93       	st	-X, r18

00003e08 <.L176>:
		while(__ticks)
    3e08:	ce 01       	movw	r24, r28
    3e0a:	85 51       	subi	r24, 0x15	; 21
    3e0c:	9f 4f       	sbci	r25, 0xFF	; 255
    3e0e:	fc 01       	movw	r30, r24
    3e10:	80 81       	ld	r24, Z
    3e12:	91 81       	ldd	r25, Z+1	; 0x01
    3e14:	00 97       	sbiw	r24, 0x00	; 0
    3e16:	91 f6       	brne	.-92     	; 0x3dbc <.L177>

00003e18 <.Loc.451>:
		return;
    3e18:	3a c0       	rjmp	.+116    	; 0x3e8e <.L178>

00003e1a <.L247>:
		__ticks = (uint16_t)__tmp;
    3e1a:	8e 01       	movw	r16, r28
    3e1c:	05 51       	subi	r16, 0x15	; 21
    3e1e:	1f 4f       	sbci	r17, 0xFF	; 255
    3e20:	ce 01       	movw	r24, r28
    3e22:	89 51       	subi	r24, 0x19	; 25
    3e24:	9f 4f       	sbci	r25, 0xFF	; 255
    3e26:	dc 01       	movw	r26, r24
    3e28:	6d 91       	ld	r22, X+
    3e2a:	7d 91       	ld	r23, X+
    3e2c:	8d 91       	ld	r24, X+
    3e2e:	9c 91       	ld	r25, X
    3e30:	0e 94 2f 23 	call	0x465e	; 0x465e <__fixunssfsi>
    3e34:	cf 5b       	subi	r28, 0xBF	; 191
    3e36:	dd 4f       	sbci	r29, 0xFD	; 253
    3e38:	68 83       	st	Y, r22
    3e3a:	79 83       	std	Y+1, r23	; 0x01
    3e3c:	8a 83       	std	Y+2, r24	; 0x02
    3e3e:	9b 83       	std	Y+3, r25	; 0x03
    3e40:	c1 54       	subi	r28, 0x41	; 65
    3e42:	d2 40       	sbci	r29, 0x02	; 2
    3e44:	cf 5b       	subi	r28, 0xBF	; 191
    3e46:	dd 4f       	sbci	r29, 0xFD	; 253
    3e48:	88 81       	ld	r24, Y
    3e4a:	99 81       	ldd	r25, Y+1	; 0x01
    3e4c:	c1 54       	subi	r28, 0x41	; 65
    3e4e:	d2 40       	sbci	r29, 0x02	; 2
    3e50:	f8 01       	movw	r30, r16
    3e52:	91 83       	std	Z+1, r25	; 0x01
    3e54:	80 83       	st	Z, r24

00003e56 <.L173>:
    3e56:	ce 01       	movw	r24, r28
    3e58:	81 51       	subi	r24, 0x11	; 17
    3e5a:	9f 4f       	sbci	r25, 0xFF	; 255
    3e5c:	9e 01       	movw	r18, r28
    3e5e:	25 51       	subi	r18, 0x15	; 21
    3e60:	3f 4f       	sbci	r19, 0xFF	; 255
    3e62:	d9 01       	movw	r26, r18
    3e64:	2d 91       	ld	r18, X+
    3e66:	3c 91       	ld	r19, X
    3e68:	fc 01       	movw	r30, r24
    3e6a:	31 83       	std	Z+1, r19	; 0x01
    3e6c:	20 83       	st	Z, r18

00003e6e <.LBB208>:
    3e6e:	ce 01       	movw	r24, r28
    3e70:	81 51       	subi	r24, 0x11	; 17
    3e72:	9f 4f       	sbci	r25, 0xFF	; 255
    3e74:	dc 01       	movw	r26, r24
    3e76:	8d 91       	ld	r24, X+
    3e78:	9c 91       	ld	r25, X
    3e7a:	11 97       	sbiw	r26, 0x01	; 1

00003e7c <.L1^B34>:
    3e7c:	01 97       	sbiw	r24, 0x01	; 1
    3e7e:	f1 f7       	brne	.-4      	; 0x3e7c <.L1^B34>
    3e80:	9e 01       	movw	r18, r28
    3e82:	21 51       	subi	r18, 0x11	; 17
    3e84:	3f 4f       	sbci	r19, 0xFF	; 255
    3e86:	f9 01       	movw	r30, r18
    3e88:	91 83       	std	Z+1, r25	; 0x01
    3e8a:	80 83       	st	Z, r24

00003e8c <.Loc.454>:
	...

00003e8e <.L178>:
            {
                DEBOUNCE;
                status = 1;
    3e8e:	81 e0       	ldi	r24, 0x01	; 1
    3e90:	90 e0       	ldi	r25, 0x00	; 0
    3e92:	9a 83       	std	Y+2, r25	; 0x02
    3e94:	89 83       	std	Y+1, r24	; 0x01

00003e96 <.Loc.456>:
            }
            break;
    3e96:	24 c0       	rjmp	.+72     	; 0x3ee0 <.L260>

00003e98 <.L248>:
            break;
    3e98:	00 00       	nop
    3e9a:	0c 94 53 0c 	jmp	0x18a6	; 0x18a6 <.L179>

00003e9e <.L249>:
            break;
    3e9e:	00 00       	nop
    3ea0:	0c 94 53 0c 	jmp	0x18a6	; 0x18a6 <.L179>

00003ea4 <.L250>:
            break;
    3ea4:	00 00       	nop
    3ea6:	0c 94 53 0c 	jmp	0x18a6	; 0x18a6 <.L179>

00003eaa <.L251>:
            break;
    3eaa:	00 00       	nop
    3eac:	0c 94 53 0c 	jmp	0x18a6	; 0x18a6 <.L179>

00003eb0 <.L252>:
            break;
    3eb0:	00 00       	nop
    3eb2:	0c 94 53 0c 	jmp	0x18a6	; 0x18a6 <.L179>

00003eb6 <.L253>:
            break;
    3eb6:	00 00       	nop
    3eb8:	0c 94 53 0c 	jmp	0x18a6	; 0x18a6 <.L179>

00003ebc <.L254>:
            break;
    3ebc:	00 00       	nop
    3ebe:	0c 94 53 0c 	jmp	0x18a6	; 0x18a6 <.L179>

00003ec2 <.L255>:
            break;
    3ec2:	00 00       	nop
    3ec4:	0c 94 53 0c 	jmp	0x18a6	; 0x18a6 <.L179>

00003ec8 <.L256>:
            break;
    3ec8:	00 00       	nop
    3eca:	0c 94 53 0c 	jmp	0x18a6	; 0x18a6 <.L179>

00003ece <.L257>:
           break;
    3ece:	00 00       	nop
    3ed0:	0c 94 53 0c 	jmp	0x18a6	; 0x18a6 <.L179>

00003ed4 <.L258>:
            break;
    3ed4:	00 00       	nop
    3ed6:	0c 94 53 0c 	jmp	0x18a6	; 0x18a6 <.L179>

00003eda <.L259>:
            break;
    3eda:	00 00       	nop
    3edc:	0c 94 53 0c 	jmp	0x18a6	; 0x18a6 <.L179>

00003ee0 <.L260>:
	...

00003ee2 <.Loc.470>:
        if (buzz >= 8)                              // buzzer gaat 8 keer aan en uit door timer 5
    3ee2:	0c 94 53 0c 	jmp	0x18a6	; 0x18a6 <.L179>

00003ee6 <__vector_47>:
	return 0;
}

// ---- interrupts ---- //
ISR(TIMER5_COMPA_vect)          // timer 1 interrupt compare voor knipperlichten
{
    3ee6:	1f 92       	push	r1
    3ee8:	0f 92       	push	r0
    3eea:	0f b6       	in	r0, 0x3f	; 63
    3eec:	0f 92       	push	r0
    3eee:	11 24       	eor	r1, r1
    3ef0:	0b b6       	in	r0, 0x3b	; 59
    3ef2:	0f 92       	push	r0
    3ef4:	2f 93       	push	r18
    3ef6:	8f 93       	push	r24
    3ef8:	9f 93       	push	r25
    3efa:	ef 93       	push	r30
    3efc:	ff 93       	push	r31
    3efe:	cf 93       	push	r28
    3f00:	df 93       	push	r29
    3f02:	cd b7       	in	r28, 0x3d	; 61
    3f04:	de b7       	in	r29, 0x3e	; 62

00003f06 <.Loc.472>:
	PORTK |= (1<<PK7);          // ledjes knipperen
    3f06:	88 e0       	ldi	r24, 0x08	; 8
    3f08:	91 e0       	ldi	r25, 0x01	; 1
    3f0a:	fc 01       	movw	r30, r24
    3f0c:	20 81       	ld	r18, Z
    3f0e:	88 e0       	ldi	r24, 0x08	; 8
    3f10:	91 e0       	ldi	r25, 0x01	; 1

00003f12 <.Loc.473>:
    3f12:	20 68       	ori	r18, 0x80	; 128
    3f14:	fc 01       	movw	r30, r24
    3f16:	20 83       	st	Z, r18

00003f18 <.Loc.474>:
	PORTK &= ~(1<<PK6);
    3f18:	88 e0       	ldi	r24, 0x08	; 8
    3f1a:	91 e0       	ldi	r25, 0x01	; 1
    3f1c:	fc 01       	movw	r30, r24
    3f1e:	20 81       	ld	r18, Z

00003f20 <.Loc.475>:
    3f20:	88 e0       	ldi	r24, 0x08	; 8
    3f22:	91 e0       	ldi	r25, 0x01	; 1

00003f24 <.Loc.476>:
    3f24:	2f 7b       	andi	r18, 0xBF	; 191
    3f26:	fc 01       	movw	r30, r24
    3f28:	20 83       	st	Z, r18

00003f2a <.Loc.477>:
}
    3f2a:	00 00       	nop
    3f2c:	df 91       	pop	r29
    3f2e:	cf 91       	pop	r28
    3f30:	ff 91       	pop	r31
    3f32:	ef 91       	pop	r30
    3f34:	9f 91       	pop	r25
    3f36:	8f 91       	pop	r24
    3f38:	2f 91       	pop	r18
    3f3a:	0f 90       	pop	r0
    3f3c:	0b be       	out	0x3b, r0	; 59
    3f3e:	0f 90       	pop	r0
    3f40:	0f be       	out	0x3f, r0	; 63
    3f42:	0f 90       	pop	r0
    3f44:	1f 90       	pop	r1
    3f46:	18 95       	reti

00003f48 <__vector_48>:

ISR(TIMER5_COMPB_vect)          // timer 1 interrupt compare voor knipperlichten
{
    3f48:	1f 92       	push	r1
    3f4a:	0f 92       	push	r0
    3f4c:	0f b6       	in	r0, 0x3f	; 63
    3f4e:	0f 92       	push	r0
    3f50:	11 24       	eor	r1, r1
    3f52:	0b b6       	in	r0, 0x3b	; 59
    3f54:	0f 92       	push	r0
    3f56:	2f 93       	push	r18
    3f58:	8f 93       	push	r24
    3f5a:	9f 93       	push	r25
    3f5c:	ef 93       	push	r30
    3f5e:	ff 93       	push	r31
    3f60:	cf 93       	push	r28
    3f62:	df 93       	push	r29
    3f64:	cd b7       	in	r28, 0x3d	; 61
    3f66:	de b7       	in	r29, 0x3e	; 62

00003f68 <.Loc.479>:
    PORTD |= (1<<PD0);                              // buzzer aan
    3f68:	8b e2       	ldi	r24, 0x2B	; 43
    3f6a:	90 e0       	ldi	r25, 0x00	; 0
    3f6c:	fc 01       	movw	r30, r24
    3f6e:	20 81       	ld	r18, Z
    3f70:	8b e2       	ldi	r24, 0x2B	; 43
    3f72:	90 e0       	ldi	r25, 0x00	; 0

00003f74 <.Loc.480>:
    3f74:	21 60       	ori	r18, 0x01	; 1
    3f76:	fc 01       	movw	r30, r24
    3f78:	20 83       	st	Z, r18

00003f7a <.Loc.481>:
    buzz++;
    3f7a:	80 91 92 02 	lds	r24, 0x0292	; 0x800292 <buzz>
    3f7e:	90 91 93 02 	lds	r25, 0x0293	; 0x800293 <buzz+0x1>
    3f82:	01 96       	adiw	r24, 0x01	; 1
    3f84:	90 93 93 02 	sts	0x0293, r25	; 0x800293 <buzz+0x1>
    3f88:	80 93 92 02 	sts	0x0292, r24	; 0x800292 <buzz>

00003f8c <.Loc.482>:
}
    3f8c:	00 00       	nop
    3f8e:	df 91       	pop	r29
    3f90:	cf 91       	pop	r28
    3f92:	ff 91       	pop	r31
    3f94:	ef 91       	pop	r30
    3f96:	9f 91       	pop	r25
    3f98:	8f 91       	pop	r24
    3f9a:	2f 91       	pop	r18
    3f9c:	0f 90       	pop	r0
    3f9e:	0b be       	out	0x3b, r0	; 59
    3fa0:	0f 90       	pop	r0
    3fa2:	0f be       	out	0x3f, r0	; 63
    3fa4:	0f 90       	pop	r0
    3fa6:	1f 90       	pop	r1
    3fa8:	18 95       	reti

00003faa <__vector_50>:

ISR(TIMER5_OVF_vect)            // timer 1 interrupt overflow voor knipperlichten
{
    3faa:	1f 92       	push	r1
    3fac:	0f 92       	push	r0
    3fae:	0f b6       	in	r0, 0x3f	; 63
    3fb0:	0f 92       	push	r0
    3fb2:	11 24       	eor	r1, r1
    3fb4:	0b b6       	in	r0, 0x3b	; 59
    3fb6:	0f 92       	push	r0
    3fb8:	2f 93       	push	r18
    3fba:	3f 93       	push	r19
    3fbc:	8f 93       	push	r24
    3fbe:	9f 93       	push	r25
    3fc0:	ef 93       	push	r30
    3fc2:	ff 93       	push	r31
    3fc4:	cf 93       	push	r28
    3fc6:	df 93       	push	r29
    3fc8:	cd b7       	in	r28, 0x3d	; 61
    3fca:	de b7       	in	r29, 0x3e	; 62

00003fcc <.Loc.484>:
	TCNT5 = TCNT_INIT5;          // re-init timer 1
    3fcc:	84 e2       	ldi	r24, 0x24	; 36
    3fce:	91 e0       	ldi	r25, 0x01	; 1

00003fd0 <.Loc.485>:
    3fd0:	20 e1       	ldi	r18, 0x10	; 16
    3fd2:	37 e2       	ldi	r19, 0x27	; 39
    3fd4:	fc 01       	movw	r30, r24
    3fd6:	31 83       	std	Z+1, r19	; 0x01
    3fd8:	20 83       	st	Z, r18

00003fda <.Loc.486>:
    PORTK |= (1<<PK6);          // ledjes knipperen
    3fda:	88 e0       	ldi	r24, 0x08	; 8
    3fdc:	91 e0       	ldi	r25, 0x01	; 1
    3fde:	fc 01       	movw	r30, r24
    3fe0:	20 81       	ld	r18, Z
    3fe2:	88 e0       	ldi	r24, 0x08	; 8
    3fe4:	91 e0       	ldi	r25, 0x01	; 1

00003fe6 <.Loc.487>:
    3fe6:	20 64       	ori	r18, 0x40	; 64
    3fe8:	fc 01       	movw	r30, r24
    3fea:	20 83       	st	Z, r18

00003fec <.Loc.488>:
	PORTK &= ~(1<<PK7);
    3fec:	88 e0       	ldi	r24, 0x08	; 8
    3fee:	91 e0       	ldi	r25, 0x01	; 1
    3ff0:	fc 01       	movw	r30, r24
    3ff2:	20 81       	ld	r18, Z

00003ff4 <.Loc.489>:
    3ff4:	88 e0       	ldi	r24, 0x08	; 8
    3ff6:	91 e0       	ldi	r25, 0x01	; 1

00003ff8 <.Loc.490>:
    3ff8:	2f 77       	andi	r18, 0x7F	; 127
    3ffa:	fc 01       	movw	r30, r24
    3ffc:	20 83       	st	Z, r18

00003ffe <.Loc.491>:
    PORTD &= ~(1<<PD0);                             // buzzer uit
    3ffe:	8b e2       	ldi	r24, 0x2B	; 43
    4000:	90 e0       	ldi	r25, 0x00	; 0
    4002:	fc 01       	movw	r30, r24
    4004:	20 81       	ld	r18, Z

00004006 <.Loc.492>:
    4006:	8b e2       	ldi	r24, 0x2B	; 43
    4008:	90 e0       	ldi	r25, 0x00	; 0

0000400a <.Loc.493>:
    400a:	2e 7f       	andi	r18, 0xFE	; 254
    400c:	fc 01       	movw	r30, r24
    400e:	20 83       	st	Z, r18

00004010 <.Loc.494>:
}
    4010:	00 00       	nop
    4012:	df 91       	pop	r29
    4014:	cf 91       	pop	r28
    4016:	ff 91       	pop	r31
    4018:	ef 91       	pop	r30
    401a:	9f 91       	pop	r25
    401c:	8f 91       	pop	r24
    401e:	3f 91       	pop	r19
    4020:	2f 91       	pop	r18
    4022:	0f 90       	pop	r0
    4024:	0b be       	out	0x3b, r0	; 59
    4026:	0f 90       	pop	r0
    4028:	0f be       	out	0x3f, r0	; 63
    402a:	0f 90       	pop	r0
    402c:	1f 90       	pop	r1
    402e:	18 95       	reti

00004030 <__vector_45>:
#define RESET_VALUE	(65636ul-TIME_VALUE)
#define STOP_VALUE	(TIME_VALUE*0.075)
#define RANGE		(TIME_VALUE*0.025)

ISR(TIMER4_OVF_vect)
{
    4030:	1f 92       	push	r1
    4032:	0f 92       	push	r0
    4034:	0f b6       	in	r0, 0x3f	; 63
    4036:	0f 92       	push	r0
    4038:	11 24       	eor	r1, r1
    403a:	0b b6       	in	r0, 0x3b	; 59
    403c:	0f 92       	push	r0
    403e:	2f 93       	push	r18
    4040:	3f 93       	push	r19
    4042:	8f 93       	push	r24
    4044:	9f 93       	push	r25
    4046:	ef 93       	push	r30
    4048:	ff 93       	push	r31
    404a:	cf 93       	push	r28
    404c:	df 93       	push	r29
    404e:	cd b7       	in	r28, 0x3d	; 61
    4050:	de b7       	in	r29, 0x3e	; 62

00004052 <.Loc.1>:
	TCNT4 = RESET_VALUE;
    4052:	84 ea       	ldi	r24, 0xA4	; 164
    4054:	90 e0       	ldi	r25, 0x00	; 0

00004056 <.Loc.2>:
    4056:	24 e2       	ldi	r18, 0x24	; 36
    4058:	34 e6       	ldi	r19, 0x64	; 100
    405a:	fc 01       	movw	r30, r24
    405c:	31 83       	std	Z+1, r19	; 0x01
    405e:	20 83       	st	Z, r18

00004060 <.Loc.3>:

	PORT_1 |= (1<<PIN_1);
    4060:	8e e2       	ldi	r24, 0x2E	; 46
    4062:	90 e0       	ldi	r25, 0x00	; 0
    4064:	fc 01       	movw	r30, r24
    4066:	20 81       	ld	r18, Z
    4068:	8e e2       	ldi	r24, 0x2E	; 46
    406a:	90 e0       	ldi	r25, 0x00	; 0

0000406c <.Loc.4>:
    406c:	28 60       	ori	r18, 0x08	; 8
    406e:	fc 01       	movw	r30, r24
    4070:	20 83       	st	Z, r18

00004072 <.Loc.5>:
	PORT_2 |= (1<<PIN_2);
    4072:	84 e3       	ldi	r24, 0x34	; 52
    4074:	90 e0       	ldi	r25, 0x00	; 0
    4076:	fc 01       	movw	r30, r24
    4078:	20 81       	ld	r18, Z
    407a:	84 e3       	ldi	r24, 0x34	; 52
    407c:	90 e0       	ldi	r25, 0x00	; 0

0000407e <.Loc.6>:
    407e:	20 62       	ori	r18, 0x20	; 32
    4080:	fc 01       	movw	r30, r24
    4082:	20 83       	st	Z, r18

00004084 <.Loc.7>:
}
    4084:	00 00       	nop
    4086:	df 91       	pop	r29
    4088:	cf 91       	pop	r28
    408a:	ff 91       	pop	r31
    408c:	ef 91       	pop	r30
    408e:	9f 91       	pop	r25
    4090:	8f 91       	pop	r24
    4092:	3f 91       	pop	r19
    4094:	2f 91       	pop	r18
    4096:	0f 90       	pop	r0
    4098:	0b be       	out	0x3b, r0	; 59
    409a:	0f 90       	pop	r0
    409c:	0f be       	out	0x3f, r0	; 63
    409e:	0f 90       	pop	r0
    40a0:	1f 90       	pop	r1
    40a2:	18 95       	reti

000040a4 <__vector_42>:

ISR(TIMER4_COMPA_vect)
{
    40a4:	1f 92       	push	r1
    40a6:	0f 92       	push	r0
    40a8:	0f b6       	in	r0, 0x3f	; 63
    40aa:	0f 92       	push	r0
    40ac:	11 24       	eor	r1, r1
    40ae:	0b b6       	in	r0, 0x3b	; 59
    40b0:	0f 92       	push	r0
    40b2:	2f 93       	push	r18
    40b4:	8f 93       	push	r24
    40b6:	9f 93       	push	r25
    40b8:	ef 93       	push	r30
    40ba:	ff 93       	push	r31
    40bc:	cf 93       	push	r28
    40be:	df 93       	push	r29
    40c0:	cd b7       	in	r28, 0x3d	; 61
    40c2:	de b7       	in	r29, 0x3e	; 62

000040c4 <.Loc.9>:
	PORT_1 &= ~(1<<PIN_1);
    40c4:	8e e2       	ldi	r24, 0x2E	; 46
    40c6:	90 e0       	ldi	r25, 0x00	; 0
    40c8:	fc 01       	movw	r30, r24
    40ca:	20 81       	ld	r18, Z

000040cc <.Loc.10>:
    40cc:	8e e2       	ldi	r24, 0x2E	; 46
    40ce:	90 e0       	ldi	r25, 0x00	; 0

000040d0 <.Loc.11>:
    40d0:	27 7f       	andi	r18, 0xF7	; 247
    40d2:	fc 01       	movw	r30, r24
    40d4:	20 83       	st	Z, r18

000040d6 <.Loc.12>:
}
    40d6:	00 00       	nop
    40d8:	df 91       	pop	r29
    40da:	cf 91       	pop	r28
    40dc:	ff 91       	pop	r31
    40de:	ef 91       	pop	r30
    40e0:	9f 91       	pop	r25
    40e2:	8f 91       	pop	r24
    40e4:	2f 91       	pop	r18
    40e6:	0f 90       	pop	r0
    40e8:	0b be       	out	0x3b, r0	; 59
    40ea:	0f 90       	pop	r0
    40ec:	0f be       	out	0x3f, r0	; 63
    40ee:	0f 90       	pop	r0
    40f0:	1f 90       	pop	r1
    40f2:	18 95       	reti

000040f4 <__vector_43>:

ISR(TIMER4_COMPB_vect)
{
    40f4:	1f 92       	push	r1
    40f6:	0f 92       	push	r0
    40f8:	0f b6       	in	r0, 0x3f	; 63
    40fa:	0f 92       	push	r0
    40fc:	11 24       	eor	r1, r1
    40fe:	0b b6       	in	r0, 0x3b	; 59
    4100:	0f 92       	push	r0
    4102:	2f 93       	push	r18
    4104:	8f 93       	push	r24
    4106:	9f 93       	push	r25
    4108:	ef 93       	push	r30
    410a:	ff 93       	push	r31
    410c:	cf 93       	push	r28
    410e:	df 93       	push	r29
    4110:	cd b7       	in	r28, 0x3d	; 61
    4112:	de b7       	in	r29, 0x3e	; 62

00004114 <.Loc.14>:
	PORT_2 &= ~(1<<PIN_2);
    4114:	84 e3       	ldi	r24, 0x34	; 52
    4116:	90 e0       	ldi	r25, 0x00	; 0
    4118:	fc 01       	movw	r30, r24
    411a:	20 81       	ld	r18, Z

0000411c <.Loc.15>:
    411c:	84 e3       	ldi	r24, 0x34	; 52
    411e:	90 e0       	ldi	r25, 0x00	; 0

00004120 <.Loc.16>:
    4120:	2f 7d       	andi	r18, 0xDF	; 223
    4122:	fc 01       	movw	r30, r24
    4124:	20 83       	st	Z, r18

00004126 <.Loc.17>:
}
    4126:	00 00       	nop
    4128:	df 91       	pop	r29
    412a:	cf 91       	pop	r28
    412c:	ff 91       	pop	r31
    412e:	ef 91       	pop	r30
    4130:	9f 91       	pop	r25
    4132:	8f 91       	pop	r24
    4134:	2f 91       	pop	r18
    4136:	0f 90       	pop	r0
    4138:	0b be       	out	0x3b, r0	; 59
    413a:	0f 90       	pop	r0
    413c:	0f be       	out	0x3f, r0	; 63
    413e:	0f 90       	pop	r0
    4140:	1f 90       	pop	r1
    4142:	18 95       	reti

00004144 <init_servo>:

void init_servo(void)
{
    4144:	cf 93       	push	r28
    4146:	df 93       	push	r29
    4148:	cd b7       	in	r28, 0x3d	; 61
    414a:	de b7       	in	r29, 0x3e	; 62

0000414c <.Loc.19>:
	// Config pins as output
	DDR_1 |= (1<<PIN_1);
    414c:	8d e2       	ldi	r24, 0x2D	; 45
    414e:	90 e0       	ldi	r25, 0x00	; 0
    4150:	fc 01       	movw	r30, r24
    4152:	20 81       	ld	r18, Z
    4154:	8d e2       	ldi	r24, 0x2D	; 45
    4156:	90 e0       	ldi	r25, 0x00	; 0

00004158 <.Loc.20>:
    4158:	28 60       	ori	r18, 0x08	; 8
    415a:	fc 01       	movw	r30, r24
    415c:	20 83       	st	Z, r18

0000415e <.Loc.21>:
	DDR_2 |= (1<<PIN_2);
    415e:	83 e3       	ldi	r24, 0x33	; 51
    4160:	90 e0       	ldi	r25, 0x00	; 0
    4162:	fc 01       	movw	r30, r24
    4164:	20 81       	ld	r18, Z
    4166:	83 e3       	ldi	r24, 0x33	; 51
    4168:	90 e0       	ldi	r25, 0x00	; 0

0000416a <.Loc.22>:
    416a:	20 62       	ori	r18, 0x20	; 32
    416c:	fc 01       	movw	r30, r24
    416e:	20 83       	st	Z, r18

00004170 <.Loc.23>:

	// Use mode 0, clkdiv = 8
	TCCR4A = 0;
    4170:	80 ea       	ldi	r24, 0xA0	; 160
    4172:	90 e0       	ldi	r25, 0x00	; 0

00004174 <.Loc.24>:
    4174:	fc 01       	movw	r30, r24
    4176:	10 82       	st	Z, r1

00004178 <.Loc.25>:
	TCCR4B = (0<<CS42) | (1<<CS41) | (0<<CS40);
    4178:	81 ea       	ldi	r24, 0xA1	; 161
    417a:	90 e0       	ldi	r25, 0x00	; 0

0000417c <.Loc.26>:
    417c:	22 e0       	ldi	r18, 0x02	; 2
    417e:	fc 01       	movw	r30, r24
    4180:	20 83       	st	Z, r18

00004182 <.Loc.27>:
	// Interrupts on OCA, OCB and OVF
	TIMSK4 = (1<<OCIE4B) | (1<<OCIE4A) | (1<<TOIE4);
    4182:	82 e7       	ldi	r24, 0x72	; 114
    4184:	90 e0       	ldi	r25, 0x00	; 0

00004186 <.Loc.28>:
    4186:	27 e0       	ldi	r18, 0x07	; 7
    4188:	fc 01       	movw	r30, r24
    418a:	20 83       	st	Z, r18

0000418c <.Loc.29>:

	TCNT4 = RESET_VALUE;
    418c:	84 ea       	ldi	r24, 0xA4	; 164
    418e:	90 e0       	ldi	r25, 0x00	; 0

00004190 <.Loc.30>:
    4190:	24 e2       	ldi	r18, 0x24	; 36
    4192:	34 e6       	ldi	r19, 0x64	; 100
    4194:	fc 01       	movw	r30, r24
    4196:	31 83       	std	Z+1, r19	; 0x01
    4198:	20 83       	st	Z, r18

0000419a <.Loc.31>:

	servo1_set_percentage(0);
    419a:	80 e0       	ldi	r24, 0x00	; 0
    419c:	0e 94 d8 20 	call	0x41b0	; 0x41b0 <servo1_set_percentage>

000041a0 <.Loc.32>:
	servo2_set_percentage(0);
    41a0:	80 e0       	ldi	r24, 0x00	; 0
    41a2:	0e 94 4c 21 	call	0x4298	; 0x4298 <servo2_set_percentage>

000041a6 <.Loc.33>:

	sei();
    41a6:	78 94       	sei

000041a8 <.Loc.34>:
}
    41a8:	00 00       	nop
    41aa:	df 91       	pop	r29
    41ac:	cf 91       	pop	r28
    41ae:	08 95       	ret

000041b0 <servo1_set_percentage>:

void servo1_set_percentage(signed char percentage)
{
    41b0:	0f 93       	push	r16
    41b2:	1f 93       	push	r17
    41b4:	cf 93       	push	r28
    41b6:	df 93       	push	r29
    41b8:	cd b7       	in	r28, 0x3d	; 61
    41ba:	de b7       	in	r29, 0x3e	; 62
    41bc:	6d 97       	sbiw	r28, 0x1d	; 29
    41be:	0f b6       	in	r0, 0x3f	; 63
    41c0:	f8 94       	cli
    41c2:	de bf       	out	0x3e, r29	; 62
    41c4:	0f be       	out	0x3f, r0	; 63
    41c6:	cd bf       	out	0x3d, r28	; 61
    41c8:	89 83       	std	Y+1, r24	; 0x01

000041ca <.Loc.36>:
	if (percentage >= -100 && percentage <= 100)
    41ca:	89 81       	ldd	r24, Y+1	; 0x01
    41cc:	8c 39       	cpi	r24, 0x9C	; 156
    41ce:	0c f4       	brge	.+2      	; 0x41d2 <.Loc.37>

000041d0 <L0^A>:
    41d0:	57 c0       	rjmp	.+174    	; 0x4280 <.L7>

000041d2 <.Loc.37>:
    41d2:	89 81       	ldd	r24, Y+1	; 0x01
    41d4:	84 36       	cpi	r24, 0x64	; 100
    41d6:	11 f0       	breq	.+4      	; 0x41dc <.Loc.38>

000041d8 <L0^A>:
    41d8:	0c f0       	brlt	.+2      	; 0x41dc <.Loc.38>

000041da <L0^A>:
    41da:	52 c0       	rjmp	.+164    	; 0x4280 <.L7>

000041dc <.Loc.38>:
	{
		OCR4A = RESET_VALUE+STOP_VALUE+(RANGE/100*percentage);
    41dc:	89 81       	ldd	r24, Y+1	; 0x01
    41de:	28 2f       	mov	r18, r24
    41e0:	88 0f       	add	r24, r24
    41e2:	33 0b       	sbc	r19, r19
    41e4:	44 0b       	sbc	r20, r20
    41e6:	55 0b       	sbc	r21, r21
    41e8:	2e 87       	std	Y+14, r18	; 0x0e
    41ea:	3f 87       	std	Y+15, r19	; 0x0f
    41ec:	48 8b       	std	Y+16, r20	; 0x10
    41ee:	59 8b       	std	Y+17, r21	; 0x11
    41f0:	6e 85       	ldd	r22, Y+14	; 0x0e
    41f2:	7f 85       	ldd	r23, Y+15	; 0x0f
    41f4:	88 89       	ldd	r24, Y+16	; 0x10
    41f6:	99 89       	ldd	r25, Y+17	; 0x11
    41f8:	0e 94 60 23 	call	0x46c0	; 0x46c0 <__floatsisf>
    41fc:	6a 83       	std	Y+2, r22	; 0x02
    41fe:	7b 83       	std	Y+3, r23	; 0x03
    4200:	8c 83       	std	Y+4, r24	; 0x04
    4202:	9d 83       	std	Y+5, r25	; 0x05
    4204:	20 e0       	ldi	r18, 0x00	; 0
    4206:	30 e0       	ldi	r19, 0x00	; 0
    4208:	40 e2       	ldi	r20, 0x20	; 32
    420a:	51 e4       	ldi	r21, 0x41	; 65
    420c:	6a 81       	ldd	r22, Y+2	; 0x02
    420e:	7b 81       	ldd	r23, Y+3	; 0x03
    4210:	8c 81       	ldd	r24, Y+4	; 0x04
    4212:	9d 81       	ldd	r25, Y+5	; 0x05
    4214:	0e 94 15 24 	call	0x482a	; 0x482a <__mulsf3>
    4218:	6a 8b       	std	Y+18, r22	; 0x12
    421a:	7b 8b       	std	Y+19, r23	; 0x13
    421c:	8c 8b       	std	Y+20, r24	; 0x14
    421e:	9d 8b       	std	Y+21, r25	; 0x15
    4220:	8a 89       	ldd	r24, Y+18	; 0x12
    4222:	9b 89       	ldd	r25, Y+19	; 0x13
    4224:	ac 89       	ldd	r26, Y+20	; 0x14
    4226:	bd 89       	ldd	r27, Y+21	; 0x15
    4228:	8e 83       	std	Y+6, r24	; 0x06
    422a:	9f 83       	std	Y+7, r25	; 0x07
    422c:	a8 87       	std	Y+8, r26	; 0x08
    422e:	b9 87       	std	Y+9, r27	; 0x09

00004230 <.Loc.39>:
    4230:	20 e0       	ldi	r18, 0x00	; 0
    4232:	38 eb       	ldi	r19, 0xB8	; 184
    4234:	4f ed       	ldi	r20, 0xDF	; 223
    4236:	56 e4       	ldi	r21, 0x46	; 70
    4238:	6e 81       	ldd	r22, Y+6	; 0x06
    423a:	7f 81       	ldd	r23, Y+7	; 0x07
    423c:	88 85       	ldd	r24, Y+8	; 0x08
    423e:	99 85       	ldd	r25, Y+9	; 0x09
    4240:	0e 94 4c 22 	call	0x4498	; 0x4498 <__addsf3>
    4244:	6e 8b       	std	Y+22, r22	; 0x16
    4246:	7f 8b       	std	Y+23, r23	; 0x17
    4248:	88 8f       	std	Y+24, r24	; 0x18
    424a:	99 8f       	std	Y+25, r25	; 0x19
    424c:	2e 89       	ldd	r18, Y+22	; 0x16
    424e:	3f 89       	ldd	r19, Y+23	; 0x17
    4250:	48 8d       	ldd	r20, Y+24	; 0x18
    4252:	59 8d       	ldd	r21, Y+25	; 0x19
    4254:	2a 87       	std	Y+10, r18	; 0x0a
    4256:	3b 87       	std	Y+11, r19	; 0x0b
    4258:	4c 87       	std	Y+12, r20	; 0x0c
    425a:	5d 87       	std	Y+13, r21	; 0x0d

0000425c <.Loc.40>:
    425c:	08 ea       	ldi	r16, 0xA8	; 168
    425e:	10 e0       	ldi	r17, 0x00	; 0

00004260 <.Loc.41>:
    4260:	6a 85       	ldd	r22, Y+10	; 0x0a
    4262:	7b 85       	ldd	r23, Y+11	; 0x0b
    4264:	8c 85       	ldd	r24, Y+12	; 0x0c
    4266:	9d 85       	ldd	r25, Y+13	; 0x0d
    4268:	0e 94 2f 23 	call	0x465e	; 0x465e <__fixunssfsi>
    426c:	6a 8f       	std	Y+26, r22	; 0x1a
    426e:	7b 8f       	std	Y+27, r23	; 0x1b
    4270:	8c 8f       	std	Y+28, r24	; 0x1c
    4272:	9d 8f       	std	Y+29, r25	; 0x1d
    4274:	8a 8d       	ldd	r24, Y+26	; 0x1a
    4276:	9b 8d       	ldd	r25, Y+27	; 0x1b
    4278:	d8 01       	movw	r26, r16
    427a:	11 96       	adiw	r26, 0x01	; 1
    427c:	9c 93       	st	X, r25
    427e:	8e 93       	st	-X, r24

00004280 <.L7>:
	}
}
    4280:	00 00       	nop
    4282:	6d 96       	adiw	r28, 0x1d	; 29
    4284:	0f b6       	in	r0, 0x3f	; 63
    4286:	f8 94       	cli
    4288:	de bf       	out	0x3e, r29	; 62
    428a:	0f be       	out	0x3f, r0	; 63
    428c:	cd bf       	out	0x3d, r28	; 61
    428e:	df 91       	pop	r29
    4290:	cf 91       	pop	r28
    4292:	1f 91       	pop	r17
    4294:	0f 91       	pop	r16
    4296:	08 95       	ret

00004298 <servo2_set_percentage>:

void servo2_set_percentage(signed char percentage)
{
    4298:	0f 93       	push	r16
    429a:	1f 93       	push	r17
    429c:	cf 93       	push	r28
    429e:	df 93       	push	r29
    42a0:	cd b7       	in	r28, 0x3d	; 61
    42a2:	de b7       	in	r29, 0x3e	; 62
    42a4:	6d 97       	sbiw	r28, 0x1d	; 29
    42a6:	0f b6       	in	r0, 0x3f	; 63
    42a8:	f8 94       	cli
    42aa:	de bf       	out	0x3e, r29	; 62
    42ac:	0f be       	out	0x3f, r0	; 63
    42ae:	cd bf       	out	0x3d, r28	; 61
    42b0:	89 83       	std	Y+1, r24	; 0x01

000042b2 <.Loc.44>:
	if (percentage >= -100 && percentage <= 100)
    42b2:	89 81       	ldd	r24, Y+1	; 0x01
    42b4:	8c 39       	cpi	r24, 0x9C	; 156
    42b6:	0c f4       	brge	.+2      	; 0x42ba <.Loc.45>

000042b8 <L0^A>:
    42b8:	57 c0       	rjmp	.+174    	; 0x4368 <.L10>

000042ba <.Loc.45>:
    42ba:	89 81       	ldd	r24, Y+1	; 0x01
    42bc:	84 36       	cpi	r24, 0x64	; 100
    42be:	11 f0       	breq	.+4      	; 0x42c4 <.Loc.46>

000042c0 <L0^A>:
    42c0:	0c f0       	brlt	.+2      	; 0x42c4 <.Loc.46>

000042c2 <L0^A>:
    42c2:	52 c0       	rjmp	.+164    	; 0x4368 <.L10>

000042c4 <.Loc.46>:
	{
		OCR4B = RESET_VALUE+STOP_VALUE+(RANGE/100*percentage);
    42c4:	89 81       	ldd	r24, Y+1	; 0x01
    42c6:	28 2f       	mov	r18, r24
    42c8:	88 0f       	add	r24, r24
    42ca:	33 0b       	sbc	r19, r19
    42cc:	44 0b       	sbc	r20, r20
    42ce:	55 0b       	sbc	r21, r21
    42d0:	2e 87       	std	Y+14, r18	; 0x0e
    42d2:	3f 87       	std	Y+15, r19	; 0x0f
    42d4:	48 8b       	std	Y+16, r20	; 0x10
    42d6:	59 8b       	std	Y+17, r21	; 0x11
    42d8:	6e 85       	ldd	r22, Y+14	; 0x0e
    42da:	7f 85       	ldd	r23, Y+15	; 0x0f
    42dc:	88 89       	ldd	r24, Y+16	; 0x10
    42de:	99 89       	ldd	r25, Y+17	; 0x11
    42e0:	0e 94 60 23 	call	0x46c0	; 0x46c0 <__floatsisf>
    42e4:	6a 83       	std	Y+2, r22	; 0x02
    42e6:	7b 83       	std	Y+3, r23	; 0x03
    42e8:	8c 83       	std	Y+4, r24	; 0x04
    42ea:	9d 83       	std	Y+5, r25	; 0x05
    42ec:	20 e0       	ldi	r18, 0x00	; 0
    42ee:	30 e0       	ldi	r19, 0x00	; 0
    42f0:	40 e2       	ldi	r20, 0x20	; 32
    42f2:	51 e4       	ldi	r21, 0x41	; 65
    42f4:	6a 81       	ldd	r22, Y+2	; 0x02
    42f6:	7b 81       	ldd	r23, Y+3	; 0x03
    42f8:	8c 81       	ldd	r24, Y+4	; 0x04
    42fa:	9d 81       	ldd	r25, Y+5	; 0x05
    42fc:	0e 94 15 24 	call	0x482a	; 0x482a <__mulsf3>
    4300:	6a 8b       	std	Y+18, r22	; 0x12
    4302:	7b 8b       	std	Y+19, r23	; 0x13
    4304:	8c 8b       	std	Y+20, r24	; 0x14
    4306:	9d 8b       	std	Y+21, r25	; 0x15
    4308:	8a 89       	ldd	r24, Y+18	; 0x12
    430a:	9b 89       	ldd	r25, Y+19	; 0x13
    430c:	ac 89       	ldd	r26, Y+20	; 0x14
    430e:	bd 89       	ldd	r27, Y+21	; 0x15
    4310:	8e 83       	std	Y+6, r24	; 0x06
    4312:	9f 83       	std	Y+7, r25	; 0x07
    4314:	a8 87       	std	Y+8, r26	; 0x08
    4316:	b9 87       	std	Y+9, r27	; 0x09

00004318 <.Loc.47>:
    4318:	20 e0       	ldi	r18, 0x00	; 0
    431a:	38 eb       	ldi	r19, 0xB8	; 184
    431c:	4f ed       	ldi	r20, 0xDF	; 223
    431e:	56 e4       	ldi	r21, 0x46	; 70
    4320:	6e 81       	ldd	r22, Y+6	; 0x06
    4322:	7f 81       	ldd	r23, Y+7	; 0x07
    4324:	88 85       	ldd	r24, Y+8	; 0x08
    4326:	99 85       	ldd	r25, Y+9	; 0x09
    4328:	0e 94 4c 22 	call	0x4498	; 0x4498 <__addsf3>
    432c:	6e 8b       	std	Y+22, r22	; 0x16
    432e:	7f 8b       	std	Y+23, r23	; 0x17
    4330:	88 8f       	std	Y+24, r24	; 0x18
    4332:	99 8f       	std	Y+25, r25	; 0x19
    4334:	2e 89       	ldd	r18, Y+22	; 0x16
    4336:	3f 89       	ldd	r19, Y+23	; 0x17
    4338:	48 8d       	ldd	r20, Y+24	; 0x18
    433a:	59 8d       	ldd	r21, Y+25	; 0x19
    433c:	2a 87       	std	Y+10, r18	; 0x0a
    433e:	3b 87       	std	Y+11, r19	; 0x0b
    4340:	4c 87       	std	Y+12, r20	; 0x0c
    4342:	5d 87       	std	Y+13, r21	; 0x0d

00004344 <.Loc.48>:
    4344:	0a ea       	ldi	r16, 0xAA	; 170
    4346:	10 e0       	ldi	r17, 0x00	; 0

00004348 <.Loc.49>:
    4348:	6a 85       	ldd	r22, Y+10	; 0x0a
    434a:	7b 85       	ldd	r23, Y+11	; 0x0b
    434c:	8c 85       	ldd	r24, Y+12	; 0x0c
    434e:	9d 85       	ldd	r25, Y+13	; 0x0d
    4350:	0e 94 2f 23 	call	0x465e	; 0x465e <__fixunssfsi>
    4354:	6a 8f       	std	Y+26, r22	; 0x1a
    4356:	7b 8f       	std	Y+27, r23	; 0x1b
    4358:	8c 8f       	std	Y+28, r24	; 0x1c
    435a:	9d 8f       	std	Y+29, r25	; 0x1d
    435c:	8a 8d       	ldd	r24, Y+26	; 0x1a
    435e:	9b 8d       	ldd	r25, Y+27	; 0x1b
    4360:	d8 01       	movw	r26, r16
    4362:	11 96       	adiw	r26, 0x01	; 1
    4364:	9c 93       	st	X, r25
    4366:	8e 93       	st	-X, r24

00004368 <.L10>:
	}
}
    4368:	00 00       	nop
    436a:	6d 96       	adiw	r28, 0x1d	; 29
    436c:	0f b6       	in	r0, 0x3f	; 63
    436e:	f8 94       	cli
    4370:	de bf       	out	0x3e, r29	; 62
    4372:	0f be       	out	0x3f, r0	; 63
    4374:	cd bf       	out	0x3d, r28	; 61
    4376:	df 91       	pop	r29
    4378:	cf 91       	pop	r28
    437a:	1f 91       	pop	r17
    437c:	0f 91       	pop	r16
    437e:	08 95       	ret

00004380 <__divmodhi4>:
    4380:	97 fb       	bst	r25, 7

00004382 <.Loc.1>:
    4382:	07 2e       	mov	r0, r23

00004384 <.Loc.2>:
    4384:	16 f4       	brtc	.+4      	; 0x438a <.L^B1>

00004386 <.Loc.3>:
    4386:	00 94       	com	r0

00004388 <.Loc.4>:
    4388:	07 d0       	rcall	.+14     	; 0x4398 <__divmodhi4_neg1>

0000438a <.L^B1>:
    438a:	77 fd       	sbrc	r23, 7

0000438c <.Loc.6>:
    438c:	09 d0       	rcall	.+18     	; 0x43a0 <__divmodhi4_neg2>

0000438e <.Loc.7>:
    438e:	0e 94 06 22 	call	0x440c	; 0x440c <__udivmodhi4>

00004392 <.Loc.8>:
    4392:	07 fc       	sbrc	r0, 7

00004394 <.Loc.9>:
    4394:	05 d0       	rcall	.+10     	; 0x43a0 <__divmodhi4_neg2>

00004396 <.Loc.10>:
    4396:	3e f4       	brtc	.+14     	; 0x43a6 <__divmodhi4_exit>

00004398 <__divmodhi4_neg1>:
    4398:	90 95       	com	r25

0000439a <.Loc.12>:
    439a:	81 95       	neg	r24

0000439c <.Loc.13>:
    439c:	9f 4f       	sbci	r25, 0xFF	; 255

0000439e <.Loc.14>:
    439e:	08 95       	ret

000043a0 <__divmodhi4_neg2>:
    43a0:	70 95       	com	r23

000043a2 <.Loc.16>:
    43a2:	61 95       	neg	r22

000043a4 <.Loc.17>:
    43a4:	7f 4f       	sbci	r23, 0xFF	; 255

000043a6 <__divmodhi4_exit>:
    43a6:	08 95       	ret

000043a8 <__divmodsi4>:
    43a8:	05 2e       	mov	r0, r21

000043aa <.Loc.1>:
    43aa:	97 fb       	bst	r25, 7

000043ac <.Loc.2>:
    43ac:	1e f4       	brtc	.+6      	; 0x43b4 <.L^B1>

000043ae <.Loc.3>:
    43ae:	00 94       	com	r0

000043b0 <.Loc.4>:
    43b0:	0e 94 eb 21 	call	0x43d6	; 0x43d6 <__negsi2>

000043b4 <.L^B1>:
    43b4:	57 fd       	sbrc	r21, 7

000043b6 <.Loc.6>:
    43b6:	07 d0       	rcall	.+14     	; 0x43c6 <__divmodsi4_neg2>

000043b8 <.Loc.7>:
    43b8:	0e 94 1a 22 	call	0x4434	; 0x4434 <__udivmodsi4>

000043bc <.Loc.8>:
    43bc:	07 fc       	sbrc	r0, 7

000043be <.Loc.9>:
    43be:	03 d0       	rcall	.+6      	; 0x43c6 <__divmodsi4_neg2>

000043c0 <.Loc.10>:
    43c0:	4e f4       	brtc	.+18     	; 0x43d4 <__divmodsi4_exit>

000043c2 <.Loc.11>:
    43c2:	0c 94 eb 21 	jmp	0x43d6	; 0x43d6 <__negsi2>

000043c6 <__divmodsi4_neg2>:
    43c6:	50 95       	com	r21

000043c8 <.Loc.13>:
    43c8:	40 95       	com	r20

000043ca <.Loc.14>:
    43ca:	30 95       	com	r19

000043cc <.Loc.15>:
    43cc:	21 95       	neg	r18

000043ce <.Loc.16>:
    43ce:	3f 4f       	sbci	r19, 0xFF	; 255

000043d0 <.Loc.17>:
    43d0:	4f 4f       	sbci	r20, 0xFF	; 255

000043d2 <.Loc.18>:
    43d2:	5f 4f       	sbci	r21, 0xFF	; 255

000043d4 <__divmodsi4_exit>:
    43d4:	08 95       	ret

000043d6 <__negsi2>:
    43d6:	90 95       	com	r25
    43d8:	80 95       	com	r24
    43da:	70 95       	com	r23
    43dc:	61 95       	neg	r22
    43de:	7f 4f       	sbci	r23, 0xFF	; 255
    43e0:	8f 4f       	sbci	r24, 0xFF	; 255
    43e2:	9f 4f       	sbci	r25, 0xFF	; 255

000043e4 <.Loc.1>:
    43e4:	08 95       	ret

000043e6 <__tablejump2__>:
    43e6:	ee 0f       	add	r30, r30

000043e8 <.Loc.1>:
    43e8:	ff 1f       	adc	r31, r31

000043ea <.Loc.2>:
    43ea:	88 1f       	adc	r24, r24

000043ec <.Loc.3>:
    43ec:	8b bf       	out	0x3b, r24	; 59

000043ee <.Loc.4>:
    43ee:	07 90       	elpm	r0, Z+

000043f0 <.Loc.5>:
    43f0:	f6 91       	elpm	r31, Z

000043f2 <.Loc.6>:
    43f2:	e0 2d       	mov	r30, r0

000043f4 <.Loc.7>:
    43f4:	19 94       	eijmp

000043f6 <__muluhisi3>:
    43f6:	0e 94 3c 22 	call	0x4478	; 0x4478 <__umulhisi3>

000043fa <.Loc.1>:
    43fa:	a5 9f       	mul	r26, r21

000043fc <.Loc.2>:
    43fc:	90 0d       	add	r25, r0

000043fe <.Loc.3>:
    43fe:	b4 9f       	mul	r27, r20

00004400 <.Loc.4>:
    4400:	90 0d       	add	r25, r0

00004402 <.Loc.5>:
    4402:	a4 9f       	mul	r26, r20

00004404 <.Loc.6>:
    4404:	80 0d       	add	r24, r0

00004406 <.Loc.7>:
    4406:	91 1d       	adc	r25, r1

00004408 <.Loc.8>:
    4408:	11 24       	eor	r1, r1

0000440a <.Loc.9>:
    440a:	08 95       	ret

0000440c <__udivmodhi4>:
    440c:	aa 1b       	sub	r26, r26

0000440e <.Loc.1>:
    440e:	bb 1b       	sub	r27, r27

00004410 <.Loc.2>:
    4410:	51 e1       	ldi	r21, 0x11	; 17

00004412 <.Loc.3>:
    4412:	07 c0       	rjmp	.+14     	; 0x4422 <__udivmodhi4_ep>

00004414 <__udivmodhi4_loop>:
    4414:	aa 1f       	adc	r26, r26

00004416 <.Loc.5>:
    4416:	bb 1f       	adc	r27, r27

00004418 <.Loc.6>:
    4418:	a6 17       	cp	r26, r22

0000441a <.Loc.7>:
    441a:	b7 07       	cpc	r27, r23

0000441c <.Loc.8>:
    441c:	10 f0       	brcs	.+4      	; 0x4422 <__udivmodhi4_ep>

0000441e <.Loc.9>:
    441e:	a6 1b       	sub	r26, r22

00004420 <.Loc.10>:
    4420:	b7 0b       	sbc	r27, r23

00004422 <__udivmodhi4_ep>:
    4422:	88 1f       	adc	r24, r24

00004424 <.Loc.12>:
    4424:	99 1f       	adc	r25, r25

00004426 <.Loc.13>:
    4426:	5a 95       	dec	r21

00004428 <.Loc.14>:
    4428:	a9 f7       	brne	.-22     	; 0x4414 <__udivmodhi4_loop>

0000442a <.Loc.15>:
    442a:	80 95       	com	r24

0000442c <.Loc.16>:
    442c:	90 95       	com	r25

0000442e <.Loc.17>:
    442e:	bc 01       	movw	r22, r24

00004430 <.Loc.18>:
    4430:	cd 01       	movw	r24, r26

00004432 <.Loc.19>:
    4432:	08 95       	ret

00004434 <__udivmodsi4>:
    4434:	a1 e2       	ldi	r26, 0x21	; 33

00004436 <.Loc.1>:
    4436:	1a 2e       	mov	r1, r26

00004438 <.Loc.2>:
    4438:	aa 1b       	sub	r26, r26

0000443a <.Loc.3>:
    443a:	bb 1b       	sub	r27, r27

0000443c <.Loc.4>:
    443c:	fd 01       	movw	r30, r26

0000443e <.Loc.5>:
    443e:	0d c0       	rjmp	.+26     	; 0x445a <__udivmodsi4_ep>

00004440 <__udivmodsi4_loop>:
    4440:	aa 1f       	adc	r26, r26

00004442 <.Loc.7>:
    4442:	bb 1f       	adc	r27, r27

00004444 <.Loc.8>:
    4444:	ee 1f       	adc	r30, r30

00004446 <.Loc.9>:
    4446:	ff 1f       	adc	r31, r31

00004448 <.Loc.10>:
    4448:	a2 17       	cp	r26, r18

0000444a <.Loc.11>:
    444a:	b3 07       	cpc	r27, r19

0000444c <.Loc.12>:
    444c:	e4 07       	cpc	r30, r20

0000444e <.Loc.13>:
    444e:	f5 07       	cpc	r31, r21

00004450 <.Loc.14>:
    4450:	20 f0       	brcs	.+8      	; 0x445a <__udivmodsi4_ep>

00004452 <.Loc.15>:
    4452:	a2 1b       	sub	r26, r18

00004454 <.Loc.16>:
    4454:	b3 0b       	sbc	r27, r19

00004456 <.Loc.17>:
    4456:	e4 0b       	sbc	r30, r20

00004458 <.Loc.18>:
    4458:	f5 0b       	sbc	r31, r21

0000445a <__udivmodsi4_ep>:
    445a:	66 1f       	adc	r22, r22

0000445c <.Loc.20>:
    445c:	77 1f       	adc	r23, r23

0000445e <.Loc.21>:
    445e:	88 1f       	adc	r24, r24

00004460 <.Loc.22>:
    4460:	99 1f       	adc	r25, r25

00004462 <.Loc.23>:
    4462:	1a 94       	dec	r1

00004464 <.Loc.24>:
    4464:	69 f7       	brne	.-38     	; 0x4440 <__udivmodsi4_loop>

00004466 <.Loc.25>:
    4466:	60 95       	com	r22

00004468 <.Loc.26>:
    4468:	70 95       	com	r23

0000446a <.Loc.27>:
    446a:	80 95       	com	r24

0000446c <.Loc.28>:
    446c:	90 95       	com	r25

0000446e <.Loc.29>:
    446e:	9b 01       	movw	r18, r22

00004470 <.Loc.30>:
    4470:	ac 01       	movw	r20, r24

00004472 <.Loc.31>:
    4472:	bd 01       	movw	r22, r26

00004474 <.Loc.32>:
    4474:	cf 01       	movw	r24, r30

00004476 <.Loc.33>:
    4476:	08 95       	ret

00004478 <__umulhisi3>:
    4478:	a2 9f       	mul	r26, r18

0000447a <.Loc.1>:
    447a:	b0 01       	movw	r22, r0

0000447c <.Loc.2>:
    447c:	b3 9f       	mul	r27, r19

0000447e <.Loc.3>:
    447e:	c0 01       	movw	r24, r0

00004480 <.Loc.4>:
    4480:	a3 9f       	mul	r26, r19

00004482 <.Loc.5>:
    4482:	70 0d       	add	r23, r0

00004484 <.Loc.6>:
    4484:	81 1d       	adc	r24, r1

00004486 <.Loc.7>:
    4486:	11 24       	eor	r1, r1

00004488 <.Loc.8>:
    4488:	91 1d       	adc	r25, r1

0000448a <.Loc.9>:
    448a:	b2 9f       	mul	r27, r18

0000448c <.Loc.10>:
    448c:	70 0d       	add	r23, r0

0000448e <.Loc.11>:
    448e:	81 1d       	adc	r24, r1

00004490 <.Loc.12>:
    4490:	11 24       	eor	r1, r1

00004492 <.Loc.13>:
    4492:	91 1d       	adc	r25, r1

00004494 <.Loc.14>:
    4494:	08 95       	ret

00004496 <__subsf3>:
    4496:	50 58       	subi	r21, 0x80	; 128

00004498 <__addsf3>:
    4498:	bb 27       	eor	r27, r27
    449a:	aa 27       	eor	r26, r26
    449c:	0e 94 63 22 	call	0x44c6	; 0x44c6 <__addsf3x>
    44a0:	0c 94 d6 23 	jmp	0x47ac	; 0x47ac <__fp_round>

000044a4 <.L^B1>:
    44a4:	0e 94 c8 23 	call	0x4790	; 0x4790 <__fp_pscA>
    44a8:	38 f0       	brcs	.+14     	; 0x44b8 <.L_nan>
    44aa:	0e 94 cf 23 	call	0x479e	; 0x479e <__fp_pscB>
    44ae:	20 f0       	brcs	.+8      	; 0x44b8 <.L_nan>
    44b0:	39 f4       	brne	.+14     	; 0x44c0 <.L_inf>
    44b2:	9f 3f       	cpi	r25, 0xFF	; 255
    44b4:	19 f4       	brne	.+6      	; 0x44bc <.L_infB>
    44b6:	26 f4       	brtc	.+8      	; 0x44c0 <.L_inf>

000044b8 <.L_nan>:
    44b8:	0c 94 c5 23 	jmp	0x478a	; 0x478a <__fp_nan>

000044bc <.L_infB>:
    44bc:	0e f4       	brtc	.+2      	; 0x44c0 <.L_inf>
    44be:	e0 95       	com	r30

000044c0 <.L_inf>:
    44c0:	e7 fb       	bst	r30, 7
    44c2:	0c 94 bf 23 	jmp	0x477e	; 0x477e <__fp_inf>

000044c6 <__addsf3x>:
    44c6:	e9 2f       	mov	r30, r25
    44c8:	0e 94 e7 23 	call	0x47ce	; 0x47ce <__fp_split3>
    44cc:	58 f3       	brcs	.-42     	; 0x44a4 <.L^B1>
    44ce:	ba 17       	cp	r27, r26
    44d0:	62 07       	cpc	r22, r18
    44d2:	73 07       	cpc	r23, r19
    44d4:	84 07       	cpc	r24, r20
    44d6:	95 07       	cpc	r25, r21
    44d8:	20 f0       	brcs	.+8      	; 0x44e2 <.L2^B1>
    44da:	79 f4       	brne	.+30     	; 0x44fa <.L4^B1>
    44dc:	a6 f5       	brtc	.+104    	; 0x4546 <.L_add>
    44de:	0c 94 09 24 	jmp	0x4812	; 0x4812 <__fp_zero>

000044e2 <.L2^B1>:
    44e2:	0e f4       	brtc	.+2      	; 0x44e6 <.L3^B1>
    44e4:	e0 95       	com	r30

000044e6 <.L3^B1>:
    44e6:	0b 2e       	mov	r0, r27
    44e8:	ba 2f       	mov	r27, r26
    44ea:	a0 2d       	mov	r26, r0
    44ec:	0b 01       	movw	r0, r22
    44ee:	b9 01       	movw	r22, r18
    44f0:	90 01       	movw	r18, r0
    44f2:	0c 01       	movw	r0, r24
    44f4:	ca 01       	movw	r24, r20
    44f6:	a0 01       	movw	r20, r0
    44f8:	11 24       	eor	r1, r1

000044fa <.L4^B1>:
    44fa:	ff 27       	eor	r31, r31
    44fc:	59 1b       	sub	r21, r25

000044fe <.L5^B1>:
    44fe:	99 f0       	breq	.+38     	; 0x4526 <.L7^B1>
    4500:	59 3f       	cpi	r21, 0xF9	; 249
    4502:	50 f4       	brcc	.+20     	; 0x4518 <.L6^B1>
    4504:	50 3e       	cpi	r21, 0xE0	; 224
    4506:	68 f1       	brcs	.+90     	; 0x4562 <.L_ret>
    4508:	1a 16       	cp	r1, r26
    450a:	f0 40       	sbci	r31, 0x00	; 0
    450c:	a2 2f       	mov	r26, r18
    450e:	23 2f       	mov	r18, r19
    4510:	34 2f       	mov	r19, r20
    4512:	44 27       	eor	r20, r20
    4514:	58 5f       	subi	r21, 0xF8	; 248
    4516:	f3 cf       	rjmp	.-26     	; 0x44fe <.L5^B1>

00004518 <.L6^B1>:
    4518:	46 95       	lsr	r20
    451a:	37 95       	ror	r19
    451c:	27 95       	ror	r18
    451e:	a7 95       	ror	r26
    4520:	f0 40       	sbci	r31, 0x00	; 0
    4522:	53 95       	inc	r21
    4524:	c9 f7       	brne	.-14     	; 0x4518 <.L6^B1>

00004526 <.L7^B1>:
    4526:	7e f4       	brtc	.+30     	; 0x4546 <.L_add>
    4528:	1f 16       	cp	r1, r31
    452a:	ba 0b       	sbc	r27, r26
    452c:	62 0b       	sbc	r22, r18
    452e:	73 0b       	sbc	r23, r19
    4530:	84 0b       	sbc	r24, r20
    4532:	ba f0       	brmi	.+46     	; 0x4562 <.L_ret>

00004534 <.L8^B1>:
    4534:	91 50       	subi	r25, 0x01	; 1
    4536:	a1 f0       	breq	.+40     	; 0x4560 <.L9^B1>
    4538:	ff 0f       	add	r31, r31
    453a:	bb 1f       	adc	r27, r27
    453c:	66 1f       	adc	r22, r22
    453e:	77 1f       	adc	r23, r23
    4540:	88 1f       	adc	r24, r24
    4542:	c2 f7       	brpl	.-16     	; 0x4534 <.L8^B1>
    4544:	0e c0       	rjmp	.+28     	; 0x4562 <.L_ret>

00004546 <.L_add>:
    4546:	ba 0f       	add	r27, r26
    4548:	62 1f       	adc	r22, r18
    454a:	73 1f       	adc	r23, r19
    454c:	84 1f       	adc	r24, r20
    454e:	48 f4       	brcc	.+18     	; 0x4562 <.L_ret>
    4550:	87 95       	ror	r24
    4552:	77 95       	ror	r23
    4554:	67 95       	ror	r22
    4556:	b7 95       	ror	r27
    4558:	f7 95       	ror	r31
    455a:	9e 3f       	cpi	r25, 0xFE	; 254
    455c:	08 f0       	brcs	.+2      	; 0x4560 <.L9^B1>
    455e:	b0 cf       	rjmp	.-160    	; 0x44c0 <.L_inf>

00004560 <.L9^B1>:
    4560:	93 95       	inc	r25

00004562 <.L_ret>:
    4562:	88 0f       	add	r24, r24
    4564:	08 f0       	brcs	.+2      	; 0x4568 <.L1^B1>
    4566:	99 27       	eor	r25, r25

00004568 <.L1^B1>:
    4568:	ee 0f       	add	r30, r30
    456a:	97 95       	ror	r25
    456c:	87 95       	ror	r24
    456e:	08 95       	ret

00004570 <__cmpsf2>:
    4570:	0e 94 9b 23 	call	0x4736	; 0x4736 <__fp_cmp>
    4574:	08 f4       	brcc	.+2      	; 0x4578 <.L1^B1>
    4576:	81 e0       	ldi	r24, 0x01	; 1

00004578 <.L1^B1>:
    4578:	08 95       	ret

0000457a <__divsf3>:
    457a:	0e 94 d1 22 	call	0x45a2	; 0x45a2 <__divsf3x>
    457e:	0c 94 d6 23 	jmp	0x47ac	; 0x47ac <__fp_round>

00004582 <.L^B1>:
    4582:	0e 94 cf 23 	call	0x479e	; 0x479e <__fp_pscB>
    4586:	58 f0       	brcs	.+22     	; 0x459e <.L_nan>
    4588:	0e 94 c8 23 	call	0x4790	; 0x4790 <__fp_pscA>
    458c:	40 f0       	brcs	.+16     	; 0x459e <.L_nan>
    458e:	29 f4       	brne	.+10     	; 0x459a <.L_zr>
    4590:	5f 3f       	cpi	r21, 0xFF	; 255
    4592:	29 f0       	breq	.+10     	; 0x459e <.L_nan>

00004594 <.L_inf>:
    4594:	0c 94 bf 23 	jmp	0x477e	; 0x477e <__fp_inf>

00004598 <.L1^B1>:
    4598:	51 11       	cpse	r21, r1

0000459a <.L_zr>:
    459a:	0c 94 0a 24 	jmp	0x4814	; 0x4814 <__fp_szero>

0000459e <.L_nan>:
    459e:	0c 94 c5 23 	jmp	0x478a	; 0x478a <__fp_nan>

000045a2 <__divsf3x>:
    45a2:	0e 94 e7 23 	call	0x47ce	; 0x47ce <__fp_split3>
    45a6:	68 f3       	brcs	.-38     	; 0x4582 <.L^B1>

000045a8 <__divsf3_pse>:
    45a8:	99 23       	and	r25, r25
    45aa:	b1 f3       	breq	.-20     	; 0x4598 <.L1^B1>
    45ac:	55 23       	and	r21, r21
    45ae:	91 f3       	breq	.-28     	; 0x4594 <.L_inf>
    45b0:	95 1b       	sub	r25, r21
    45b2:	55 0b       	sbc	r21, r21
    45b4:	bb 27       	eor	r27, r27
    45b6:	aa 27       	eor	r26, r26

000045b8 <.L2^B1>:
    45b8:	62 17       	cp	r22, r18
    45ba:	73 07       	cpc	r23, r19
    45bc:	84 07       	cpc	r24, r20
    45be:	38 f0       	brcs	.+14     	; 0x45ce <.L3^B1>
    45c0:	9f 5f       	subi	r25, 0xFF	; 255
    45c2:	5f 4f       	sbci	r21, 0xFF	; 255
    45c4:	22 0f       	add	r18, r18
    45c6:	33 1f       	adc	r19, r19
    45c8:	44 1f       	adc	r20, r20
    45ca:	aa 1f       	adc	r26, r26
    45cc:	a9 f3       	breq	.-22     	; 0x45b8 <.L2^B1>

000045ce <.L3^B1>:
    45ce:	35 d0       	rcall	.+106    	; 0x463a <.L_div>
    45d0:	0e 2e       	mov	r0, r30
    45d2:	3a f0       	brmi	.+14     	; 0x45e2 <.L5^B1>

000045d4 <.L4^B1>:
    45d4:	e0 e8       	ldi	r30, 0x80	; 128
    45d6:	32 d0       	rcall	.+100    	; 0x463c <.L_div1>
    45d8:	91 50       	subi	r25, 0x01	; 1
    45da:	50 40       	sbci	r21, 0x00	; 0
    45dc:	e6 95       	lsr	r30
    45de:	00 1c       	adc	r0, r0
    45e0:	ca f7       	brpl	.-14     	; 0x45d4 <.L4^B1>

000045e2 <.L5^B1>:
    45e2:	2b d0       	rcall	.+86     	; 0x463a <.L_div>
    45e4:	fe 2f       	mov	r31, r30
    45e6:	29 d0       	rcall	.+82     	; 0x463a <.L_div>
    45e8:	66 0f       	add	r22, r22
    45ea:	77 1f       	adc	r23, r23
    45ec:	88 1f       	adc	r24, r24
    45ee:	bb 1f       	adc	r27, r27
    45f0:	26 17       	cp	r18, r22
    45f2:	37 07       	cpc	r19, r23
    45f4:	48 07       	cpc	r20, r24
    45f6:	ab 07       	cpc	r26, r27
    45f8:	b0 e8       	ldi	r27, 0x80	; 128
    45fa:	09 f0       	breq	.+2      	; 0x45fe <.L4^B2>
    45fc:	bb 0b       	sbc	r27, r27

000045fe <.L4^B2>:
    45fe:	80 2d       	mov	r24, r0
    4600:	bf 01       	movw	r22, r30
    4602:	ff 27       	eor	r31, r31
    4604:	93 58       	subi	r25, 0x83	; 131
    4606:	5f 4f       	sbci	r21, 0xFF	; 255
    4608:	3a f0       	brmi	.+14     	; 0x4618 <.L13^B1>
    460a:	9e 3f       	cpi	r25, 0xFE	; 254
    460c:	51 05       	cpc	r21, r1
    460e:	78 f0       	brcs	.+30     	; 0x462e <.L15^B1>
    4610:	0c 94 bf 23 	jmp	0x477e	; 0x477e <__fp_inf>

00004614 <.L12^B1>:
    4614:	0c 94 0a 24 	jmp	0x4814	; 0x4814 <__fp_szero>

00004618 <.L13^B1>:
    4618:	5f 3f       	cpi	r21, 0xFF	; 255
    461a:	e4 f3       	brlt	.-8      	; 0x4614 <.L12^B1>
    461c:	98 3e       	cpi	r25, 0xE8	; 232
    461e:	d4 f3       	brlt	.-12     	; 0x4614 <.L12^B1>

00004620 <.L14^B1>:
    4620:	86 95       	lsr	r24
    4622:	77 95       	ror	r23
    4624:	67 95       	ror	r22
    4626:	b7 95       	ror	r27
    4628:	f7 95       	ror	r31
    462a:	9f 5f       	subi	r25, 0xFF	; 255
    462c:	c9 f7       	brne	.-14     	; 0x4620 <.L14^B1>

0000462e <.L15^B1>:
    462e:	88 0f       	add	r24, r24
    4630:	91 1d       	adc	r25, r1
    4632:	96 95       	lsr	r25
    4634:	87 95       	ror	r24
    4636:	97 f9       	bld	r25, 7
    4638:	08 95       	ret

0000463a <.L_div>:
    463a:	e1 e0       	ldi	r30, 0x01	; 1

0000463c <.L_div1>:
    463c:	66 0f       	add	r22, r22
    463e:	77 1f       	adc	r23, r23
    4640:	88 1f       	adc	r24, r24
    4642:	bb 1f       	adc	r27, r27
    4644:	62 17       	cp	r22, r18
    4646:	73 07       	cpc	r23, r19
    4648:	84 07       	cpc	r24, r20
    464a:	ba 07       	cpc	r27, r26
    464c:	20 f0       	brcs	.+8      	; 0x4656 <.L2^B2>
    464e:	62 1b       	sub	r22, r18
    4650:	73 0b       	sbc	r23, r19
    4652:	84 0b       	sbc	r24, r20
    4654:	ba 0b       	sbc	r27, r26

00004656 <.L2^B2>:
    4656:	ee 1f       	adc	r30, r30
    4658:	88 f7       	brcc	.-30     	; 0x463c <.L_div1>
    465a:	e0 95       	com	r30
    465c:	08 95       	ret

0000465e <__fixunssfsi>:
    465e:	0e 94 ef 23 	call	0x47de	; 0x47de <__fp_splitA>
    4662:	88 f0       	brcs	.+34     	; 0x4686 <.L_err>
    4664:	9f 57       	subi	r25, 0x7F	; 127
    4666:	98 f0       	brcs	.+38     	; 0x468e <.L_zr>
    4668:	b9 2f       	mov	r27, r25
    466a:	99 27       	eor	r25, r25
    466c:	b7 51       	subi	r27, 0x17	; 23
    466e:	b0 f0       	brcs	.+44     	; 0x469c <.L4^B1>
    4670:	e1 f0       	breq	.+56     	; 0x46aa <.L_sign>

00004672 <.L1^B1>:
    4672:	66 0f       	add	r22, r22
    4674:	77 1f       	adc	r23, r23
    4676:	88 1f       	adc	r24, r24
    4678:	99 1f       	adc	r25, r25
    467a:	1a f0       	brmi	.+6      	; 0x4682 <.L2^B1>
    467c:	ba 95       	dec	r27
    467e:	c9 f7       	brne	.-14     	; 0x4672 <.L1^B1>
    4680:	14 c0       	rjmp	.+40     	; 0x46aa <.L_sign>

00004682 <.L2^B1>:
    4682:	b1 30       	cpi	r27, 0x01	; 1
    4684:	91 f0       	breq	.+36     	; 0x46aa <.L_sign>

00004686 <.L_err>:
    4686:	0e 94 09 24 	call	0x4812	; 0x4812 <__fp_zero>
    468a:	b1 e0       	ldi	r27, 0x01	; 1
    468c:	08 95       	ret

0000468e <.L_zr>:
    468e:	0c 94 09 24 	jmp	0x4812	; 0x4812 <__fp_zero>

00004692 <.L3^B1>:
    4692:	67 2f       	mov	r22, r23
    4694:	78 2f       	mov	r23, r24
    4696:	88 27       	eor	r24, r24
    4698:	b8 5f       	subi	r27, 0xF8	; 248
    469a:	39 f0       	breq	.+14     	; 0x46aa <.L_sign>

0000469c <.L4^B1>:
    469c:	b9 3f       	cpi	r27, 0xF9	; 249
    469e:	cc f3       	brlt	.-14     	; 0x4692 <.L3^B1>

000046a0 <.L5^B1>:
    46a0:	86 95       	lsr	r24
    46a2:	77 95       	ror	r23
    46a4:	67 95       	ror	r22
    46a6:	b3 95       	inc	r27
    46a8:	d9 f7       	brne	.-10     	; 0x46a0 <.L5^B1>

000046aa <.L_sign>:
    46aa:	3e f4       	brtc	.+14     	; 0x46ba <.L6^B1>
    46ac:	90 95       	com	r25
    46ae:	80 95       	com	r24
    46b0:	70 95       	com	r23
    46b2:	61 95       	neg	r22
    46b4:	7f 4f       	sbci	r23, 0xFF	; 255
    46b6:	8f 4f       	sbci	r24, 0xFF	; 255
    46b8:	9f 4f       	sbci	r25, 0xFF	; 255

000046ba <.L6^B1>:
    46ba:	08 95       	ret

000046bc <__floatunsisf>:
    46bc:	e8 94       	clt
    46be:	09 c0       	rjmp	.+18     	; 0x46d2 <.L1^B1>

000046c0 <__floatsisf>:
    46c0:	97 fb       	bst	r25, 7
    46c2:	3e f4       	brtc	.+14     	; 0x46d2 <.L1^B1>
    46c4:	90 95       	com	r25
    46c6:	80 95       	com	r24
    46c8:	70 95       	com	r23
    46ca:	61 95       	neg	r22
    46cc:	7f 4f       	sbci	r23, 0xFF	; 255
    46ce:	8f 4f       	sbci	r24, 0xFF	; 255
    46d0:	9f 4f       	sbci	r25, 0xFF	; 255

000046d2 <.L1^B1>:
    46d2:	99 23       	and	r25, r25
    46d4:	a9 f0       	breq	.+42     	; 0x4700 <.L4^B1>
    46d6:	f9 2f       	mov	r31, r25
    46d8:	96 e9       	ldi	r25, 0x96	; 150
    46da:	bb 27       	eor	r27, r27

000046dc <.L2^B1>:
    46dc:	93 95       	inc	r25
    46de:	f6 95       	lsr	r31
    46e0:	87 95       	ror	r24
    46e2:	77 95       	ror	r23
    46e4:	67 95       	ror	r22
    46e6:	b7 95       	ror	r27
    46e8:	f1 11       	cpse	r31, r1
    46ea:	f8 cf       	rjmp	.-16     	; 0x46dc <.L2^B1>
    46ec:	fa f4       	brpl	.+62     	; 0x472c <.L_pack>
    46ee:	bb 0f       	add	r27, r27
    46f0:	11 f4       	brne	.+4      	; 0x46f6 <.L3^B1>
    46f2:	60 ff       	sbrs	r22, 0
    46f4:	1b c0       	rjmp	.+54     	; 0x472c <.L_pack>

000046f6 <.L3^B1>:
    46f6:	6f 5f       	subi	r22, 0xFF	; 255
    46f8:	7f 4f       	sbci	r23, 0xFF	; 255
    46fa:	8f 4f       	sbci	r24, 0xFF	; 255
    46fc:	9f 4f       	sbci	r25, 0xFF	; 255
    46fe:	16 c0       	rjmp	.+44     	; 0x472c <.L_pack>

00004700 <.L4^B1>:
    4700:	88 23       	and	r24, r24
    4702:	11 f0       	breq	.+4      	; 0x4708 <.L5^B1>
    4704:	96 e9       	ldi	r25, 0x96	; 150
    4706:	11 c0       	rjmp	.+34     	; 0x472a <.L8^B1>

00004708 <.L5^B1>:
    4708:	77 23       	and	r23, r23
    470a:	21 f0       	breq	.+8      	; 0x4714 <.L6^B1>
    470c:	9e e8       	ldi	r25, 0x8E	; 142
    470e:	87 2f       	mov	r24, r23
    4710:	76 2f       	mov	r23, r22
    4712:	05 c0       	rjmp	.+10     	; 0x471e <.L7^B1>

00004714 <.L6^B1>:
    4714:	66 23       	and	r22, r22
    4716:	71 f0       	breq	.+28     	; 0x4734 <.L9^B1>
    4718:	96 e8       	ldi	r25, 0x86	; 134
    471a:	86 2f       	mov	r24, r22
    471c:	70 e0       	ldi	r23, 0x00	; 0

0000471e <.L7^B1>:
    471e:	60 e0       	ldi	r22, 0x00	; 0
    4720:	2a f0       	brmi	.+10     	; 0x472c <.L_pack>

00004722 <.L10^B1>:
    4722:	9a 95       	dec	r25
    4724:	66 0f       	add	r22, r22
    4726:	77 1f       	adc	r23, r23
    4728:	88 1f       	adc	r24, r24

0000472a <.L8^B1>:
    472a:	da f7       	brpl	.-10     	; 0x4722 <.L10^B1>

0000472c <.L_pack>:
    472c:	88 0f       	add	r24, r24
    472e:	96 95       	lsr	r25
    4730:	87 95       	ror	r24
    4732:	97 f9       	bld	r25, 7

00004734 <.L9^B1>:
    4734:	08 95       	ret

00004736 <__fp_cmp>:
    4736:	99 0f       	add	r25, r25
    4738:	00 08       	sbc	r0, r0
    473a:	55 0f       	add	r21, r21
    473c:	aa 0b       	sbc	r26, r26
    473e:	e0 e8       	ldi	r30, 0x80	; 128
    4740:	fe ef       	ldi	r31, 0xFE	; 254
    4742:	16 16       	cp	r1, r22
    4744:	17 06       	cpc	r1, r23
    4746:	e8 07       	cpc	r30, r24
    4748:	f9 07       	cpc	r31, r25
    474a:	c0 f0       	brcs	.+48     	; 0x477c <.L9^B1>
    474c:	12 16       	cp	r1, r18
    474e:	13 06       	cpc	r1, r19
    4750:	e4 07       	cpc	r30, r20
    4752:	f5 07       	cpc	r31, r21
    4754:	98 f0       	brcs	.+38     	; 0x477c <.L9^B1>
    4756:	62 1b       	sub	r22, r18
    4758:	73 0b       	sbc	r23, r19
    475a:	84 0b       	sbc	r24, r20
    475c:	95 0b       	sbc	r25, r21
    475e:	39 f4       	brne	.+14     	; 0x476e <.L1^B1>
    4760:	0a 26       	eor	r0, r26
    4762:	61 f0       	breq	.+24     	; 0x477c <.L9^B1>
    4764:	23 2b       	or	r18, r19
    4766:	24 2b       	or	r18, r20
    4768:	25 2b       	or	r18, r21
    476a:	21 f4       	brne	.+8      	; 0x4774 <.L2^B1>
    476c:	08 95       	ret

0000476e <.L1^B1>:
    476e:	0a 26       	eor	r0, r26
    4770:	09 f4       	brne	.+2      	; 0x4774 <.L2^B1>
    4772:	a1 40       	sbci	r26, 0x01	; 1

00004774 <.L2^B1>:
    4774:	a6 95       	lsr	r26
    4776:	8f ef       	ldi	r24, 0xFF	; 255
    4778:	81 1d       	adc	r24, r1
    477a:	81 1d       	adc	r24, r1

0000477c <.L9^B1>:
    477c:	08 95       	ret

0000477e <__fp_inf>:
    477e:	97 f9       	bld	r25, 7
    4780:	9f 67       	ori	r25, 0x7F	; 127
    4782:	80 e8       	ldi	r24, 0x80	; 128
    4784:	70 e0       	ldi	r23, 0x00	; 0
    4786:	60 e0       	ldi	r22, 0x00	; 0
    4788:	08 95       	ret

0000478a <__fp_nan>:
    478a:	9f ef       	ldi	r25, 0xFF	; 255
    478c:	80 ec       	ldi	r24, 0xC0	; 192
    478e:	08 95       	ret

00004790 <__fp_pscA>:
    4790:	00 24       	eor	r0, r0
    4792:	0a 94       	dec	r0
    4794:	16 16       	cp	r1, r22
    4796:	17 06       	cpc	r1, r23
    4798:	18 06       	cpc	r1, r24
    479a:	09 06       	cpc	r0, r25
    479c:	08 95       	ret

0000479e <__fp_pscB>:
    479e:	00 24       	eor	r0, r0
    47a0:	0a 94       	dec	r0
    47a2:	12 16       	cp	r1, r18
    47a4:	13 06       	cpc	r1, r19
    47a6:	14 06       	cpc	r1, r20
    47a8:	05 06       	cpc	r0, r21
    47aa:	08 95       	ret

000047ac <__fp_round>:
    47ac:	09 2e       	mov	r0, r25
    47ae:	03 94       	inc	r0
    47b0:	00 0c       	add	r0, r0
    47b2:	11 f4       	brne	.+4      	; 0x47b8 <.L1^B1>
    47b4:	88 23       	and	r24, r24
    47b6:	52 f0       	brmi	.+20     	; 0x47cc <.L3^B1>

000047b8 <.L1^B1>:
    47b8:	bb 0f       	add	r27, r27
    47ba:	40 f4       	brcc	.+16     	; 0x47cc <.L3^B1>
    47bc:	bf 2b       	or	r27, r31
    47be:	11 f4       	brne	.+4      	; 0x47c4 <.L2^B1>
    47c0:	60 ff       	sbrs	r22, 0
    47c2:	04 c0       	rjmp	.+8      	; 0x47cc <.L3^B1>

000047c4 <.L2^B1>:
    47c4:	6f 5f       	subi	r22, 0xFF	; 255
    47c6:	7f 4f       	sbci	r23, 0xFF	; 255
    47c8:	8f 4f       	sbci	r24, 0xFF	; 255
    47ca:	9f 4f       	sbci	r25, 0xFF	; 255

000047cc <.L3^B1>:
    47cc:	08 95       	ret

000047ce <__fp_split3>:
    47ce:	57 fd       	sbrc	r21, 7
    47d0:	90 58       	subi	r25, 0x80	; 128
    47d2:	44 0f       	add	r20, r20
    47d4:	55 1f       	adc	r21, r21
    47d6:	59 f0       	breq	.+22     	; 0x47ee <.L4^B1>
    47d8:	5f 3f       	cpi	r21, 0xFF	; 255
    47da:	71 f0       	breq	.+28     	; 0x47f8 <.L5^B1>

000047dc <.L1^B1>:
    47dc:	47 95       	ror	r20

000047de <__fp_splitA>:
    47de:	88 0f       	add	r24, r24
    47e0:	97 fb       	bst	r25, 7
    47e2:	99 1f       	adc	r25, r25
    47e4:	61 f0       	breq	.+24     	; 0x47fe <.L6^B1>
    47e6:	9f 3f       	cpi	r25, 0xFF	; 255
    47e8:	79 f0       	breq	.+30     	; 0x4808 <.L7^B1>

000047ea <.L3^B1>:
    47ea:	87 95       	ror	r24
    47ec:	08 95       	ret

000047ee <.L4^B1>:
    47ee:	12 16       	cp	r1, r18
    47f0:	13 06       	cpc	r1, r19
    47f2:	14 06       	cpc	r1, r20
    47f4:	55 1f       	adc	r21, r21
    47f6:	f2 cf       	rjmp	.-28     	; 0x47dc <.L1^B1>

000047f8 <.L5^B1>:
    47f8:	46 95       	lsr	r20
    47fa:	f1 df       	rcall	.-30     	; 0x47de <__fp_splitA>
    47fc:	08 c0       	rjmp	.+16     	; 0x480e <.L8^B1>

000047fe <.L6^B1>:
    47fe:	16 16       	cp	r1, r22
    4800:	17 06       	cpc	r1, r23
    4802:	18 06       	cpc	r1, r24
    4804:	99 1f       	adc	r25, r25
    4806:	f1 cf       	rjmp	.-30     	; 0x47ea <.L3^B1>

00004808 <.L7^B1>:
    4808:	86 95       	lsr	r24
    480a:	71 05       	cpc	r23, r1
    480c:	61 05       	cpc	r22, r1

0000480e <.L8^B1>:
    480e:	08 94       	sec
    4810:	08 95       	ret

00004812 <__fp_zero>:
    4812:	e8 94       	clt

00004814 <__fp_szero>:
    4814:	bb 27       	eor	r27, r27
    4816:	66 27       	eor	r22, r22
    4818:	77 27       	eor	r23, r23
    481a:	cb 01       	movw	r24, r22
    481c:	97 f9       	bld	r25, 7
    481e:	08 95       	ret

00004820 <__gesf2>:
    4820:	0e 94 9b 23 	call	0x4736	; 0x4736 <__fp_cmp>
    4824:	08 f4       	brcc	.+2      	; 0x4828 <.L1^B1>
    4826:	8f ef       	ldi	r24, 0xFF	; 255

00004828 <.L1^B1>:
    4828:	08 95       	ret

0000482a <__mulsf3>:
    482a:	0e 94 28 24 	call	0x4850	; 0x4850 <__mulsf3x>
    482e:	0c 94 d6 23 	jmp	0x47ac	; 0x47ac <__fp_round>

00004832 <.L^B1>:
    4832:	0e 94 c8 23 	call	0x4790	; 0x4790 <__fp_pscA>
    4836:	38 f0       	brcs	.+14     	; 0x4846 <.L1^B1>
    4838:	0e 94 cf 23 	call	0x479e	; 0x479e <__fp_pscB>
    483c:	20 f0       	brcs	.+8      	; 0x4846 <.L1^B1>
    483e:	95 23       	and	r25, r21
    4840:	11 f0       	breq	.+4      	; 0x4846 <.L1^B1>
    4842:	0c 94 bf 23 	jmp	0x477e	; 0x477e <__fp_inf>

00004846 <.L1^B1>:
    4846:	0c 94 c5 23 	jmp	0x478a	; 0x478a <__fp_nan>

0000484a <.L2^B1>:
    484a:	11 24       	eor	r1, r1
    484c:	0c 94 0a 24 	jmp	0x4814	; 0x4814 <__fp_szero>

00004850 <__mulsf3x>:
    4850:	0e 94 e7 23 	call	0x47ce	; 0x47ce <__fp_split3>
    4854:	70 f3       	brcs	.-36     	; 0x4832 <.L^B1>

00004856 <__mulsf3_pse>:
    4856:	95 9f       	mul	r25, r21
    4858:	c1 f3       	breq	.-16     	; 0x484a <.L2^B1>
    485a:	95 0f       	add	r25, r21
    485c:	50 e0       	ldi	r21, 0x00	; 0
    485e:	55 1f       	adc	r21, r21
    4860:	62 9f       	mul	r22, r18
    4862:	f0 01       	movw	r30, r0
    4864:	72 9f       	mul	r23, r18
    4866:	bb 27       	eor	r27, r27
    4868:	f0 0d       	add	r31, r0
    486a:	b1 1d       	adc	r27, r1
    486c:	63 9f       	mul	r22, r19
    486e:	aa 27       	eor	r26, r26
    4870:	f0 0d       	add	r31, r0
    4872:	b1 1d       	adc	r27, r1
    4874:	aa 1f       	adc	r26, r26
    4876:	64 9f       	mul	r22, r20
    4878:	66 27       	eor	r22, r22
    487a:	b0 0d       	add	r27, r0
    487c:	a1 1d       	adc	r26, r1
    487e:	66 1f       	adc	r22, r22
    4880:	82 9f       	mul	r24, r18
    4882:	22 27       	eor	r18, r18
    4884:	b0 0d       	add	r27, r0
    4886:	a1 1d       	adc	r26, r1
    4888:	62 1f       	adc	r22, r18
    488a:	73 9f       	mul	r23, r19
    488c:	b0 0d       	add	r27, r0
    488e:	a1 1d       	adc	r26, r1
    4890:	62 1f       	adc	r22, r18
    4892:	83 9f       	mul	r24, r19
    4894:	a0 0d       	add	r26, r0
    4896:	61 1d       	adc	r22, r1
    4898:	22 1f       	adc	r18, r18
    489a:	74 9f       	mul	r23, r20
    489c:	33 27       	eor	r19, r19
    489e:	a0 0d       	add	r26, r0
    48a0:	61 1d       	adc	r22, r1
    48a2:	23 1f       	adc	r18, r19
    48a4:	84 9f       	mul	r24, r20
    48a6:	60 0d       	add	r22, r0
    48a8:	21 1d       	adc	r18, r1
    48aa:	82 2f       	mov	r24, r18
    48ac:	76 2f       	mov	r23, r22
    48ae:	6a 2f       	mov	r22, r26
    48b0:	11 24       	eor	r1, r1
    48b2:	9f 57       	subi	r25, 0x7F	; 127
    48b4:	50 40       	sbci	r21, 0x00	; 0
    48b6:	9a f0       	brmi	.+38     	; 0x48de <.L13^B1>
    48b8:	f1 f0       	breq	.+60     	; 0x48f6 <.L15^B1>

000048ba <.L10^B1>:
    48ba:	88 23       	and	r24, r24
    48bc:	4a f0       	brmi	.+18     	; 0x48d0 <.L11^B1>
    48be:	ee 0f       	add	r30, r30
    48c0:	ff 1f       	adc	r31, r31
    48c2:	bb 1f       	adc	r27, r27
    48c4:	66 1f       	adc	r22, r22
    48c6:	77 1f       	adc	r23, r23
    48c8:	88 1f       	adc	r24, r24
    48ca:	91 50       	subi	r25, 0x01	; 1
    48cc:	50 40       	sbci	r21, 0x00	; 0
    48ce:	a9 f7       	brne	.-22     	; 0x48ba <.L10^B1>

000048d0 <.L11^B1>:
    48d0:	9e 3f       	cpi	r25, 0xFE	; 254
    48d2:	51 05       	cpc	r21, r1
    48d4:	80 f0       	brcs	.+32     	; 0x48f6 <.L15^B1>
    48d6:	0c 94 bf 23 	jmp	0x477e	; 0x477e <__fp_inf>

000048da <.L12^B1>:
    48da:	0c 94 0a 24 	jmp	0x4814	; 0x4814 <__fp_szero>

000048de <.L13^B1>:
    48de:	5f 3f       	cpi	r21, 0xFF	; 255
    48e0:	e4 f3       	brlt	.-8      	; 0x48da <.L12^B1>
    48e2:	98 3e       	cpi	r25, 0xE8	; 232
    48e4:	d4 f3       	brlt	.-12     	; 0x48da <.L12^B1>

000048e6 <.L14^B1>:
    48e6:	86 95       	lsr	r24
    48e8:	77 95       	ror	r23
    48ea:	67 95       	ror	r22
    48ec:	b7 95       	ror	r27
    48ee:	f7 95       	ror	r31
    48f0:	e7 95       	ror	r30
    48f2:	9f 5f       	subi	r25, 0xFF	; 255
    48f4:	c1 f7       	brne	.-16     	; 0x48e6 <.L14^B1>

000048f6 <.L15^B1>:
    48f6:	fe 2b       	or	r31, r30
    48f8:	88 0f       	add	r24, r24
    48fa:	91 1d       	adc	r25, r1
    48fc:	96 95       	lsr	r25
    48fe:	87 95       	ror	r24
    4900:	97 f9       	bld	r25, 7
    4902:	08 95       	ret

00004904 <_exit>:
    4904:	f8 94       	cli

00004906 <__stop_program>:
    4906:	ff cf       	rjmp	.-2      	; 0x4906 <__stop_program>

00004908 <L0^A>:
    4908:	5a 0d       	add	r21, r10
    490a:	4f 0e       	add	r4, r31
    490c:	3c 0f       	add	r19, r28
    490e:	15 10       	cpse	r1, r5
    4910:	5c 12       	cpse	r5, r28
    4912:	9b 14       	cp	r9, r11
    4914:	d8 15       	cp	r29, r8
    4916:	09 17       	cp	r16, r25
    4918:	60 19       	sub	r22, r0
    491a:	8f 1a       	sub	r8, r31
    491c:	c1 1b       	sub	r28, r17
    491e:	f1 1c       	adc	r15, r1
    4920:	1d 1e       	adc	r1, r29
